ARM GAS  C:\Users\User\AppData\Local\Temp\cc1WuHb8.s 			page 1


   1              		.cpu cortex-m4
   2              		.eabi_attribute 27, 1
   3              		.eabi_attribute 28, 1
   4              		.eabi_attribute 20, 1
   5              		.eabi_attribute 21, 1
   6              		.eabi_attribute 23, 3
   7              		.eabi_attribute 24, 1
   8              		.eabi_attribute 25, 1
   9              		.eabi_attribute 26, 1
  10              		.eabi_attribute 30, 1
  11              		.eabi_attribute 34, 1
  12              		.eabi_attribute 18, 4
  13              		.file	"i2c.c"
  14              		.text
  15              	.Ltext0:
  16              		.cfi_sections	.debug_frame
  17              		.section	.text.MX_I2C1_Init,"ax",%progbits
  18              		.align	1
  19              		.global	MX_I2C1_Init
  20              		.syntax unified
  21              		.thumb
  22              		.thumb_func
  23              		.fpu fpv4-sp-d16
  25              	MX_I2C1_Init:
  26              	.LFB130:
  27              		.file 1 "Core/Src/i2c.c"
   1:Core/Src/i2c.c **** /**
   2:Core/Src/i2c.c ****   ******************************************************************************
   3:Core/Src/i2c.c ****   * @file    i2c.c
   4:Core/Src/i2c.c ****   * @brief   This file provides code for the configuration
   5:Core/Src/i2c.c ****   *          of the I2C instances.
   6:Core/Src/i2c.c ****   ******************************************************************************
   7:Core/Src/i2c.c ****   * @attention
   8:Core/Src/i2c.c ****   *
   9:Core/Src/i2c.c ****   * <h2><center>&copy; Copyright (c) 2021 STMicroelectronics.
  10:Core/Src/i2c.c ****   * All rights reserved.</center></h2>
  11:Core/Src/i2c.c ****   *
  12:Core/Src/i2c.c ****   * This software component is licensed by ST under Ultimate Liberty license
  13:Core/Src/i2c.c ****   * SLA0044, the "License"; You may not use this file except in compliance with
  14:Core/Src/i2c.c ****   * the License. You may obtain a copy of the License at:
  15:Core/Src/i2c.c ****   *                             www.st.com/SLA0044
  16:Core/Src/i2c.c ****   *
  17:Core/Src/i2c.c ****   ******************************************************************************
  18:Core/Src/i2c.c ****   */
  19:Core/Src/i2c.c **** 
  20:Core/Src/i2c.c **** /* Includes ------------------------------------------------------------------*/
  21:Core/Src/i2c.c **** #include "i2c.h"
  22:Core/Src/i2c.c **** 
  23:Core/Src/i2c.c **** /* USER CODE BEGIN 0 */
  24:Core/Src/i2c.c **** 
  25:Core/Src/i2c.c **** /* USER CODE END 0 */
  26:Core/Src/i2c.c **** 
  27:Core/Src/i2c.c **** I2C_HandleTypeDef hi2c1;
  28:Core/Src/i2c.c **** 
  29:Core/Src/i2c.c **** /* I2C1 init function */
  30:Core/Src/i2c.c **** void MX_I2C1_Init(void)
  31:Core/Src/i2c.c **** {
ARM GAS  C:\Users\User\AppData\Local\Temp\cc1WuHb8.s 			page 2


  28              		.loc 1 31 0
  29              		.cfi_startproc
  30              		@ args = 0, pretend = 0, frame = 0
  31              		@ frame_needed = 0, uses_anonymous_args = 0
  32 0000 08B5     		push	{r3, lr}
  33              	.LCFI0:
  34              		.cfi_def_cfa_offset 8
  35              		.cfi_offset 3, -8
  36              		.cfi_offset 14, -4
  32:Core/Src/i2c.c **** 
  33:Core/Src/i2c.c ****   hi2c1.Instance = I2C1;
  37              		.loc 1 33 0
  38 0002 0B48     		ldr	r0, .L5
  39 0004 0B4B     		ldr	r3, .L5+4
  40 0006 0360     		str	r3, [r0]
  34:Core/Src/i2c.c ****   hi2c1.Init.ClockSpeed = 100000;
  41              		.loc 1 34 0
  42 0008 0B4B     		ldr	r3, .L5+8
  43 000a 4360     		str	r3, [r0, #4]
  35:Core/Src/i2c.c ****   hi2c1.Init.DutyCycle = I2C_DUTYCYCLE_2;
  44              		.loc 1 35 0
  45 000c 0023     		movs	r3, #0
  46 000e 8360     		str	r3, [r0, #8]
  36:Core/Src/i2c.c ****   hi2c1.Init.OwnAddress1 = 0;
  47              		.loc 1 36 0
  48 0010 C360     		str	r3, [r0, #12]
  37:Core/Src/i2c.c ****   hi2c1.Init.AddressingMode = I2C_ADDRESSINGMODE_7BIT;
  49              		.loc 1 37 0
  50 0012 4FF48042 		mov	r2, #16384
  51 0016 0261     		str	r2, [r0, #16]
  38:Core/Src/i2c.c ****   hi2c1.Init.DualAddressMode = I2C_DUALADDRESS_DISABLE;
  52              		.loc 1 38 0
  53 0018 4361     		str	r3, [r0, #20]
  39:Core/Src/i2c.c ****   hi2c1.Init.OwnAddress2 = 0;
  54              		.loc 1 39 0
  55 001a 8361     		str	r3, [r0, #24]
  40:Core/Src/i2c.c ****   hi2c1.Init.GeneralCallMode = I2C_GENERALCALL_DISABLE;
  56              		.loc 1 40 0
  57 001c C361     		str	r3, [r0, #28]
  41:Core/Src/i2c.c ****   hi2c1.Init.NoStretchMode = I2C_NOSTRETCH_DISABLE;
  58              		.loc 1 41 0
  59 001e 0362     		str	r3, [r0, #32]
  42:Core/Src/i2c.c ****   if (HAL_I2C_Init(&hi2c1) != HAL_OK)
  60              		.loc 1 42 0
  61 0020 FFF7FEFF 		bl	HAL_I2C_Init
  62              	.LVL0:
  63 0024 00B9     		cbnz	r0, .L4
  64              	.L1:
  43:Core/Src/i2c.c ****   {
  44:Core/Src/i2c.c ****     Error_Handler();
  45:Core/Src/i2c.c ****   }
  46:Core/Src/i2c.c **** 
  47:Core/Src/i2c.c **** }
  65              		.loc 1 47 0
  66 0026 08BD     		pop	{r3, pc}
  67              	.L4:
  44:Core/Src/i2c.c ****   }
ARM GAS  C:\Users\User\AppData\Local\Temp\cc1WuHb8.s 			page 3


  68              		.loc 1 44 0
  69 0028 FFF7FEFF 		bl	Error_Handler
  70              	.LVL1:
  71              		.loc 1 47 0
  72 002c FBE7     		b	.L1
  73              	.L6:
  74 002e 00BF     		.align	2
  75              	.L5:
  76 0030 00000000 		.word	hi2c1
  77 0034 00540040 		.word	1073763328
  78 0038 A0860100 		.word	100000
  79              		.cfi_endproc
  80              	.LFE130:
  82              		.section	.text.HAL_I2C_MspInit,"ax",%progbits
  83              		.align	1
  84              		.global	HAL_I2C_MspInit
  85              		.syntax unified
  86              		.thumb
  87              		.thumb_func
  88              		.fpu fpv4-sp-d16
  90              	HAL_I2C_MspInit:
  91              	.LFB131:
  48:Core/Src/i2c.c **** 
  49:Core/Src/i2c.c **** void HAL_I2C_MspInit(I2C_HandleTypeDef* i2cHandle)
  50:Core/Src/i2c.c **** {
  92              		.loc 1 50 0
  93              		.cfi_startproc
  94              		@ args = 0, pretend = 0, frame = 32
  95              		@ frame_needed = 0, uses_anonymous_args = 0
  96              	.LVL2:
  97 0000 30B5     		push	{r4, r5, lr}
  98              	.LCFI1:
  99              		.cfi_def_cfa_offset 12
 100              		.cfi_offset 4, -12
 101              		.cfi_offset 5, -8
 102              		.cfi_offset 14, -4
 103 0002 89B0     		sub	sp, sp, #36
 104              	.LCFI2:
 105              		.cfi_def_cfa_offset 48
  51:Core/Src/i2c.c **** 
  52:Core/Src/i2c.c ****   GPIO_InitTypeDef GPIO_InitStruct = {0};
 106              		.loc 1 52 0
 107 0004 0023     		movs	r3, #0
 108 0006 0393     		str	r3, [sp, #12]
 109 0008 0493     		str	r3, [sp, #16]
 110 000a 0593     		str	r3, [sp, #20]
 111 000c 0693     		str	r3, [sp, #24]
 112 000e 0793     		str	r3, [sp, #28]
  53:Core/Src/i2c.c ****   if(i2cHandle->Instance==I2C1)
 113              		.loc 1 53 0
 114 0010 0268     		ldr	r2, [r0]
 115 0012 144B     		ldr	r3, .L11
 116 0014 9A42     		cmp	r2, r3
 117 0016 01D0     		beq	.L10
 118              	.LVL3:
 119              	.L7:
  54:Core/Src/i2c.c ****   {
ARM GAS  C:\Users\User\AppData\Local\Temp\cc1WuHb8.s 			page 4


  55:Core/Src/i2c.c ****   /* USER CODE BEGIN I2C1_MspInit 0 */
  56:Core/Src/i2c.c **** 
  57:Core/Src/i2c.c ****   /* USER CODE END I2C1_MspInit 0 */
  58:Core/Src/i2c.c **** 
  59:Core/Src/i2c.c ****     __HAL_RCC_GPIOB_CLK_ENABLE();
  60:Core/Src/i2c.c ****     /**I2C1 GPIO Configuration
  61:Core/Src/i2c.c ****     PB6     ------> I2C1_SCL
  62:Core/Src/i2c.c ****     PB9     ------> I2C1_SDA
  63:Core/Src/i2c.c ****     */
  64:Core/Src/i2c.c ****     GPIO_InitStruct.Pin = Audio_SCL_Pin|Audio_SDA_Pin;
  65:Core/Src/i2c.c ****     GPIO_InitStruct.Mode = GPIO_MODE_AF_OD;
  66:Core/Src/i2c.c ****     GPIO_InitStruct.Pull = GPIO_PULLUP;
  67:Core/Src/i2c.c ****     GPIO_InitStruct.Speed = GPIO_SPEED_FREQ_LOW;
  68:Core/Src/i2c.c ****     GPIO_InitStruct.Alternate = GPIO_AF4_I2C1;
  69:Core/Src/i2c.c ****     HAL_GPIO_Init(GPIOB, &GPIO_InitStruct);
  70:Core/Src/i2c.c **** 
  71:Core/Src/i2c.c ****     /* I2C1 clock enable */
  72:Core/Src/i2c.c ****     __HAL_RCC_I2C1_CLK_ENABLE();
  73:Core/Src/i2c.c ****   /* USER CODE BEGIN I2C1_MspInit 1 */
  74:Core/Src/i2c.c **** 
  75:Core/Src/i2c.c ****   /* USER CODE END I2C1_MspInit 1 */
  76:Core/Src/i2c.c ****   }
  77:Core/Src/i2c.c **** }
 120              		.loc 1 77 0
 121 0018 09B0     		add	sp, sp, #36
 122              	.LCFI3:
 123              		.cfi_remember_state
 124              		.cfi_def_cfa_offset 12
 125              		@ sp needed
 126 001a 30BD     		pop	{r4, r5, pc}
 127              	.LVL4:
 128              	.L10:
 129              	.LCFI4:
 130              		.cfi_restore_state
 131              	.LBB2:
  59:Core/Src/i2c.c ****     /**I2C1 GPIO Configuration
 132              		.loc 1 59 0
 133 001c 0025     		movs	r5, #0
 134 001e 0195     		str	r5, [sp, #4]
 135 0020 114C     		ldr	r4, .L11+4
 136 0022 236B     		ldr	r3, [r4, #48]
 137 0024 43F00203 		orr	r3, r3, #2
 138 0028 2363     		str	r3, [r4, #48]
 139 002a 236B     		ldr	r3, [r4, #48]
 140 002c 03F00203 		and	r3, r3, #2
 141 0030 0193     		str	r3, [sp, #4]
 142 0032 019B     		ldr	r3, [sp, #4]
 143              	.LBE2:
  64:Core/Src/i2c.c ****     GPIO_InitStruct.Mode = GPIO_MODE_AF_OD;
 144              		.loc 1 64 0
 145 0034 4FF41073 		mov	r3, #576
 146 0038 0393     		str	r3, [sp, #12]
  65:Core/Src/i2c.c ****     GPIO_InitStruct.Pull = GPIO_PULLUP;
 147              		.loc 1 65 0
 148 003a 1223     		movs	r3, #18
 149 003c 0493     		str	r3, [sp, #16]
  66:Core/Src/i2c.c ****     GPIO_InitStruct.Speed = GPIO_SPEED_FREQ_LOW;
ARM GAS  C:\Users\User\AppData\Local\Temp\cc1WuHb8.s 			page 5


 150              		.loc 1 66 0
 151 003e 0123     		movs	r3, #1
 152 0040 0593     		str	r3, [sp, #20]
  68:Core/Src/i2c.c ****     HAL_GPIO_Init(GPIOB, &GPIO_InitStruct);
 153              		.loc 1 68 0
 154 0042 0423     		movs	r3, #4
 155 0044 0793     		str	r3, [sp, #28]
  69:Core/Src/i2c.c **** 
 156              		.loc 1 69 0
 157 0046 03A9     		add	r1, sp, #12
 158 0048 0848     		ldr	r0, .L11+8
 159              	.LVL5:
 160 004a FFF7FEFF 		bl	HAL_GPIO_Init
 161              	.LVL6:
 162              	.LBB3:
  72:Core/Src/i2c.c ****   /* USER CODE BEGIN I2C1_MspInit 1 */
 163              		.loc 1 72 0
 164 004e 0295     		str	r5, [sp, #8]
 165 0050 236C     		ldr	r3, [r4, #64]
 166 0052 43F40013 		orr	r3, r3, #2097152
 167 0056 2364     		str	r3, [r4, #64]
 168 0058 236C     		ldr	r3, [r4, #64]
 169 005a 03F40013 		and	r3, r3, #2097152
 170 005e 0293     		str	r3, [sp, #8]
 171 0060 029B     		ldr	r3, [sp, #8]
 172              	.LBE3:
 173              		.loc 1 77 0
 174 0062 D9E7     		b	.L7
 175              	.L12:
 176              		.align	2
 177              	.L11:
 178 0064 00540040 		.word	1073763328
 179 0068 00380240 		.word	1073887232
 180 006c 00040240 		.word	1073873920
 181              		.cfi_endproc
 182              	.LFE131:
 184              		.section	.text.HAL_I2C_MspDeInit,"ax",%progbits
 185              		.align	1
 186              		.global	HAL_I2C_MspDeInit
 187              		.syntax unified
 188              		.thumb
 189              		.thumb_func
 190              		.fpu fpv4-sp-d16
 192              	HAL_I2C_MspDeInit:
 193              	.LFB132:
  78:Core/Src/i2c.c **** 
  79:Core/Src/i2c.c **** void HAL_I2C_MspDeInit(I2C_HandleTypeDef* i2cHandle)
  80:Core/Src/i2c.c **** {
 194              		.loc 1 80 0
 195              		.cfi_startproc
 196              		@ args = 0, pretend = 0, frame = 0
 197              		@ frame_needed = 0, uses_anonymous_args = 0
 198              	.LVL7:
  81:Core/Src/i2c.c **** 
  82:Core/Src/i2c.c ****   if(i2cHandle->Instance==I2C1)
 199              		.loc 1 82 0
 200 0000 0268     		ldr	r2, [r0]
ARM GAS  C:\Users\User\AppData\Local\Temp\cc1WuHb8.s 			page 6


 201 0002 0A4B     		ldr	r3, .L20
 202 0004 9A42     		cmp	r2, r3
 203 0006 00D0     		beq	.L19
 204 0008 7047     		bx	lr
 205              	.L19:
  80:Core/Src/i2c.c **** 
 206              		.loc 1 80 0
 207 000a 10B5     		push	{r4, lr}
 208              	.LCFI5:
 209              		.cfi_def_cfa_offset 8
 210              		.cfi_offset 4, -8
 211              		.cfi_offset 14, -4
  83:Core/Src/i2c.c ****   {
  84:Core/Src/i2c.c ****   /* USER CODE BEGIN I2C1_MspDeInit 0 */
  85:Core/Src/i2c.c **** 
  86:Core/Src/i2c.c ****   /* USER CODE END I2C1_MspDeInit 0 */
  87:Core/Src/i2c.c ****     /* Peripheral clock disable */
  88:Core/Src/i2c.c ****     __HAL_RCC_I2C1_CLK_DISABLE();
 212              		.loc 1 88 0
 213 000c 084A     		ldr	r2, .L20+4
 214 000e 136C     		ldr	r3, [r2, #64]
 215 0010 23F40013 		bic	r3, r3, #2097152
 216 0014 1364     		str	r3, [r2, #64]
  89:Core/Src/i2c.c **** 
  90:Core/Src/i2c.c ****     /**I2C1 GPIO Configuration
  91:Core/Src/i2c.c ****     PB6     ------> I2C1_SCL
  92:Core/Src/i2c.c ****     PB9     ------> I2C1_SDA
  93:Core/Src/i2c.c ****     */
  94:Core/Src/i2c.c ****     HAL_GPIO_DeInit(Audio_SCL_GPIO_Port, Audio_SCL_Pin);
 217              		.loc 1 94 0
 218 0016 074C     		ldr	r4, .L20+8
 219 0018 4021     		movs	r1, #64
 220 001a 2046     		mov	r0, r4
 221              	.LVL8:
 222 001c FFF7FEFF 		bl	HAL_GPIO_DeInit
 223              	.LVL9:
  95:Core/Src/i2c.c **** 
  96:Core/Src/i2c.c ****     HAL_GPIO_DeInit(Audio_SDA_GPIO_Port, Audio_SDA_Pin);
 224              		.loc 1 96 0
 225 0020 4FF40071 		mov	r1, #512
 226 0024 2046     		mov	r0, r4
 227 0026 FFF7FEFF 		bl	HAL_GPIO_DeInit
 228              	.LVL10:
  97:Core/Src/i2c.c **** 
  98:Core/Src/i2c.c ****   /* USER CODE BEGIN I2C1_MspDeInit 1 */
  99:Core/Src/i2c.c **** 
 100:Core/Src/i2c.c ****   /* USER CODE END I2C1_MspDeInit 1 */
 101:Core/Src/i2c.c ****   }
 102:Core/Src/i2c.c **** }
 229              		.loc 1 102 0
 230 002a 10BD     		pop	{r4, pc}
 231              	.L21:
 232              		.align	2
 233              	.L20:
 234 002c 00540040 		.word	1073763328
 235 0030 00380240 		.word	1073887232
 236 0034 00040240 		.word	1073873920
ARM GAS  C:\Users\User\AppData\Local\Temp\cc1WuHb8.s 			page 7


 237              		.cfi_endproc
 238              	.LFE132:
 240              		.comm	hi2c1,84,4
 241              		.text
 242              	.Letext0:
 243              		.file 2 "d:\\stm32_project\\tool\\7-2018-q2-update\\arm-none-eabi\\include\\machine\\_default_type
 244              		.file 3 "d:\\stm32_project\\tool\\7-2018-q2-update\\arm-none-eabi\\include\\sys\\_stdint.h"
 245              		.file 4 "Drivers/CMSIS/Include/core_cm4.h"
 246              		.file 5 "Drivers/CMSIS/Device/ST/STM32F4xx/Include/system_stm32f4xx.h"
 247              		.file 6 "Drivers/CMSIS/Device/ST/STM32F4xx/Include/stm32f407xx.h"
 248              		.file 7 "Drivers/STM32F4xx_HAL_Driver/Inc/stm32f4xx_hal_def.h"
 249              		.file 8 "Drivers/STM32F4xx_HAL_Driver/Inc/stm32f4xx_hal_gpio.h"
 250              		.file 9 "Drivers/STM32F4xx_HAL_Driver/Inc/stm32f4xx_hal_dma.h"
 251              		.file 10 "Drivers/STM32F4xx_HAL_Driver/Inc/stm32f4xx_hal_i2c.h"
 252              		.file 11 "Drivers/STM32F4xx_HAL_Driver/Inc/stm32f4xx_hal.h"
 253              		.file 12 "Core/Inc/i2c.h"
 254              		.file 13 "Core/Inc/main.h"
ARM GAS  C:\Users\User\AppData\Local\Temp\cc1WuHb8.s 			page 8

