ARM GAS  C:\Users\User\AppData\Local\Temp\ccbub1mW.s 			page 1


   1              		.cpu cortex-m4
   2              		.eabi_attribute 27, 1
   3              		.eabi_attribute 28, 1
   4              		.eabi_attribute 20, 1
   5              		.eabi_attribute 21, 1
   6              		.eabi_attribute 23, 3
   7              		.eabi_attribute 24, 1
   8              		.eabi_attribute 25, 1
   9              		.eabi_attribute 26, 1
  10              		.eabi_attribute 30, 1
  11              		.eabi_attribute 34, 1
  12              		.eabi_attribute 18, 4
  13              		.file	"stm32f4xx_ll_usb.c"
  14              		.text
  15              	.Ltext0:
  16              		.cfi_sections	.debug_frame
  17              		.section	.text.USB_CoreReset,"ax",%progbits
  18              		.align	1
  19              		.syntax unified
  20              		.thumb
  21              		.thumb_func
  22              		.fpu fpv4-sp-d16
  24              	USB_CoreReset:
  25              	.LFB163:
  26              		.file 1 "Drivers/STM32F4xx_HAL_Driver/Src/stm32f4xx_ll_usb.c"
   1:Drivers/STM32F4xx_HAL_Driver/Src/stm32f4xx_ll_usb.c **** /**
   2:Drivers/STM32F4xx_HAL_Driver/Src/stm32f4xx_ll_usb.c ****   ******************************************************************************
   3:Drivers/STM32F4xx_HAL_Driver/Src/stm32f4xx_ll_usb.c ****   * @file    stm32f4xx_ll_usb.c
   4:Drivers/STM32F4xx_HAL_Driver/Src/stm32f4xx_ll_usb.c ****   * @author  MCD Application Team
   5:Drivers/STM32F4xx_HAL_Driver/Src/stm32f4xx_ll_usb.c ****   * @brief   USB Low Layer HAL module driver.
   6:Drivers/STM32F4xx_HAL_Driver/Src/stm32f4xx_ll_usb.c ****   *
   7:Drivers/STM32F4xx_HAL_Driver/Src/stm32f4xx_ll_usb.c ****   *          This file provides firmware functions to manage the following
   8:Drivers/STM32F4xx_HAL_Driver/Src/stm32f4xx_ll_usb.c ****   *          functionalities of the USB Peripheral Controller:
   9:Drivers/STM32F4xx_HAL_Driver/Src/stm32f4xx_ll_usb.c ****   *           + Initialization/de-initialization functions
  10:Drivers/STM32F4xx_HAL_Driver/Src/stm32f4xx_ll_usb.c ****   *           + I/O operation functions
  11:Drivers/STM32F4xx_HAL_Driver/Src/stm32f4xx_ll_usb.c ****   *           + Peripheral Control functions
  12:Drivers/STM32F4xx_HAL_Driver/Src/stm32f4xx_ll_usb.c ****   *           + Peripheral State functions
  13:Drivers/STM32F4xx_HAL_Driver/Src/stm32f4xx_ll_usb.c ****   *
  14:Drivers/STM32F4xx_HAL_Driver/Src/stm32f4xx_ll_usb.c ****   @verbatim
  15:Drivers/STM32F4xx_HAL_Driver/Src/stm32f4xx_ll_usb.c ****   ==============================================================================
  16:Drivers/STM32F4xx_HAL_Driver/Src/stm32f4xx_ll_usb.c ****                     ##### How to use this driver #####
  17:Drivers/STM32F4xx_HAL_Driver/Src/stm32f4xx_ll_usb.c ****   ==============================================================================
  18:Drivers/STM32F4xx_HAL_Driver/Src/stm32f4xx_ll_usb.c ****     [..]
  19:Drivers/STM32F4xx_HAL_Driver/Src/stm32f4xx_ll_usb.c ****       (#) Fill parameters of Init structure in USB_OTG_CfgTypeDef structure.
  20:Drivers/STM32F4xx_HAL_Driver/Src/stm32f4xx_ll_usb.c **** 
  21:Drivers/STM32F4xx_HAL_Driver/Src/stm32f4xx_ll_usb.c ****       (#) Call USB_CoreInit() API to initialize the USB Core peripheral.
  22:Drivers/STM32F4xx_HAL_Driver/Src/stm32f4xx_ll_usb.c **** 
  23:Drivers/STM32F4xx_HAL_Driver/Src/stm32f4xx_ll_usb.c ****       (#) The upper HAL HCD/PCD driver will call the right routines for its internal processes.
  24:Drivers/STM32F4xx_HAL_Driver/Src/stm32f4xx_ll_usb.c **** 
  25:Drivers/STM32F4xx_HAL_Driver/Src/stm32f4xx_ll_usb.c ****   @endverbatim
  26:Drivers/STM32F4xx_HAL_Driver/Src/stm32f4xx_ll_usb.c ****   ******************************************************************************
  27:Drivers/STM32F4xx_HAL_Driver/Src/stm32f4xx_ll_usb.c ****   * @attention
  28:Drivers/STM32F4xx_HAL_Driver/Src/stm32f4xx_ll_usb.c ****   *
  29:Drivers/STM32F4xx_HAL_Driver/Src/stm32f4xx_ll_usb.c ****   * <h2><center>&copy; Copyright (c) 2016 STMicroelectronics.
  30:Drivers/STM32F4xx_HAL_Driver/Src/stm32f4xx_ll_usb.c ****   * All rights reserved.</center></h2>
  31:Drivers/STM32F4xx_HAL_Driver/Src/stm32f4xx_ll_usb.c ****   *
  32:Drivers/STM32F4xx_HAL_Driver/Src/stm32f4xx_ll_usb.c ****   * This software component is licensed by ST under BSD 3-Clause license,
ARM GAS  C:\Users\User\AppData\Local\Temp\ccbub1mW.s 			page 2


  33:Drivers/STM32F4xx_HAL_Driver/Src/stm32f4xx_ll_usb.c ****   * the "License"; You may not use this file except in compliance with the
  34:Drivers/STM32F4xx_HAL_Driver/Src/stm32f4xx_ll_usb.c ****   * License. You may obtain a copy of the License at:
  35:Drivers/STM32F4xx_HAL_Driver/Src/stm32f4xx_ll_usb.c ****   *                        opensource.org/licenses/BSD-3-Clause
  36:Drivers/STM32F4xx_HAL_Driver/Src/stm32f4xx_ll_usb.c ****   *
  37:Drivers/STM32F4xx_HAL_Driver/Src/stm32f4xx_ll_usb.c ****   ******************************************************************************
  38:Drivers/STM32F4xx_HAL_Driver/Src/stm32f4xx_ll_usb.c ****   */
  39:Drivers/STM32F4xx_HAL_Driver/Src/stm32f4xx_ll_usb.c **** 
  40:Drivers/STM32F4xx_HAL_Driver/Src/stm32f4xx_ll_usb.c **** /* Includes ------------------------------------------------------------------*/
  41:Drivers/STM32F4xx_HAL_Driver/Src/stm32f4xx_ll_usb.c **** #include "stm32f4xx_hal.h"
  42:Drivers/STM32F4xx_HAL_Driver/Src/stm32f4xx_ll_usb.c **** 
  43:Drivers/STM32F4xx_HAL_Driver/Src/stm32f4xx_ll_usb.c **** /** @addtogroup STM32F4xx_LL_USB_DRIVER
  44:Drivers/STM32F4xx_HAL_Driver/Src/stm32f4xx_ll_usb.c ****   * @{
  45:Drivers/STM32F4xx_HAL_Driver/Src/stm32f4xx_ll_usb.c ****   */
  46:Drivers/STM32F4xx_HAL_Driver/Src/stm32f4xx_ll_usb.c **** 
  47:Drivers/STM32F4xx_HAL_Driver/Src/stm32f4xx_ll_usb.c **** #if defined (HAL_PCD_MODULE_ENABLED) || defined (HAL_HCD_MODULE_ENABLED)
  48:Drivers/STM32F4xx_HAL_Driver/Src/stm32f4xx_ll_usb.c **** #if defined (USB_OTG_FS) || defined (USB_OTG_HS)
  49:Drivers/STM32F4xx_HAL_Driver/Src/stm32f4xx_ll_usb.c **** /* Private typedef -----------------------------------------------------------*/
  50:Drivers/STM32F4xx_HAL_Driver/Src/stm32f4xx_ll_usb.c **** /* Private define ------------------------------------------------------------*/
  51:Drivers/STM32F4xx_HAL_Driver/Src/stm32f4xx_ll_usb.c **** /* Private macro -------------------------------------------------------------*/
  52:Drivers/STM32F4xx_HAL_Driver/Src/stm32f4xx_ll_usb.c **** /* Private variables ---------------------------------------------------------*/
  53:Drivers/STM32F4xx_HAL_Driver/Src/stm32f4xx_ll_usb.c **** /* Private function prototypes -----------------------------------------------*/
  54:Drivers/STM32F4xx_HAL_Driver/Src/stm32f4xx_ll_usb.c **** /* Private functions ---------------------------------------------------------*/
  55:Drivers/STM32F4xx_HAL_Driver/Src/stm32f4xx_ll_usb.c **** #if defined (USB_OTG_FS) || defined (USB_OTG_HS)
  56:Drivers/STM32F4xx_HAL_Driver/Src/stm32f4xx_ll_usb.c **** static HAL_StatusTypeDef USB_CoreReset(USB_OTG_GlobalTypeDef *USBx);
  57:Drivers/STM32F4xx_HAL_Driver/Src/stm32f4xx_ll_usb.c **** 
  58:Drivers/STM32F4xx_HAL_Driver/Src/stm32f4xx_ll_usb.c **** /* Exported functions --------------------------------------------------------*/
  59:Drivers/STM32F4xx_HAL_Driver/Src/stm32f4xx_ll_usb.c **** /** @defgroup USB_LL_Exported_Functions USB Low Layer Exported Functions
  60:Drivers/STM32F4xx_HAL_Driver/Src/stm32f4xx_ll_usb.c ****   * @{
  61:Drivers/STM32F4xx_HAL_Driver/Src/stm32f4xx_ll_usb.c ****   */
  62:Drivers/STM32F4xx_HAL_Driver/Src/stm32f4xx_ll_usb.c **** 
  63:Drivers/STM32F4xx_HAL_Driver/Src/stm32f4xx_ll_usb.c **** /** @defgroup USB_LL_Exported_Functions_Group1 Initialization/de-initialization functions
  64:Drivers/STM32F4xx_HAL_Driver/Src/stm32f4xx_ll_usb.c ****   *  @brief    Initialization and Configuration functions
  65:Drivers/STM32F4xx_HAL_Driver/Src/stm32f4xx_ll_usb.c ****   *
  66:Drivers/STM32F4xx_HAL_Driver/Src/stm32f4xx_ll_usb.c **** @verbatim
  67:Drivers/STM32F4xx_HAL_Driver/Src/stm32f4xx_ll_usb.c ****  ===============================================================================
  68:Drivers/STM32F4xx_HAL_Driver/Src/stm32f4xx_ll_usb.c ****                       ##### Initialization/de-initialization functions #####
  69:Drivers/STM32F4xx_HAL_Driver/Src/stm32f4xx_ll_usb.c ****  ===============================================================================
  70:Drivers/STM32F4xx_HAL_Driver/Src/stm32f4xx_ll_usb.c **** 
  71:Drivers/STM32F4xx_HAL_Driver/Src/stm32f4xx_ll_usb.c **** @endverbatim
  72:Drivers/STM32F4xx_HAL_Driver/Src/stm32f4xx_ll_usb.c ****   * @{
  73:Drivers/STM32F4xx_HAL_Driver/Src/stm32f4xx_ll_usb.c ****   */
  74:Drivers/STM32F4xx_HAL_Driver/Src/stm32f4xx_ll_usb.c **** 
  75:Drivers/STM32F4xx_HAL_Driver/Src/stm32f4xx_ll_usb.c **** /**
  76:Drivers/STM32F4xx_HAL_Driver/Src/stm32f4xx_ll_usb.c ****   * @brief  Initializes the USB Core
  77:Drivers/STM32F4xx_HAL_Driver/Src/stm32f4xx_ll_usb.c ****   * @param  USBx USB Instance
  78:Drivers/STM32F4xx_HAL_Driver/Src/stm32f4xx_ll_usb.c ****   * @param  cfg pointer to a USB_OTG_CfgTypeDef structure that contains
  79:Drivers/STM32F4xx_HAL_Driver/Src/stm32f4xx_ll_usb.c ****   *         the configuration information for the specified USBx peripheral.
  80:Drivers/STM32F4xx_HAL_Driver/Src/stm32f4xx_ll_usb.c ****   * @retval HAL status
  81:Drivers/STM32F4xx_HAL_Driver/Src/stm32f4xx_ll_usb.c ****   */
  82:Drivers/STM32F4xx_HAL_Driver/Src/stm32f4xx_ll_usb.c **** HAL_StatusTypeDef USB_CoreInit(USB_OTG_GlobalTypeDef *USBx, USB_OTG_CfgTypeDef cfg)
  83:Drivers/STM32F4xx_HAL_Driver/Src/stm32f4xx_ll_usb.c **** {
  84:Drivers/STM32F4xx_HAL_Driver/Src/stm32f4xx_ll_usb.c ****   HAL_StatusTypeDef ret;
  85:Drivers/STM32F4xx_HAL_Driver/Src/stm32f4xx_ll_usb.c **** 
  86:Drivers/STM32F4xx_HAL_Driver/Src/stm32f4xx_ll_usb.c ****   if (cfg.phy_itface == USB_OTG_ULPI_PHY)
  87:Drivers/STM32F4xx_HAL_Driver/Src/stm32f4xx_ll_usb.c ****   {
  88:Drivers/STM32F4xx_HAL_Driver/Src/stm32f4xx_ll_usb.c ****     USBx->GCCFG &= ~(USB_OTG_GCCFG_PWRDWN);
  89:Drivers/STM32F4xx_HAL_Driver/Src/stm32f4xx_ll_usb.c **** 
ARM GAS  C:\Users\User\AppData\Local\Temp\ccbub1mW.s 			page 3


  90:Drivers/STM32F4xx_HAL_Driver/Src/stm32f4xx_ll_usb.c ****     /* Init The ULPI Interface */
  91:Drivers/STM32F4xx_HAL_Driver/Src/stm32f4xx_ll_usb.c ****     USBx->GUSBCFG &= ~(USB_OTG_GUSBCFG_TSDPS | USB_OTG_GUSBCFG_ULPIFSLS | USB_OTG_GUSBCFG_PHYSEL);
  92:Drivers/STM32F4xx_HAL_Driver/Src/stm32f4xx_ll_usb.c **** 
  93:Drivers/STM32F4xx_HAL_Driver/Src/stm32f4xx_ll_usb.c ****     /* Select vbus source */
  94:Drivers/STM32F4xx_HAL_Driver/Src/stm32f4xx_ll_usb.c ****     USBx->GUSBCFG &= ~(USB_OTG_GUSBCFG_ULPIEVBUSD | USB_OTG_GUSBCFG_ULPIEVBUSI);
  95:Drivers/STM32F4xx_HAL_Driver/Src/stm32f4xx_ll_usb.c ****     if (cfg.use_external_vbus == 1U)
  96:Drivers/STM32F4xx_HAL_Driver/Src/stm32f4xx_ll_usb.c ****     {
  97:Drivers/STM32F4xx_HAL_Driver/Src/stm32f4xx_ll_usb.c ****       USBx->GUSBCFG |= USB_OTG_GUSBCFG_ULPIEVBUSD;
  98:Drivers/STM32F4xx_HAL_Driver/Src/stm32f4xx_ll_usb.c ****     }
  99:Drivers/STM32F4xx_HAL_Driver/Src/stm32f4xx_ll_usb.c ****     /* Reset after a PHY select  */
 100:Drivers/STM32F4xx_HAL_Driver/Src/stm32f4xx_ll_usb.c ****     ret = USB_CoreReset(USBx);
 101:Drivers/STM32F4xx_HAL_Driver/Src/stm32f4xx_ll_usb.c ****   }
 102:Drivers/STM32F4xx_HAL_Driver/Src/stm32f4xx_ll_usb.c ****   else /* FS interface (embedded Phy) */
 103:Drivers/STM32F4xx_HAL_Driver/Src/stm32f4xx_ll_usb.c ****   {
 104:Drivers/STM32F4xx_HAL_Driver/Src/stm32f4xx_ll_usb.c ****     /* Select FS Embedded PHY */
 105:Drivers/STM32F4xx_HAL_Driver/Src/stm32f4xx_ll_usb.c ****     USBx->GUSBCFG |= USB_OTG_GUSBCFG_PHYSEL;
 106:Drivers/STM32F4xx_HAL_Driver/Src/stm32f4xx_ll_usb.c **** 
 107:Drivers/STM32F4xx_HAL_Driver/Src/stm32f4xx_ll_usb.c ****     /* Reset after a PHY select */
 108:Drivers/STM32F4xx_HAL_Driver/Src/stm32f4xx_ll_usb.c ****     ret = USB_CoreReset(USBx);
 109:Drivers/STM32F4xx_HAL_Driver/Src/stm32f4xx_ll_usb.c **** 
 110:Drivers/STM32F4xx_HAL_Driver/Src/stm32f4xx_ll_usb.c ****     if (cfg.battery_charging_enable == 0U)
 111:Drivers/STM32F4xx_HAL_Driver/Src/stm32f4xx_ll_usb.c ****     {
 112:Drivers/STM32F4xx_HAL_Driver/Src/stm32f4xx_ll_usb.c ****       /* Activate the USB Transceiver */
 113:Drivers/STM32F4xx_HAL_Driver/Src/stm32f4xx_ll_usb.c ****       USBx->GCCFG |= USB_OTG_GCCFG_PWRDWN;
 114:Drivers/STM32F4xx_HAL_Driver/Src/stm32f4xx_ll_usb.c ****     }
 115:Drivers/STM32F4xx_HAL_Driver/Src/stm32f4xx_ll_usb.c ****     else
 116:Drivers/STM32F4xx_HAL_Driver/Src/stm32f4xx_ll_usb.c ****     {
 117:Drivers/STM32F4xx_HAL_Driver/Src/stm32f4xx_ll_usb.c ****       /* Deactivate the USB Transceiver */
 118:Drivers/STM32F4xx_HAL_Driver/Src/stm32f4xx_ll_usb.c ****       USBx->GCCFG &= ~(USB_OTG_GCCFG_PWRDWN);
 119:Drivers/STM32F4xx_HAL_Driver/Src/stm32f4xx_ll_usb.c ****     }
 120:Drivers/STM32F4xx_HAL_Driver/Src/stm32f4xx_ll_usb.c ****   }
 121:Drivers/STM32F4xx_HAL_Driver/Src/stm32f4xx_ll_usb.c **** 
 122:Drivers/STM32F4xx_HAL_Driver/Src/stm32f4xx_ll_usb.c ****   if (cfg.dma_enable == 1U)
 123:Drivers/STM32F4xx_HAL_Driver/Src/stm32f4xx_ll_usb.c ****   {
 124:Drivers/STM32F4xx_HAL_Driver/Src/stm32f4xx_ll_usb.c ****     USBx->GAHBCFG |= USB_OTG_GAHBCFG_HBSTLEN_2;
 125:Drivers/STM32F4xx_HAL_Driver/Src/stm32f4xx_ll_usb.c ****     USBx->GAHBCFG |= USB_OTG_GAHBCFG_DMAEN;
 126:Drivers/STM32F4xx_HAL_Driver/Src/stm32f4xx_ll_usb.c ****   }
 127:Drivers/STM32F4xx_HAL_Driver/Src/stm32f4xx_ll_usb.c **** 
 128:Drivers/STM32F4xx_HAL_Driver/Src/stm32f4xx_ll_usb.c ****   return ret;
 129:Drivers/STM32F4xx_HAL_Driver/Src/stm32f4xx_ll_usb.c **** }
 130:Drivers/STM32F4xx_HAL_Driver/Src/stm32f4xx_ll_usb.c **** 
 131:Drivers/STM32F4xx_HAL_Driver/Src/stm32f4xx_ll_usb.c **** 
 132:Drivers/STM32F4xx_HAL_Driver/Src/stm32f4xx_ll_usb.c **** /**
 133:Drivers/STM32F4xx_HAL_Driver/Src/stm32f4xx_ll_usb.c ****   * @brief  Set the USB turnaround time
 134:Drivers/STM32F4xx_HAL_Driver/Src/stm32f4xx_ll_usb.c ****   * @param  USBx USB Instance
 135:Drivers/STM32F4xx_HAL_Driver/Src/stm32f4xx_ll_usb.c ****   * @param  hclk: AHB clock frequency
 136:Drivers/STM32F4xx_HAL_Driver/Src/stm32f4xx_ll_usb.c ****   * @retval USB turnaround time In PHY Clocks number
 137:Drivers/STM32F4xx_HAL_Driver/Src/stm32f4xx_ll_usb.c ****   */
 138:Drivers/STM32F4xx_HAL_Driver/Src/stm32f4xx_ll_usb.c **** HAL_StatusTypeDef USB_SetTurnaroundTime(USB_OTG_GlobalTypeDef *USBx,
 139:Drivers/STM32F4xx_HAL_Driver/Src/stm32f4xx_ll_usb.c ****                                         uint32_t hclk, uint8_t speed)
 140:Drivers/STM32F4xx_HAL_Driver/Src/stm32f4xx_ll_usb.c **** {
 141:Drivers/STM32F4xx_HAL_Driver/Src/stm32f4xx_ll_usb.c ****   uint32_t UsbTrd;
 142:Drivers/STM32F4xx_HAL_Driver/Src/stm32f4xx_ll_usb.c **** 
 143:Drivers/STM32F4xx_HAL_Driver/Src/stm32f4xx_ll_usb.c ****   /* The USBTRD is configured according to the tables below, depending on AHB frequency
 144:Drivers/STM32F4xx_HAL_Driver/Src/stm32f4xx_ll_usb.c ****   used by application. In the low AHB frequency range it is used to stretch enough the USB response
 145:Drivers/STM32F4xx_HAL_Driver/Src/stm32f4xx_ll_usb.c ****   time to IN tokens, the USB turnaround time, so to compensate for the longer AHB read access
 146:Drivers/STM32F4xx_HAL_Driver/Src/stm32f4xx_ll_usb.c ****   latency to the Data FIFO */
ARM GAS  C:\Users\User\AppData\Local\Temp\ccbub1mW.s 			page 4


 147:Drivers/STM32F4xx_HAL_Driver/Src/stm32f4xx_ll_usb.c ****   if (speed == USBD_FS_SPEED)
 148:Drivers/STM32F4xx_HAL_Driver/Src/stm32f4xx_ll_usb.c ****   {
 149:Drivers/STM32F4xx_HAL_Driver/Src/stm32f4xx_ll_usb.c ****     if ((hclk >= 14200000U) && (hclk < 15000000U))
 150:Drivers/STM32F4xx_HAL_Driver/Src/stm32f4xx_ll_usb.c ****     {
 151:Drivers/STM32F4xx_HAL_Driver/Src/stm32f4xx_ll_usb.c ****       /* hclk Clock Range between 14.2-15 MHz */
 152:Drivers/STM32F4xx_HAL_Driver/Src/stm32f4xx_ll_usb.c ****       UsbTrd = 0xFU;
 153:Drivers/STM32F4xx_HAL_Driver/Src/stm32f4xx_ll_usb.c ****     }
 154:Drivers/STM32F4xx_HAL_Driver/Src/stm32f4xx_ll_usb.c ****     else if ((hclk >= 15000000U) && (hclk < 16000000U))
 155:Drivers/STM32F4xx_HAL_Driver/Src/stm32f4xx_ll_usb.c ****     {
 156:Drivers/STM32F4xx_HAL_Driver/Src/stm32f4xx_ll_usb.c ****       /* hclk Clock Range between 15-16 MHz */
 157:Drivers/STM32F4xx_HAL_Driver/Src/stm32f4xx_ll_usb.c ****       UsbTrd = 0xEU;
 158:Drivers/STM32F4xx_HAL_Driver/Src/stm32f4xx_ll_usb.c ****     }
 159:Drivers/STM32F4xx_HAL_Driver/Src/stm32f4xx_ll_usb.c ****     else if ((hclk >= 16000000U) && (hclk < 17200000U))
 160:Drivers/STM32F4xx_HAL_Driver/Src/stm32f4xx_ll_usb.c ****     {
 161:Drivers/STM32F4xx_HAL_Driver/Src/stm32f4xx_ll_usb.c ****       /* hclk Clock Range between 16-17.2 MHz */
 162:Drivers/STM32F4xx_HAL_Driver/Src/stm32f4xx_ll_usb.c ****       UsbTrd = 0xDU;
 163:Drivers/STM32F4xx_HAL_Driver/Src/stm32f4xx_ll_usb.c ****     }
 164:Drivers/STM32F4xx_HAL_Driver/Src/stm32f4xx_ll_usb.c ****     else if ((hclk >= 17200000U) && (hclk < 18500000U))
 165:Drivers/STM32F4xx_HAL_Driver/Src/stm32f4xx_ll_usb.c ****     {
 166:Drivers/STM32F4xx_HAL_Driver/Src/stm32f4xx_ll_usb.c ****       /* hclk Clock Range between 17.2-18.5 MHz */
 167:Drivers/STM32F4xx_HAL_Driver/Src/stm32f4xx_ll_usb.c ****       UsbTrd = 0xCU;
 168:Drivers/STM32F4xx_HAL_Driver/Src/stm32f4xx_ll_usb.c ****     }
 169:Drivers/STM32F4xx_HAL_Driver/Src/stm32f4xx_ll_usb.c ****     else if ((hclk >= 18500000U) && (hclk < 20000000U))
 170:Drivers/STM32F4xx_HAL_Driver/Src/stm32f4xx_ll_usb.c ****     {
 171:Drivers/STM32F4xx_HAL_Driver/Src/stm32f4xx_ll_usb.c ****       /* hclk Clock Range between 18.5-20 MHz */
 172:Drivers/STM32F4xx_HAL_Driver/Src/stm32f4xx_ll_usb.c ****       UsbTrd = 0xBU;
 173:Drivers/STM32F4xx_HAL_Driver/Src/stm32f4xx_ll_usb.c ****     }
 174:Drivers/STM32F4xx_HAL_Driver/Src/stm32f4xx_ll_usb.c ****     else if ((hclk >= 20000000U) && (hclk < 21800000U))
 175:Drivers/STM32F4xx_HAL_Driver/Src/stm32f4xx_ll_usb.c ****     {
 176:Drivers/STM32F4xx_HAL_Driver/Src/stm32f4xx_ll_usb.c ****       /* hclk Clock Range between 20-21.8 MHz */
 177:Drivers/STM32F4xx_HAL_Driver/Src/stm32f4xx_ll_usb.c ****       UsbTrd = 0xAU;
 178:Drivers/STM32F4xx_HAL_Driver/Src/stm32f4xx_ll_usb.c ****     }
 179:Drivers/STM32F4xx_HAL_Driver/Src/stm32f4xx_ll_usb.c ****     else if ((hclk >= 21800000U) && (hclk < 24000000U))
 180:Drivers/STM32F4xx_HAL_Driver/Src/stm32f4xx_ll_usb.c ****     {
 181:Drivers/STM32F4xx_HAL_Driver/Src/stm32f4xx_ll_usb.c ****       /* hclk Clock Range between 21.8-24 MHz */
 182:Drivers/STM32F4xx_HAL_Driver/Src/stm32f4xx_ll_usb.c ****       UsbTrd = 0x9U;
 183:Drivers/STM32F4xx_HAL_Driver/Src/stm32f4xx_ll_usb.c ****     }
 184:Drivers/STM32F4xx_HAL_Driver/Src/stm32f4xx_ll_usb.c ****     else if ((hclk >= 24000000U) && (hclk < 27700000U))
 185:Drivers/STM32F4xx_HAL_Driver/Src/stm32f4xx_ll_usb.c ****     {
 186:Drivers/STM32F4xx_HAL_Driver/Src/stm32f4xx_ll_usb.c ****       /* hclk Clock Range between 24-27.7 MHz */
 187:Drivers/STM32F4xx_HAL_Driver/Src/stm32f4xx_ll_usb.c ****       UsbTrd = 0x8U;
 188:Drivers/STM32F4xx_HAL_Driver/Src/stm32f4xx_ll_usb.c ****     }
 189:Drivers/STM32F4xx_HAL_Driver/Src/stm32f4xx_ll_usb.c ****     else if ((hclk >= 27700000U) && (hclk < 32000000U))
 190:Drivers/STM32F4xx_HAL_Driver/Src/stm32f4xx_ll_usb.c ****     {
 191:Drivers/STM32F4xx_HAL_Driver/Src/stm32f4xx_ll_usb.c ****       /* hclk Clock Range between 27.7-32 MHz */
 192:Drivers/STM32F4xx_HAL_Driver/Src/stm32f4xx_ll_usb.c ****       UsbTrd = 0x7U;
 193:Drivers/STM32F4xx_HAL_Driver/Src/stm32f4xx_ll_usb.c ****     }
 194:Drivers/STM32F4xx_HAL_Driver/Src/stm32f4xx_ll_usb.c ****     else /* if(hclk >= 32000000) */
 195:Drivers/STM32F4xx_HAL_Driver/Src/stm32f4xx_ll_usb.c ****     {
 196:Drivers/STM32F4xx_HAL_Driver/Src/stm32f4xx_ll_usb.c ****       /* hclk Clock Range between 32-200 MHz */
 197:Drivers/STM32F4xx_HAL_Driver/Src/stm32f4xx_ll_usb.c ****       UsbTrd = 0x6U;
 198:Drivers/STM32F4xx_HAL_Driver/Src/stm32f4xx_ll_usb.c ****     }
 199:Drivers/STM32F4xx_HAL_Driver/Src/stm32f4xx_ll_usb.c ****   }
 200:Drivers/STM32F4xx_HAL_Driver/Src/stm32f4xx_ll_usb.c ****   else if (speed == USBD_HS_SPEED)
 201:Drivers/STM32F4xx_HAL_Driver/Src/stm32f4xx_ll_usb.c ****   {
 202:Drivers/STM32F4xx_HAL_Driver/Src/stm32f4xx_ll_usb.c ****     UsbTrd = USBD_HS_TRDT_VALUE;
 203:Drivers/STM32F4xx_HAL_Driver/Src/stm32f4xx_ll_usb.c ****   }
ARM GAS  C:\Users\User\AppData\Local\Temp\ccbub1mW.s 			page 5


 204:Drivers/STM32F4xx_HAL_Driver/Src/stm32f4xx_ll_usb.c ****   else
 205:Drivers/STM32F4xx_HAL_Driver/Src/stm32f4xx_ll_usb.c ****   {
 206:Drivers/STM32F4xx_HAL_Driver/Src/stm32f4xx_ll_usb.c ****     UsbTrd = USBD_DEFAULT_TRDT_VALUE;
 207:Drivers/STM32F4xx_HAL_Driver/Src/stm32f4xx_ll_usb.c ****   }
 208:Drivers/STM32F4xx_HAL_Driver/Src/stm32f4xx_ll_usb.c **** 
 209:Drivers/STM32F4xx_HAL_Driver/Src/stm32f4xx_ll_usb.c ****   USBx->GUSBCFG &= ~USB_OTG_GUSBCFG_TRDT;
 210:Drivers/STM32F4xx_HAL_Driver/Src/stm32f4xx_ll_usb.c ****   USBx->GUSBCFG |= (uint32_t)((UsbTrd << 10) & USB_OTG_GUSBCFG_TRDT);
 211:Drivers/STM32F4xx_HAL_Driver/Src/stm32f4xx_ll_usb.c **** 
 212:Drivers/STM32F4xx_HAL_Driver/Src/stm32f4xx_ll_usb.c ****   return HAL_OK;
 213:Drivers/STM32F4xx_HAL_Driver/Src/stm32f4xx_ll_usb.c **** }
 214:Drivers/STM32F4xx_HAL_Driver/Src/stm32f4xx_ll_usb.c **** 
 215:Drivers/STM32F4xx_HAL_Driver/Src/stm32f4xx_ll_usb.c **** /**
 216:Drivers/STM32F4xx_HAL_Driver/Src/stm32f4xx_ll_usb.c ****   * @brief  USB_EnableGlobalInt
 217:Drivers/STM32F4xx_HAL_Driver/Src/stm32f4xx_ll_usb.c ****   *         Enables the controller's Global Int in the AHB Config reg
 218:Drivers/STM32F4xx_HAL_Driver/Src/stm32f4xx_ll_usb.c ****   * @param  USBx  Selected device
 219:Drivers/STM32F4xx_HAL_Driver/Src/stm32f4xx_ll_usb.c ****   * @retval HAL status
 220:Drivers/STM32F4xx_HAL_Driver/Src/stm32f4xx_ll_usb.c ****   */
 221:Drivers/STM32F4xx_HAL_Driver/Src/stm32f4xx_ll_usb.c **** HAL_StatusTypeDef USB_EnableGlobalInt(USB_OTG_GlobalTypeDef *USBx)
 222:Drivers/STM32F4xx_HAL_Driver/Src/stm32f4xx_ll_usb.c **** {
 223:Drivers/STM32F4xx_HAL_Driver/Src/stm32f4xx_ll_usb.c ****   USBx->GAHBCFG |= USB_OTG_GAHBCFG_GINT;
 224:Drivers/STM32F4xx_HAL_Driver/Src/stm32f4xx_ll_usb.c ****   return HAL_OK;
 225:Drivers/STM32F4xx_HAL_Driver/Src/stm32f4xx_ll_usb.c **** }
 226:Drivers/STM32F4xx_HAL_Driver/Src/stm32f4xx_ll_usb.c **** 
 227:Drivers/STM32F4xx_HAL_Driver/Src/stm32f4xx_ll_usb.c **** /**
 228:Drivers/STM32F4xx_HAL_Driver/Src/stm32f4xx_ll_usb.c ****   * @brief  USB_DisableGlobalInt
 229:Drivers/STM32F4xx_HAL_Driver/Src/stm32f4xx_ll_usb.c ****   *         Disable the controller's Global Int in the AHB Config reg
 230:Drivers/STM32F4xx_HAL_Driver/Src/stm32f4xx_ll_usb.c ****   * @param  USBx  Selected device
 231:Drivers/STM32F4xx_HAL_Driver/Src/stm32f4xx_ll_usb.c ****   * @retval HAL status
 232:Drivers/STM32F4xx_HAL_Driver/Src/stm32f4xx_ll_usb.c ****   */
 233:Drivers/STM32F4xx_HAL_Driver/Src/stm32f4xx_ll_usb.c **** HAL_StatusTypeDef USB_DisableGlobalInt(USB_OTG_GlobalTypeDef *USBx)
 234:Drivers/STM32F4xx_HAL_Driver/Src/stm32f4xx_ll_usb.c **** {
 235:Drivers/STM32F4xx_HAL_Driver/Src/stm32f4xx_ll_usb.c ****   USBx->GAHBCFG &= ~USB_OTG_GAHBCFG_GINT;
 236:Drivers/STM32F4xx_HAL_Driver/Src/stm32f4xx_ll_usb.c ****   return HAL_OK;
 237:Drivers/STM32F4xx_HAL_Driver/Src/stm32f4xx_ll_usb.c **** }
 238:Drivers/STM32F4xx_HAL_Driver/Src/stm32f4xx_ll_usb.c **** 
 239:Drivers/STM32F4xx_HAL_Driver/Src/stm32f4xx_ll_usb.c **** /**
 240:Drivers/STM32F4xx_HAL_Driver/Src/stm32f4xx_ll_usb.c ****   * @brief  USB_SetCurrentMode Set functional mode
 241:Drivers/STM32F4xx_HAL_Driver/Src/stm32f4xx_ll_usb.c ****   * @param  USBx  Selected device
 242:Drivers/STM32F4xx_HAL_Driver/Src/stm32f4xx_ll_usb.c ****   * @param  mode  current core mode
 243:Drivers/STM32F4xx_HAL_Driver/Src/stm32f4xx_ll_usb.c ****   *          This parameter can be one of these values:
 244:Drivers/STM32F4xx_HAL_Driver/Src/stm32f4xx_ll_usb.c ****   *            @arg USB_DEVICE_MODE Peripheral mode
 245:Drivers/STM32F4xx_HAL_Driver/Src/stm32f4xx_ll_usb.c ****   *            @arg USB_HOST_MODE Host mode
 246:Drivers/STM32F4xx_HAL_Driver/Src/stm32f4xx_ll_usb.c ****   * @retval HAL status
 247:Drivers/STM32F4xx_HAL_Driver/Src/stm32f4xx_ll_usb.c ****   */
 248:Drivers/STM32F4xx_HAL_Driver/Src/stm32f4xx_ll_usb.c **** HAL_StatusTypeDef USB_SetCurrentMode(USB_OTG_GlobalTypeDef *USBx, USB_OTG_ModeTypeDef mode)
 249:Drivers/STM32F4xx_HAL_Driver/Src/stm32f4xx_ll_usb.c **** {
 250:Drivers/STM32F4xx_HAL_Driver/Src/stm32f4xx_ll_usb.c ****   USBx->GUSBCFG &= ~(USB_OTG_GUSBCFG_FHMOD | USB_OTG_GUSBCFG_FDMOD);
 251:Drivers/STM32F4xx_HAL_Driver/Src/stm32f4xx_ll_usb.c **** 
 252:Drivers/STM32F4xx_HAL_Driver/Src/stm32f4xx_ll_usb.c ****   if (mode == USB_HOST_MODE)
 253:Drivers/STM32F4xx_HAL_Driver/Src/stm32f4xx_ll_usb.c ****   {
 254:Drivers/STM32F4xx_HAL_Driver/Src/stm32f4xx_ll_usb.c ****     USBx->GUSBCFG |= USB_OTG_GUSBCFG_FHMOD;
 255:Drivers/STM32F4xx_HAL_Driver/Src/stm32f4xx_ll_usb.c ****   }
 256:Drivers/STM32F4xx_HAL_Driver/Src/stm32f4xx_ll_usb.c ****   else if (mode == USB_DEVICE_MODE)
 257:Drivers/STM32F4xx_HAL_Driver/Src/stm32f4xx_ll_usb.c ****   {
 258:Drivers/STM32F4xx_HAL_Driver/Src/stm32f4xx_ll_usb.c ****     USBx->GUSBCFG |= USB_OTG_GUSBCFG_FDMOD;
 259:Drivers/STM32F4xx_HAL_Driver/Src/stm32f4xx_ll_usb.c ****   }
 260:Drivers/STM32F4xx_HAL_Driver/Src/stm32f4xx_ll_usb.c ****   else
ARM GAS  C:\Users\User\AppData\Local\Temp\ccbub1mW.s 			page 6


 261:Drivers/STM32F4xx_HAL_Driver/Src/stm32f4xx_ll_usb.c ****   {
 262:Drivers/STM32F4xx_HAL_Driver/Src/stm32f4xx_ll_usb.c ****     return HAL_ERROR;
 263:Drivers/STM32F4xx_HAL_Driver/Src/stm32f4xx_ll_usb.c ****   }
 264:Drivers/STM32F4xx_HAL_Driver/Src/stm32f4xx_ll_usb.c ****   HAL_Delay(50U);
 265:Drivers/STM32F4xx_HAL_Driver/Src/stm32f4xx_ll_usb.c **** 
 266:Drivers/STM32F4xx_HAL_Driver/Src/stm32f4xx_ll_usb.c ****   return HAL_OK;
 267:Drivers/STM32F4xx_HAL_Driver/Src/stm32f4xx_ll_usb.c **** }
 268:Drivers/STM32F4xx_HAL_Driver/Src/stm32f4xx_ll_usb.c **** 
 269:Drivers/STM32F4xx_HAL_Driver/Src/stm32f4xx_ll_usb.c **** /**
 270:Drivers/STM32F4xx_HAL_Driver/Src/stm32f4xx_ll_usb.c ****   * @brief  USB_DevInit Initializes the USB_OTG controller registers
 271:Drivers/STM32F4xx_HAL_Driver/Src/stm32f4xx_ll_usb.c ****   *         for device mode
 272:Drivers/STM32F4xx_HAL_Driver/Src/stm32f4xx_ll_usb.c ****   * @param  USBx  Selected device
 273:Drivers/STM32F4xx_HAL_Driver/Src/stm32f4xx_ll_usb.c ****   * @param  cfg   pointer to a USB_OTG_CfgTypeDef structure that contains
 274:Drivers/STM32F4xx_HAL_Driver/Src/stm32f4xx_ll_usb.c ****   *         the configuration information for the specified USBx peripheral.
 275:Drivers/STM32F4xx_HAL_Driver/Src/stm32f4xx_ll_usb.c ****   * @retval HAL status
 276:Drivers/STM32F4xx_HAL_Driver/Src/stm32f4xx_ll_usb.c ****   */
 277:Drivers/STM32F4xx_HAL_Driver/Src/stm32f4xx_ll_usb.c **** HAL_StatusTypeDef USB_DevInit(USB_OTG_GlobalTypeDef *USBx, USB_OTG_CfgTypeDef cfg)
 278:Drivers/STM32F4xx_HAL_Driver/Src/stm32f4xx_ll_usb.c **** {
 279:Drivers/STM32F4xx_HAL_Driver/Src/stm32f4xx_ll_usb.c ****   HAL_StatusTypeDef ret = HAL_OK;
 280:Drivers/STM32F4xx_HAL_Driver/Src/stm32f4xx_ll_usb.c ****   uint32_t USBx_BASE = (uint32_t)USBx;
 281:Drivers/STM32F4xx_HAL_Driver/Src/stm32f4xx_ll_usb.c ****   uint32_t i;
 282:Drivers/STM32F4xx_HAL_Driver/Src/stm32f4xx_ll_usb.c **** 
 283:Drivers/STM32F4xx_HAL_Driver/Src/stm32f4xx_ll_usb.c ****   for (i = 0U; i < 15U; i++)
 284:Drivers/STM32F4xx_HAL_Driver/Src/stm32f4xx_ll_usb.c ****   {
 285:Drivers/STM32F4xx_HAL_Driver/Src/stm32f4xx_ll_usb.c ****     USBx->DIEPTXF[i] = 0U;
 286:Drivers/STM32F4xx_HAL_Driver/Src/stm32f4xx_ll_usb.c ****   }
 287:Drivers/STM32F4xx_HAL_Driver/Src/stm32f4xx_ll_usb.c **** 
 288:Drivers/STM32F4xx_HAL_Driver/Src/stm32f4xx_ll_usb.c **** #if defined(STM32F446xx) || defined(STM32F469xx) || defined(STM32F479xx) || defined(STM32F412Zx) ||
 289:Drivers/STM32F4xx_HAL_Driver/Src/stm32f4xx_ll_usb.c ****   /* VBUS Sensing setup */
 290:Drivers/STM32F4xx_HAL_Driver/Src/stm32f4xx_ll_usb.c ****   if (cfg.vbus_sensing_enable == 0U)
 291:Drivers/STM32F4xx_HAL_Driver/Src/stm32f4xx_ll_usb.c ****   {
 292:Drivers/STM32F4xx_HAL_Driver/Src/stm32f4xx_ll_usb.c ****     USBx_DEVICE->DCTL |= USB_OTG_DCTL_SDIS;
 293:Drivers/STM32F4xx_HAL_Driver/Src/stm32f4xx_ll_usb.c **** 
 294:Drivers/STM32F4xx_HAL_Driver/Src/stm32f4xx_ll_usb.c ****     /* Deactivate VBUS Sensing B */
 295:Drivers/STM32F4xx_HAL_Driver/Src/stm32f4xx_ll_usb.c ****     USBx->GCCFG &= ~USB_OTG_GCCFG_VBDEN;
 296:Drivers/STM32F4xx_HAL_Driver/Src/stm32f4xx_ll_usb.c **** 
 297:Drivers/STM32F4xx_HAL_Driver/Src/stm32f4xx_ll_usb.c ****     /* B-peripheral session valid override enable */
 298:Drivers/STM32F4xx_HAL_Driver/Src/stm32f4xx_ll_usb.c ****     USBx->GOTGCTL |= USB_OTG_GOTGCTL_BVALOEN;
 299:Drivers/STM32F4xx_HAL_Driver/Src/stm32f4xx_ll_usb.c ****     USBx->GOTGCTL |= USB_OTG_GOTGCTL_BVALOVAL;
 300:Drivers/STM32F4xx_HAL_Driver/Src/stm32f4xx_ll_usb.c ****   }
 301:Drivers/STM32F4xx_HAL_Driver/Src/stm32f4xx_ll_usb.c ****   else
 302:Drivers/STM32F4xx_HAL_Driver/Src/stm32f4xx_ll_usb.c ****   {
 303:Drivers/STM32F4xx_HAL_Driver/Src/stm32f4xx_ll_usb.c ****     /* Enable HW VBUS sensing */
 304:Drivers/STM32F4xx_HAL_Driver/Src/stm32f4xx_ll_usb.c ****     USBx->GCCFG |= USB_OTG_GCCFG_VBDEN;
 305:Drivers/STM32F4xx_HAL_Driver/Src/stm32f4xx_ll_usb.c ****   }
 306:Drivers/STM32F4xx_HAL_Driver/Src/stm32f4xx_ll_usb.c **** #else
 307:Drivers/STM32F4xx_HAL_Driver/Src/stm32f4xx_ll_usb.c ****   /* VBUS Sensing setup */
 308:Drivers/STM32F4xx_HAL_Driver/Src/stm32f4xx_ll_usb.c ****   if (cfg.vbus_sensing_enable == 0U)
 309:Drivers/STM32F4xx_HAL_Driver/Src/stm32f4xx_ll_usb.c ****   {
 310:Drivers/STM32F4xx_HAL_Driver/Src/stm32f4xx_ll_usb.c ****     /*
 311:Drivers/STM32F4xx_HAL_Driver/Src/stm32f4xx_ll_usb.c ****      * Disable HW VBUS sensing. VBUS is internally considered to be always
 312:Drivers/STM32F4xx_HAL_Driver/Src/stm32f4xx_ll_usb.c ****      * at VBUS-Valid level (5V).
 313:Drivers/STM32F4xx_HAL_Driver/Src/stm32f4xx_ll_usb.c ****      */
 314:Drivers/STM32F4xx_HAL_Driver/Src/stm32f4xx_ll_usb.c ****     USBx_DEVICE->DCTL |= USB_OTG_DCTL_SDIS;
 315:Drivers/STM32F4xx_HAL_Driver/Src/stm32f4xx_ll_usb.c ****     USBx->GCCFG |= USB_OTG_GCCFG_NOVBUSSENS;
 316:Drivers/STM32F4xx_HAL_Driver/Src/stm32f4xx_ll_usb.c ****     USBx->GCCFG &= ~USB_OTG_GCCFG_VBUSBSEN;
 317:Drivers/STM32F4xx_HAL_Driver/Src/stm32f4xx_ll_usb.c ****     USBx->GCCFG &= ~USB_OTG_GCCFG_VBUSASEN;
ARM GAS  C:\Users\User\AppData\Local\Temp\ccbub1mW.s 			page 7


 318:Drivers/STM32F4xx_HAL_Driver/Src/stm32f4xx_ll_usb.c ****   }
 319:Drivers/STM32F4xx_HAL_Driver/Src/stm32f4xx_ll_usb.c ****   else
 320:Drivers/STM32F4xx_HAL_Driver/Src/stm32f4xx_ll_usb.c ****   {
 321:Drivers/STM32F4xx_HAL_Driver/Src/stm32f4xx_ll_usb.c ****     /* Enable HW VBUS sensing */
 322:Drivers/STM32F4xx_HAL_Driver/Src/stm32f4xx_ll_usb.c ****     USBx->GCCFG &= ~USB_OTG_GCCFG_NOVBUSSENS;
 323:Drivers/STM32F4xx_HAL_Driver/Src/stm32f4xx_ll_usb.c ****     USBx->GCCFG |= USB_OTG_GCCFG_VBUSBSEN;
 324:Drivers/STM32F4xx_HAL_Driver/Src/stm32f4xx_ll_usb.c ****   }
 325:Drivers/STM32F4xx_HAL_Driver/Src/stm32f4xx_ll_usb.c **** #endif /* defined(STM32F446xx) || defined(STM32F469xx) || defined(STM32F479xx) || defined(STM32F412
 326:Drivers/STM32F4xx_HAL_Driver/Src/stm32f4xx_ll_usb.c **** 
 327:Drivers/STM32F4xx_HAL_Driver/Src/stm32f4xx_ll_usb.c ****   /* Restart the Phy Clock */
 328:Drivers/STM32F4xx_HAL_Driver/Src/stm32f4xx_ll_usb.c ****   USBx_PCGCCTL = 0U;
 329:Drivers/STM32F4xx_HAL_Driver/Src/stm32f4xx_ll_usb.c **** 
 330:Drivers/STM32F4xx_HAL_Driver/Src/stm32f4xx_ll_usb.c ****   /* Device mode configuration */
 331:Drivers/STM32F4xx_HAL_Driver/Src/stm32f4xx_ll_usb.c ****   USBx_DEVICE->DCFG |= DCFG_FRAME_INTERVAL_80;
 332:Drivers/STM32F4xx_HAL_Driver/Src/stm32f4xx_ll_usb.c **** 
 333:Drivers/STM32F4xx_HAL_Driver/Src/stm32f4xx_ll_usb.c ****   if (cfg.phy_itface == USB_OTG_ULPI_PHY)
 334:Drivers/STM32F4xx_HAL_Driver/Src/stm32f4xx_ll_usb.c ****   {
 335:Drivers/STM32F4xx_HAL_Driver/Src/stm32f4xx_ll_usb.c ****     if (cfg.speed == USBD_HS_SPEED)
 336:Drivers/STM32F4xx_HAL_Driver/Src/stm32f4xx_ll_usb.c ****     {
 337:Drivers/STM32F4xx_HAL_Driver/Src/stm32f4xx_ll_usb.c ****       /* Set Core speed to High speed mode */
 338:Drivers/STM32F4xx_HAL_Driver/Src/stm32f4xx_ll_usb.c ****       (void)USB_SetDevSpeed(USBx, USB_OTG_SPEED_HIGH);
 339:Drivers/STM32F4xx_HAL_Driver/Src/stm32f4xx_ll_usb.c ****     }
 340:Drivers/STM32F4xx_HAL_Driver/Src/stm32f4xx_ll_usb.c ****     else
 341:Drivers/STM32F4xx_HAL_Driver/Src/stm32f4xx_ll_usb.c ****     {
 342:Drivers/STM32F4xx_HAL_Driver/Src/stm32f4xx_ll_usb.c ****       /* Set Core speed to Full speed mode */
 343:Drivers/STM32F4xx_HAL_Driver/Src/stm32f4xx_ll_usb.c ****       (void)USB_SetDevSpeed(USBx, USB_OTG_SPEED_HIGH_IN_FULL);
 344:Drivers/STM32F4xx_HAL_Driver/Src/stm32f4xx_ll_usb.c ****     }
 345:Drivers/STM32F4xx_HAL_Driver/Src/stm32f4xx_ll_usb.c ****   }
 346:Drivers/STM32F4xx_HAL_Driver/Src/stm32f4xx_ll_usb.c ****   else
 347:Drivers/STM32F4xx_HAL_Driver/Src/stm32f4xx_ll_usb.c ****   {
 348:Drivers/STM32F4xx_HAL_Driver/Src/stm32f4xx_ll_usb.c ****     /* Set Core speed to Full speed mode */
 349:Drivers/STM32F4xx_HAL_Driver/Src/stm32f4xx_ll_usb.c ****     (void)USB_SetDevSpeed(USBx, USB_OTG_SPEED_FULL);
 350:Drivers/STM32F4xx_HAL_Driver/Src/stm32f4xx_ll_usb.c ****   }
 351:Drivers/STM32F4xx_HAL_Driver/Src/stm32f4xx_ll_usb.c **** 
 352:Drivers/STM32F4xx_HAL_Driver/Src/stm32f4xx_ll_usb.c ****   /* Flush the FIFOs */
 353:Drivers/STM32F4xx_HAL_Driver/Src/stm32f4xx_ll_usb.c ****   if (USB_FlushTxFifo(USBx, 0x10U) != HAL_OK) /* all Tx FIFOs */
 354:Drivers/STM32F4xx_HAL_Driver/Src/stm32f4xx_ll_usb.c ****   {
 355:Drivers/STM32F4xx_HAL_Driver/Src/stm32f4xx_ll_usb.c ****     ret = HAL_ERROR;
 356:Drivers/STM32F4xx_HAL_Driver/Src/stm32f4xx_ll_usb.c ****   }
 357:Drivers/STM32F4xx_HAL_Driver/Src/stm32f4xx_ll_usb.c **** 
 358:Drivers/STM32F4xx_HAL_Driver/Src/stm32f4xx_ll_usb.c ****   if (USB_FlushRxFifo(USBx) != HAL_OK)
 359:Drivers/STM32F4xx_HAL_Driver/Src/stm32f4xx_ll_usb.c ****   {
 360:Drivers/STM32F4xx_HAL_Driver/Src/stm32f4xx_ll_usb.c ****     ret = HAL_ERROR;
 361:Drivers/STM32F4xx_HAL_Driver/Src/stm32f4xx_ll_usb.c ****   }
 362:Drivers/STM32F4xx_HAL_Driver/Src/stm32f4xx_ll_usb.c **** 
 363:Drivers/STM32F4xx_HAL_Driver/Src/stm32f4xx_ll_usb.c ****   /* Clear all pending Device Interrupts */
 364:Drivers/STM32F4xx_HAL_Driver/Src/stm32f4xx_ll_usb.c ****   USBx_DEVICE->DIEPMSK = 0U;
 365:Drivers/STM32F4xx_HAL_Driver/Src/stm32f4xx_ll_usb.c ****   USBx_DEVICE->DOEPMSK = 0U;
 366:Drivers/STM32F4xx_HAL_Driver/Src/stm32f4xx_ll_usb.c ****   USBx_DEVICE->DAINTMSK = 0U;
 367:Drivers/STM32F4xx_HAL_Driver/Src/stm32f4xx_ll_usb.c **** 
 368:Drivers/STM32F4xx_HAL_Driver/Src/stm32f4xx_ll_usb.c ****   for (i = 0U; i < cfg.dev_endpoints; i++)
 369:Drivers/STM32F4xx_HAL_Driver/Src/stm32f4xx_ll_usb.c ****   {
 370:Drivers/STM32F4xx_HAL_Driver/Src/stm32f4xx_ll_usb.c ****     if ((USBx_INEP(i)->DIEPCTL & USB_OTG_DIEPCTL_EPENA) == USB_OTG_DIEPCTL_EPENA)
 371:Drivers/STM32F4xx_HAL_Driver/Src/stm32f4xx_ll_usb.c ****     {
 372:Drivers/STM32F4xx_HAL_Driver/Src/stm32f4xx_ll_usb.c ****       if (i == 0U)
 373:Drivers/STM32F4xx_HAL_Driver/Src/stm32f4xx_ll_usb.c ****       {
 374:Drivers/STM32F4xx_HAL_Driver/Src/stm32f4xx_ll_usb.c ****         USBx_INEP(i)->DIEPCTL = USB_OTG_DIEPCTL_SNAK;
ARM GAS  C:\Users\User\AppData\Local\Temp\ccbub1mW.s 			page 8


 375:Drivers/STM32F4xx_HAL_Driver/Src/stm32f4xx_ll_usb.c ****       }
 376:Drivers/STM32F4xx_HAL_Driver/Src/stm32f4xx_ll_usb.c ****       else
 377:Drivers/STM32F4xx_HAL_Driver/Src/stm32f4xx_ll_usb.c ****       {
 378:Drivers/STM32F4xx_HAL_Driver/Src/stm32f4xx_ll_usb.c ****         USBx_INEP(i)->DIEPCTL = USB_OTG_DIEPCTL_EPDIS | USB_OTG_DIEPCTL_SNAK;
 379:Drivers/STM32F4xx_HAL_Driver/Src/stm32f4xx_ll_usb.c ****       }
 380:Drivers/STM32F4xx_HAL_Driver/Src/stm32f4xx_ll_usb.c ****     }
 381:Drivers/STM32F4xx_HAL_Driver/Src/stm32f4xx_ll_usb.c ****     else
 382:Drivers/STM32F4xx_HAL_Driver/Src/stm32f4xx_ll_usb.c ****     {
 383:Drivers/STM32F4xx_HAL_Driver/Src/stm32f4xx_ll_usb.c ****       USBx_INEP(i)->DIEPCTL = 0U;
 384:Drivers/STM32F4xx_HAL_Driver/Src/stm32f4xx_ll_usb.c ****     }
 385:Drivers/STM32F4xx_HAL_Driver/Src/stm32f4xx_ll_usb.c **** 
 386:Drivers/STM32F4xx_HAL_Driver/Src/stm32f4xx_ll_usb.c ****     USBx_INEP(i)->DIEPTSIZ = 0U;
 387:Drivers/STM32F4xx_HAL_Driver/Src/stm32f4xx_ll_usb.c ****     USBx_INEP(i)->DIEPINT  = 0xFB7FU;
 388:Drivers/STM32F4xx_HAL_Driver/Src/stm32f4xx_ll_usb.c ****   }
 389:Drivers/STM32F4xx_HAL_Driver/Src/stm32f4xx_ll_usb.c **** 
 390:Drivers/STM32F4xx_HAL_Driver/Src/stm32f4xx_ll_usb.c ****   for (i = 0U; i < cfg.dev_endpoints; i++)
 391:Drivers/STM32F4xx_HAL_Driver/Src/stm32f4xx_ll_usb.c ****   {
 392:Drivers/STM32F4xx_HAL_Driver/Src/stm32f4xx_ll_usb.c ****     if ((USBx_OUTEP(i)->DOEPCTL & USB_OTG_DOEPCTL_EPENA) == USB_OTG_DOEPCTL_EPENA)
 393:Drivers/STM32F4xx_HAL_Driver/Src/stm32f4xx_ll_usb.c ****     {
 394:Drivers/STM32F4xx_HAL_Driver/Src/stm32f4xx_ll_usb.c ****       if (i == 0U)
 395:Drivers/STM32F4xx_HAL_Driver/Src/stm32f4xx_ll_usb.c ****       {
 396:Drivers/STM32F4xx_HAL_Driver/Src/stm32f4xx_ll_usb.c ****         USBx_OUTEP(i)->DOEPCTL = USB_OTG_DOEPCTL_SNAK;
 397:Drivers/STM32F4xx_HAL_Driver/Src/stm32f4xx_ll_usb.c ****       }
 398:Drivers/STM32F4xx_HAL_Driver/Src/stm32f4xx_ll_usb.c ****       else
 399:Drivers/STM32F4xx_HAL_Driver/Src/stm32f4xx_ll_usb.c ****       {
 400:Drivers/STM32F4xx_HAL_Driver/Src/stm32f4xx_ll_usb.c ****         USBx_OUTEP(i)->DOEPCTL = USB_OTG_DOEPCTL_EPDIS | USB_OTG_DOEPCTL_SNAK;
 401:Drivers/STM32F4xx_HAL_Driver/Src/stm32f4xx_ll_usb.c ****       }
 402:Drivers/STM32F4xx_HAL_Driver/Src/stm32f4xx_ll_usb.c ****     }
 403:Drivers/STM32F4xx_HAL_Driver/Src/stm32f4xx_ll_usb.c ****     else
 404:Drivers/STM32F4xx_HAL_Driver/Src/stm32f4xx_ll_usb.c ****     {
 405:Drivers/STM32F4xx_HAL_Driver/Src/stm32f4xx_ll_usb.c ****       USBx_OUTEP(i)->DOEPCTL = 0U;
 406:Drivers/STM32F4xx_HAL_Driver/Src/stm32f4xx_ll_usb.c ****     }
 407:Drivers/STM32F4xx_HAL_Driver/Src/stm32f4xx_ll_usb.c **** 
 408:Drivers/STM32F4xx_HAL_Driver/Src/stm32f4xx_ll_usb.c ****     USBx_OUTEP(i)->DOEPTSIZ = 0U;
 409:Drivers/STM32F4xx_HAL_Driver/Src/stm32f4xx_ll_usb.c ****     USBx_OUTEP(i)->DOEPINT  = 0xFB7FU;
 410:Drivers/STM32F4xx_HAL_Driver/Src/stm32f4xx_ll_usb.c ****   }
 411:Drivers/STM32F4xx_HAL_Driver/Src/stm32f4xx_ll_usb.c **** 
 412:Drivers/STM32F4xx_HAL_Driver/Src/stm32f4xx_ll_usb.c ****   USBx_DEVICE->DIEPMSK &= ~(USB_OTG_DIEPMSK_TXFURM);
 413:Drivers/STM32F4xx_HAL_Driver/Src/stm32f4xx_ll_usb.c **** 
 414:Drivers/STM32F4xx_HAL_Driver/Src/stm32f4xx_ll_usb.c ****   /* Disable all interrupts. */
 415:Drivers/STM32F4xx_HAL_Driver/Src/stm32f4xx_ll_usb.c ****   USBx->GINTMSK = 0U;
 416:Drivers/STM32F4xx_HAL_Driver/Src/stm32f4xx_ll_usb.c **** 
 417:Drivers/STM32F4xx_HAL_Driver/Src/stm32f4xx_ll_usb.c ****   /* Clear any pending interrupts */
 418:Drivers/STM32F4xx_HAL_Driver/Src/stm32f4xx_ll_usb.c ****   USBx->GINTSTS = 0xBFFFFFFFU;
 419:Drivers/STM32F4xx_HAL_Driver/Src/stm32f4xx_ll_usb.c **** 
 420:Drivers/STM32F4xx_HAL_Driver/Src/stm32f4xx_ll_usb.c ****   /* Enable the common interrupts */
 421:Drivers/STM32F4xx_HAL_Driver/Src/stm32f4xx_ll_usb.c ****   if (cfg.dma_enable == 0U)
 422:Drivers/STM32F4xx_HAL_Driver/Src/stm32f4xx_ll_usb.c ****   {
 423:Drivers/STM32F4xx_HAL_Driver/Src/stm32f4xx_ll_usb.c ****     USBx->GINTMSK |= USB_OTG_GINTMSK_RXFLVLM;
 424:Drivers/STM32F4xx_HAL_Driver/Src/stm32f4xx_ll_usb.c ****   }
 425:Drivers/STM32F4xx_HAL_Driver/Src/stm32f4xx_ll_usb.c **** 
 426:Drivers/STM32F4xx_HAL_Driver/Src/stm32f4xx_ll_usb.c ****   /* Enable interrupts matching to the Device mode ONLY */
 427:Drivers/STM32F4xx_HAL_Driver/Src/stm32f4xx_ll_usb.c ****   USBx->GINTMSK |= USB_OTG_GINTMSK_USBSUSPM | USB_OTG_GINTMSK_USBRST |
 428:Drivers/STM32F4xx_HAL_Driver/Src/stm32f4xx_ll_usb.c ****                    USB_OTG_GINTMSK_ENUMDNEM | USB_OTG_GINTMSK_IEPINT |
 429:Drivers/STM32F4xx_HAL_Driver/Src/stm32f4xx_ll_usb.c ****                    USB_OTG_GINTMSK_OEPINT   | USB_OTG_GINTMSK_IISOIXFRM |
 430:Drivers/STM32F4xx_HAL_Driver/Src/stm32f4xx_ll_usb.c ****                    USB_OTG_GINTMSK_PXFRM_IISOOXFRM | USB_OTG_GINTMSK_WUIM;
 431:Drivers/STM32F4xx_HAL_Driver/Src/stm32f4xx_ll_usb.c **** 
ARM GAS  C:\Users\User\AppData\Local\Temp\ccbub1mW.s 			page 9


 432:Drivers/STM32F4xx_HAL_Driver/Src/stm32f4xx_ll_usb.c ****   if (cfg.Sof_enable != 0U)
 433:Drivers/STM32F4xx_HAL_Driver/Src/stm32f4xx_ll_usb.c ****   {
 434:Drivers/STM32F4xx_HAL_Driver/Src/stm32f4xx_ll_usb.c ****     USBx->GINTMSK |= USB_OTG_GINTMSK_SOFM;
 435:Drivers/STM32F4xx_HAL_Driver/Src/stm32f4xx_ll_usb.c ****   }
 436:Drivers/STM32F4xx_HAL_Driver/Src/stm32f4xx_ll_usb.c **** 
 437:Drivers/STM32F4xx_HAL_Driver/Src/stm32f4xx_ll_usb.c ****   if (cfg.vbus_sensing_enable == 1U)
 438:Drivers/STM32F4xx_HAL_Driver/Src/stm32f4xx_ll_usb.c ****   {
 439:Drivers/STM32F4xx_HAL_Driver/Src/stm32f4xx_ll_usb.c ****     USBx->GINTMSK |= (USB_OTG_GINTMSK_SRQIM | USB_OTG_GINTMSK_OTGINT);
 440:Drivers/STM32F4xx_HAL_Driver/Src/stm32f4xx_ll_usb.c ****   }
 441:Drivers/STM32F4xx_HAL_Driver/Src/stm32f4xx_ll_usb.c **** 
 442:Drivers/STM32F4xx_HAL_Driver/Src/stm32f4xx_ll_usb.c ****   return ret;
 443:Drivers/STM32F4xx_HAL_Driver/Src/stm32f4xx_ll_usb.c **** }
 444:Drivers/STM32F4xx_HAL_Driver/Src/stm32f4xx_ll_usb.c **** 
 445:Drivers/STM32F4xx_HAL_Driver/Src/stm32f4xx_ll_usb.c **** /**
 446:Drivers/STM32F4xx_HAL_Driver/Src/stm32f4xx_ll_usb.c ****   * @brief  USB_OTG_FlushTxFifo : Flush a Tx FIFO
 447:Drivers/STM32F4xx_HAL_Driver/Src/stm32f4xx_ll_usb.c ****   * @param  USBx  Selected device
 448:Drivers/STM32F4xx_HAL_Driver/Src/stm32f4xx_ll_usb.c ****   * @param  num  FIFO number
 449:Drivers/STM32F4xx_HAL_Driver/Src/stm32f4xx_ll_usb.c ****   *         This parameter can be a value from 1 to 15
 450:Drivers/STM32F4xx_HAL_Driver/Src/stm32f4xx_ll_usb.c ****             15 means Flush all Tx FIFOs
 451:Drivers/STM32F4xx_HAL_Driver/Src/stm32f4xx_ll_usb.c ****   * @retval HAL status
 452:Drivers/STM32F4xx_HAL_Driver/Src/stm32f4xx_ll_usb.c ****   */
 453:Drivers/STM32F4xx_HAL_Driver/Src/stm32f4xx_ll_usb.c **** HAL_StatusTypeDef USB_FlushTxFifo(USB_OTG_GlobalTypeDef *USBx, uint32_t num)
 454:Drivers/STM32F4xx_HAL_Driver/Src/stm32f4xx_ll_usb.c **** {
 455:Drivers/STM32F4xx_HAL_Driver/Src/stm32f4xx_ll_usb.c ****   uint32_t count = 0U;
 456:Drivers/STM32F4xx_HAL_Driver/Src/stm32f4xx_ll_usb.c **** 
 457:Drivers/STM32F4xx_HAL_Driver/Src/stm32f4xx_ll_usb.c ****   USBx->GRSTCTL = (USB_OTG_GRSTCTL_TXFFLSH | (num << 6));
 458:Drivers/STM32F4xx_HAL_Driver/Src/stm32f4xx_ll_usb.c **** 
 459:Drivers/STM32F4xx_HAL_Driver/Src/stm32f4xx_ll_usb.c ****   do
 460:Drivers/STM32F4xx_HAL_Driver/Src/stm32f4xx_ll_usb.c ****   {
 461:Drivers/STM32F4xx_HAL_Driver/Src/stm32f4xx_ll_usb.c ****     if (++count > 200000U)
 462:Drivers/STM32F4xx_HAL_Driver/Src/stm32f4xx_ll_usb.c ****     {
 463:Drivers/STM32F4xx_HAL_Driver/Src/stm32f4xx_ll_usb.c ****       return HAL_TIMEOUT;
 464:Drivers/STM32F4xx_HAL_Driver/Src/stm32f4xx_ll_usb.c ****     }
 465:Drivers/STM32F4xx_HAL_Driver/Src/stm32f4xx_ll_usb.c ****   } while ((USBx->GRSTCTL & USB_OTG_GRSTCTL_TXFFLSH) == USB_OTG_GRSTCTL_TXFFLSH);
 466:Drivers/STM32F4xx_HAL_Driver/Src/stm32f4xx_ll_usb.c **** 
 467:Drivers/STM32F4xx_HAL_Driver/Src/stm32f4xx_ll_usb.c ****   return HAL_OK;
 468:Drivers/STM32F4xx_HAL_Driver/Src/stm32f4xx_ll_usb.c **** }
 469:Drivers/STM32F4xx_HAL_Driver/Src/stm32f4xx_ll_usb.c **** 
 470:Drivers/STM32F4xx_HAL_Driver/Src/stm32f4xx_ll_usb.c **** /**
 471:Drivers/STM32F4xx_HAL_Driver/Src/stm32f4xx_ll_usb.c ****   * @brief  USB_FlushRxFifo : Flush Rx FIFO
 472:Drivers/STM32F4xx_HAL_Driver/Src/stm32f4xx_ll_usb.c ****   * @param  USBx  Selected device
 473:Drivers/STM32F4xx_HAL_Driver/Src/stm32f4xx_ll_usb.c ****   * @retval HAL status
 474:Drivers/STM32F4xx_HAL_Driver/Src/stm32f4xx_ll_usb.c ****   */
 475:Drivers/STM32F4xx_HAL_Driver/Src/stm32f4xx_ll_usb.c **** HAL_StatusTypeDef USB_FlushRxFifo(USB_OTG_GlobalTypeDef *USBx)
 476:Drivers/STM32F4xx_HAL_Driver/Src/stm32f4xx_ll_usb.c **** {
 477:Drivers/STM32F4xx_HAL_Driver/Src/stm32f4xx_ll_usb.c ****   uint32_t count = 0;
 478:Drivers/STM32F4xx_HAL_Driver/Src/stm32f4xx_ll_usb.c **** 
 479:Drivers/STM32F4xx_HAL_Driver/Src/stm32f4xx_ll_usb.c ****   USBx->GRSTCTL = USB_OTG_GRSTCTL_RXFFLSH;
 480:Drivers/STM32F4xx_HAL_Driver/Src/stm32f4xx_ll_usb.c **** 
 481:Drivers/STM32F4xx_HAL_Driver/Src/stm32f4xx_ll_usb.c ****   do
 482:Drivers/STM32F4xx_HAL_Driver/Src/stm32f4xx_ll_usb.c ****   {
 483:Drivers/STM32F4xx_HAL_Driver/Src/stm32f4xx_ll_usb.c ****     if (++count > 200000U)
 484:Drivers/STM32F4xx_HAL_Driver/Src/stm32f4xx_ll_usb.c ****     {
 485:Drivers/STM32F4xx_HAL_Driver/Src/stm32f4xx_ll_usb.c ****       return HAL_TIMEOUT;
 486:Drivers/STM32F4xx_HAL_Driver/Src/stm32f4xx_ll_usb.c ****     }
 487:Drivers/STM32F4xx_HAL_Driver/Src/stm32f4xx_ll_usb.c ****   } while ((USBx->GRSTCTL & USB_OTG_GRSTCTL_RXFFLSH) == USB_OTG_GRSTCTL_RXFFLSH);
 488:Drivers/STM32F4xx_HAL_Driver/Src/stm32f4xx_ll_usb.c **** 
ARM GAS  C:\Users\User\AppData\Local\Temp\ccbub1mW.s 			page 10


 489:Drivers/STM32F4xx_HAL_Driver/Src/stm32f4xx_ll_usb.c ****   return HAL_OK;
 490:Drivers/STM32F4xx_HAL_Driver/Src/stm32f4xx_ll_usb.c **** }
 491:Drivers/STM32F4xx_HAL_Driver/Src/stm32f4xx_ll_usb.c **** 
 492:Drivers/STM32F4xx_HAL_Driver/Src/stm32f4xx_ll_usb.c **** /**
 493:Drivers/STM32F4xx_HAL_Driver/Src/stm32f4xx_ll_usb.c ****   * @brief  USB_SetDevSpeed  Initializes the DevSpd field of DCFG register
 494:Drivers/STM32F4xx_HAL_Driver/Src/stm32f4xx_ll_usb.c ****   *         depending the PHY type and the enumeration speed of the device.
 495:Drivers/STM32F4xx_HAL_Driver/Src/stm32f4xx_ll_usb.c ****   * @param  USBx  Selected device
 496:Drivers/STM32F4xx_HAL_Driver/Src/stm32f4xx_ll_usb.c ****   * @param  speed  device speed
 497:Drivers/STM32F4xx_HAL_Driver/Src/stm32f4xx_ll_usb.c ****   *          This parameter can be one of these values:
 498:Drivers/STM32F4xx_HAL_Driver/Src/stm32f4xx_ll_usb.c ****   *            @arg USB_OTG_SPEED_HIGH: High speed mode
 499:Drivers/STM32F4xx_HAL_Driver/Src/stm32f4xx_ll_usb.c ****   *            @arg USB_OTG_SPEED_HIGH_IN_FULL: High speed core in Full Speed mode
 500:Drivers/STM32F4xx_HAL_Driver/Src/stm32f4xx_ll_usb.c ****   *            @arg USB_OTG_SPEED_FULL: Full speed mode
 501:Drivers/STM32F4xx_HAL_Driver/Src/stm32f4xx_ll_usb.c ****   * @retval  Hal status
 502:Drivers/STM32F4xx_HAL_Driver/Src/stm32f4xx_ll_usb.c ****   */
 503:Drivers/STM32F4xx_HAL_Driver/Src/stm32f4xx_ll_usb.c **** HAL_StatusTypeDef USB_SetDevSpeed(USB_OTG_GlobalTypeDef *USBx, uint8_t speed)
 504:Drivers/STM32F4xx_HAL_Driver/Src/stm32f4xx_ll_usb.c **** {
 505:Drivers/STM32F4xx_HAL_Driver/Src/stm32f4xx_ll_usb.c ****   uint32_t USBx_BASE = (uint32_t)USBx;
 506:Drivers/STM32F4xx_HAL_Driver/Src/stm32f4xx_ll_usb.c **** 
 507:Drivers/STM32F4xx_HAL_Driver/Src/stm32f4xx_ll_usb.c ****   USBx_DEVICE->DCFG |= speed;
 508:Drivers/STM32F4xx_HAL_Driver/Src/stm32f4xx_ll_usb.c ****   return HAL_OK;
 509:Drivers/STM32F4xx_HAL_Driver/Src/stm32f4xx_ll_usb.c **** }
 510:Drivers/STM32F4xx_HAL_Driver/Src/stm32f4xx_ll_usb.c **** 
 511:Drivers/STM32F4xx_HAL_Driver/Src/stm32f4xx_ll_usb.c **** /**
 512:Drivers/STM32F4xx_HAL_Driver/Src/stm32f4xx_ll_usb.c ****   * @brief  USB_GetDevSpeed  Return the Dev Speed
 513:Drivers/STM32F4xx_HAL_Driver/Src/stm32f4xx_ll_usb.c ****   * @param  USBx  Selected device
 514:Drivers/STM32F4xx_HAL_Driver/Src/stm32f4xx_ll_usb.c ****   * @retval speed  device speed
 515:Drivers/STM32F4xx_HAL_Driver/Src/stm32f4xx_ll_usb.c ****   *          This parameter can be one of these values:
 516:Drivers/STM32F4xx_HAL_Driver/Src/stm32f4xx_ll_usb.c ****   *            @arg PCD_SPEED_HIGH: High speed mode
 517:Drivers/STM32F4xx_HAL_Driver/Src/stm32f4xx_ll_usb.c ****   *            @arg PCD_SPEED_FULL: Full speed mode
 518:Drivers/STM32F4xx_HAL_Driver/Src/stm32f4xx_ll_usb.c ****   */
 519:Drivers/STM32F4xx_HAL_Driver/Src/stm32f4xx_ll_usb.c **** uint8_t USB_GetDevSpeed(USB_OTG_GlobalTypeDef *USBx)
 520:Drivers/STM32F4xx_HAL_Driver/Src/stm32f4xx_ll_usb.c **** {
 521:Drivers/STM32F4xx_HAL_Driver/Src/stm32f4xx_ll_usb.c ****   uint32_t USBx_BASE = (uint32_t)USBx;
 522:Drivers/STM32F4xx_HAL_Driver/Src/stm32f4xx_ll_usb.c ****   uint8_t speed;
 523:Drivers/STM32F4xx_HAL_Driver/Src/stm32f4xx_ll_usb.c ****   uint32_t DevEnumSpeed = USBx_DEVICE->DSTS & USB_OTG_DSTS_ENUMSPD;
 524:Drivers/STM32F4xx_HAL_Driver/Src/stm32f4xx_ll_usb.c **** 
 525:Drivers/STM32F4xx_HAL_Driver/Src/stm32f4xx_ll_usb.c ****   if (DevEnumSpeed == DSTS_ENUMSPD_HS_PHY_30MHZ_OR_60MHZ)
 526:Drivers/STM32F4xx_HAL_Driver/Src/stm32f4xx_ll_usb.c ****   {
 527:Drivers/STM32F4xx_HAL_Driver/Src/stm32f4xx_ll_usb.c ****     speed = USBD_HS_SPEED;
 528:Drivers/STM32F4xx_HAL_Driver/Src/stm32f4xx_ll_usb.c ****   }
 529:Drivers/STM32F4xx_HAL_Driver/Src/stm32f4xx_ll_usb.c ****   else if ((DevEnumSpeed == DSTS_ENUMSPD_FS_PHY_30MHZ_OR_60MHZ) ||
 530:Drivers/STM32F4xx_HAL_Driver/Src/stm32f4xx_ll_usb.c ****            (DevEnumSpeed == DSTS_ENUMSPD_FS_PHY_48MHZ))
 531:Drivers/STM32F4xx_HAL_Driver/Src/stm32f4xx_ll_usb.c ****   {
 532:Drivers/STM32F4xx_HAL_Driver/Src/stm32f4xx_ll_usb.c ****     speed = USBD_FS_SPEED;
 533:Drivers/STM32F4xx_HAL_Driver/Src/stm32f4xx_ll_usb.c ****   }
 534:Drivers/STM32F4xx_HAL_Driver/Src/stm32f4xx_ll_usb.c ****   else
 535:Drivers/STM32F4xx_HAL_Driver/Src/stm32f4xx_ll_usb.c ****   {
 536:Drivers/STM32F4xx_HAL_Driver/Src/stm32f4xx_ll_usb.c ****     speed = 0xFU;
 537:Drivers/STM32F4xx_HAL_Driver/Src/stm32f4xx_ll_usb.c ****   }
 538:Drivers/STM32F4xx_HAL_Driver/Src/stm32f4xx_ll_usb.c **** 
 539:Drivers/STM32F4xx_HAL_Driver/Src/stm32f4xx_ll_usb.c ****   return speed;
 540:Drivers/STM32F4xx_HAL_Driver/Src/stm32f4xx_ll_usb.c **** }
 541:Drivers/STM32F4xx_HAL_Driver/Src/stm32f4xx_ll_usb.c **** 
 542:Drivers/STM32F4xx_HAL_Driver/Src/stm32f4xx_ll_usb.c **** /**
 543:Drivers/STM32F4xx_HAL_Driver/Src/stm32f4xx_ll_usb.c ****   * @brief  Activate and configure an endpoint
 544:Drivers/STM32F4xx_HAL_Driver/Src/stm32f4xx_ll_usb.c ****   * @param  USBx  Selected device
 545:Drivers/STM32F4xx_HAL_Driver/Src/stm32f4xx_ll_usb.c ****   * @param  ep pointer to endpoint structure
ARM GAS  C:\Users\User\AppData\Local\Temp\ccbub1mW.s 			page 11


 546:Drivers/STM32F4xx_HAL_Driver/Src/stm32f4xx_ll_usb.c ****   * @retval HAL status
 547:Drivers/STM32F4xx_HAL_Driver/Src/stm32f4xx_ll_usb.c ****   */
 548:Drivers/STM32F4xx_HAL_Driver/Src/stm32f4xx_ll_usb.c **** HAL_StatusTypeDef USB_ActivateEndpoint(USB_OTG_GlobalTypeDef *USBx, USB_OTG_EPTypeDef *ep)
 549:Drivers/STM32F4xx_HAL_Driver/Src/stm32f4xx_ll_usb.c **** {
 550:Drivers/STM32F4xx_HAL_Driver/Src/stm32f4xx_ll_usb.c ****   uint32_t USBx_BASE = (uint32_t)USBx;
 551:Drivers/STM32F4xx_HAL_Driver/Src/stm32f4xx_ll_usb.c ****   uint32_t epnum = (uint32_t)ep->num;
 552:Drivers/STM32F4xx_HAL_Driver/Src/stm32f4xx_ll_usb.c **** 
 553:Drivers/STM32F4xx_HAL_Driver/Src/stm32f4xx_ll_usb.c ****   if (ep->is_in == 1U)
 554:Drivers/STM32F4xx_HAL_Driver/Src/stm32f4xx_ll_usb.c ****   {
 555:Drivers/STM32F4xx_HAL_Driver/Src/stm32f4xx_ll_usb.c ****     USBx_DEVICE->DAINTMSK |= USB_OTG_DAINTMSK_IEPM & (uint32_t)(1UL << (ep->num & EP_ADDR_MSK));
 556:Drivers/STM32F4xx_HAL_Driver/Src/stm32f4xx_ll_usb.c **** 
 557:Drivers/STM32F4xx_HAL_Driver/Src/stm32f4xx_ll_usb.c ****     if ((USBx_INEP(epnum)->DIEPCTL & USB_OTG_DIEPCTL_USBAEP) == 0U)
 558:Drivers/STM32F4xx_HAL_Driver/Src/stm32f4xx_ll_usb.c ****     {
 559:Drivers/STM32F4xx_HAL_Driver/Src/stm32f4xx_ll_usb.c ****       USBx_INEP(epnum)->DIEPCTL |= (ep->maxpacket & USB_OTG_DIEPCTL_MPSIZ) |
 560:Drivers/STM32F4xx_HAL_Driver/Src/stm32f4xx_ll_usb.c ****                                    ((uint32_t)ep->type << 18) | (epnum << 22) |
 561:Drivers/STM32F4xx_HAL_Driver/Src/stm32f4xx_ll_usb.c ****                                    USB_OTG_DIEPCTL_SD0PID_SEVNFRM |
 562:Drivers/STM32F4xx_HAL_Driver/Src/stm32f4xx_ll_usb.c ****                                    USB_OTG_DIEPCTL_USBAEP;
 563:Drivers/STM32F4xx_HAL_Driver/Src/stm32f4xx_ll_usb.c ****     }
 564:Drivers/STM32F4xx_HAL_Driver/Src/stm32f4xx_ll_usb.c ****   }
 565:Drivers/STM32F4xx_HAL_Driver/Src/stm32f4xx_ll_usb.c ****   else
 566:Drivers/STM32F4xx_HAL_Driver/Src/stm32f4xx_ll_usb.c ****   {
 567:Drivers/STM32F4xx_HAL_Driver/Src/stm32f4xx_ll_usb.c ****     USBx_DEVICE->DAINTMSK |= USB_OTG_DAINTMSK_OEPM & ((uint32_t)(1UL << (ep->num & EP_ADDR_MSK)) <<
 568:Drivers/STM32F4xx_HAL_Driver/Src/stm32f4xx_ll_usb.c **** 
 569:Drivers/STM32F4xx_HAL_Driver/Src/stm32f4xx_ll_usb.c ****     if (((USBx_OUTEP(epnum)->DOEPCTL) & USB_OTG_DOEPCTL_USBAEP) == 0U)
 570:Drivers/STM32F4xx_HAL_Driver/Src/stm32f4xx_ll_usb.c ****     {
 571:Drivers/STM32F4xx_HAL_Driver/Src/stm32f4xx_ll_usb.c ****       USBx_OUTEP(epnum)->DOEPCTL |= (ep->maxpacket & USB_OTG_DOEPCTL_MPSIZ) |
 572:Drivers/STM32F4xx_HAL_Driver/Src/stm32f4xx_ll_usb.c ****                                     ((uint32_t)ep->type << 18) |
 573:Drivers/STM32F4xx_HAL_Driver/Src/stm32f4xx_ll_usb.c ****                                     USB_OTG_DIEPCTL_SD0PID_SEVNFRM |
 574:Drivers/STM32F4xx_HAL_Driver/Src/stm32f4xx_ll_usb.c ****                                     USB_OTG_DOEPCTL_USBAEP;
 575:Drivers/STM32F4xx_HAL_Driver/Src/stm32f4xx_ll_usb.c ****     }
 576:Drivers/STM32F4xx_HAL_Driver/Src/stm32f4xx_ll_usb.c ****   }
 577:Drivers/STM32F4xx_HAL_Driver/Src/stm32f4xx_ll_usb.c ****   return HAL_OK;
 578:Drivers/STM32F4xx_HAL_Driver/Src/stm32f4xx_ll_usb.c **** }
 579:Drivers/STM32F4xx_HAL_Driver/Src/stm32f4xx_ll_usb.c **** 
 580:Drivers/STM32F4xx_HAL_Driver/Src/stm32f4xx_ll_usb.c **** /**
 581:Drivers/STM32F4xx_HAL_Driver/Src/stm32f4xx_ll_usb.c ****   * @brief  Activate and configure a dedicated endpoint
 582:Drivers/STM32F4xx_HAL_Driver/Src/stm32f4xx_ll_usb.c ****   * @param  USBx  Selected device
 583:Drivers/STM32F4xx_HAL_Driver/Src/stm32f4xx_ll_usb.c ****   * @param  ep pointer to endpoint structure
 584:Drivers/STM32F4xx_HAL_Driver/Src/stm32f4xx_ll_usb.c ****   * @retval HAL status
 585:Drivers/STM32F4xx_HAL_Driver/Src/stm32f4xx_ll_usb.c ****   */
 586:Drivers/STM32F4xx_HAL_Driver/Src/stm32f4xx_ll_usb.c **** HAL_StatusTypeDef USB_ActivateDedicatedEndpoint(USB_OTG_GlobalTypeDef *USBx, USB_OTG_EPTypeDef *ep)
 587:Drivers/STM32F4xx_HAL_Driver/Src/stm32f4xx_ll_usb.c **** {
 588:Drivers/STM32F4xx_HAL_Driver/Src/stm32f4xx_ll_usb.c ****   uint32_t USBx_BASE = (uint32_t)USBx;
 589:Drivers/STM32F4xx_HAL_Driver/Src/stm32f4xx_ll_usb.c ****   uint32_t epnum = (uint32_t)ep->num;
 590:Drivers/STM32F4xx_HAL_Driver/Src/stm32f4xx_ll_usb.c **** 
 591:Drivers/STM32F4xx_HAL_Driver/Src/stm32f4xx_ll_usb.c ****   /* Read DEPCTLn register */
 592:Drivers/STM32F4xx_HAL_Driver/Src/stm32f4xx_ll_usb.c ****   if (ep->is_in == 1U)
 593:Drivers/STM32F4xx_HAL_Driver/Src/stm32f4xx_ll_usb.c ****   {
 594:Drivers/STM32F4xx_HAL_Driver/Src/stm32f4xx_ll_usb.c ****     if (((USBx_INEP(epnum)->DIEPCTL) & USB_OTG_DIEPCTL_USBAEP) == 0U)
 595:Drivers/STM32F4xx_HAL_Driver/Src/stm32f4xx_ll_usb.c ****     {
 596:Drivers/STM32F4xx_HAL_Driver/Src/stm32f4xx_ll_usb.c ****       USBx_INEP(epnum)->DIEPCTL |= (ep->maxpacket & USB_OTG_DIEPCTL_MPSIZ) |
 597:Drivers/STM32F4xx_HAL_Driver/Src/stm32f4xx_ll_usb.c ****                                    ((uint32_t)ep->type << 18) | (epnum << 22) |
 598:Drivers/STM32F4xx_HAL_Driver/Src/stm32f4xx_ll_usb.c ****                                    USB_OTG_DIEPCTL_SD0PID_SEVNFRM |
 599:Drivers/STM32F4xx_HAL_Driver/Src/stm32f4xx_ll_usb.c ****                                    USB_OTG_DIEPCTL_USBAEP;
 600:Drivers/STM32F4xx_HAL_Driver/Src/stm32f4xx_ll_usb.c ****     }
 601:Drivers/STM32F4xx_HAL_Driver/Src/stm32f4xx_ll_usb.c **** 
 602:Drivers/STM32F4xx_HAL_Driver/Src/stm32f4xx_ll_usb.c ****     USBx_DEVICE->DEACHMSK |= USB_OTG_DAINTMSK_IEPM & (uint32_t)(1UL << (ep->num & EP_ADDR_MSK));
ARM GAS  C:\Users\User\AppData\Local\Temp\ccbub1mW.s 			page 12


 603:Drivers/STM32F4xx_HAL_Driver/Src/stm32f4xx_ll_usb.c ****   }
 604:Drivers/STM32F4xx_HAL_Driver/Src/stm32f4xx_ll_usb.c ****   else
 605:Drivers/STM32F4xx_HAL_Driver/Src/stm32f4xx_ll_usb.c ****   {
 606:Drivers/STM32F4xx_HAL_Driver/Src/stm32f4xx_ll_usb.c ****     if (((USBx_OUTEP(epnum)->DOEPCTL) & USB_OTG_DOEPCTL_USBAEP) == 0U)
 607:Drivers/STM32F4xx_HAL_Driver/Src/stm32f4xx_ll_usb.c ****     {
 608:Drivers/STM32F4xx_HAL_Driver/Src/stm32f4xx_ll_usb.c ****       USBx_OUTEP(epnum)->DOEPCTL |= (ep->maxpacket & USB_OTG_DOEPCTL_MPSIZ) |
 609:Drivers/STM32F4xx_HAL_Driver/Src/stm32f4xx_ll_usb.c ****                                     ((uint32_t)ep->type << 18) | (epnum << 22) |
 610:Drivers/STM32F4xx_HAL_Driver/Src/stm32f4xx_ll_usb.c ****                                     USB_OTG_DOEPCTL_USBAEP;
 611:Drivers/STM32F4xx_HAL_Driver/Src/stm32f4xx_ll_usb.c ****     }
 612:Drivers/STM32F4xx_HAL_Driver/Src/stm32f4xx_ll_usb.c **** 
 613:Drivers/STM32F4xx_HAL_Driver/Src/stm32f4xx_ll_usb.c ****     USBx_DEVICE->DEACHMSK |= USB_OTG_DAINTMSK_OEPM & ((uint32_t)(1UL << (ep->num & EP_ADDR_MSK)) <<
 614:Drivers/STM32F4xx_HAL_Driver/Src/stm32f4xx_ll_usb.c ****   }
 615:Drivers/STM32F4xx_HAL_Driver/Src/stm32f4xx_ll_usb.c **** 
 616:Drivers/STM32F4xx_HAL_Driver/Src/stm32f4xx_ll_usb.c ****   return HAL_OK;
 617:Drivers/STM32F4xx_HAL_Driver/Src/stm32f4xx_ll_usb.c **** }
 618:Drivers/STM32F4xx_HAL_Driver/Src/stm32f4xx_ll_usb.c **** 
 619:Drivers/STM32F4xx_HAL_Driver/Src/stm32f4xx_ll_usb.c **** /**
 620:Drivers/STM32F4xx_HAL_Driver/Src/stm32f4xx_ll_usb.c ****   * @brief  De-activate and de-initialize an endpoint
 621:Drivers/STM32F4xx_HAL_Driver/Src/stm32f4xx_ll_usb.c ****   * @param  USBx  Selected device
 622:Drivers/STM32F4xx_HAL_Driver/Src/stm32f4xx_ll_usb.c ****   * @param  ep pointer to endpoint structure
 623:Drivers/STM32F4xx_HAL_Driver/Src/stm32f4xx_ll_usb.c ****   * @retval HAL status
 624:Drivers/STM32F4xx_HAL_Driver/Src/stm32f4xx_ll_usb.c ****   */
 625:Drivers/STM32F4xx_HAL_Driver/Src/stm32f4xx_ll_usb.c **** HAL_StatusTypeDef USB_DeactivateEndpoint(USB_OTG_GlobalTypeDef *USBx, USB_OTG_EPTypeDef *ep)
 626:Drivers/STM32F4xx_HAL_Driver/Src/stm32f4xx_ll_usb.c **** {
 627:Drivers/STM32F4xx_HAL_Driver/Src/stm32f4xx_ll_usb.c ****   uint32_t USBx_BASE = (uint32_t)USBx;
 628:Drivers/STM32F4xx_HAL_Driver/Src/stm32f4xx_ll_usb.c ****   uint32_t epnum = (uint32_t)ep->num;
 629:Drivers/STM32F4xx_HAL_Driver/Src/stm32f4xx_ll_usb.c **** 
 630:Drivers/STM32F4xx_HAL_Driver/Src/stm32f4xx_ll_usb.c ****   /* Read DEPCTLn register */
 631:Drivers/STM32F4xx_HAL_Driver/Src/stm32f4xx_ll_usb.c ****   if (ep->is_in == 1U)
 632:Drivers/STM32F4xx_HAL_Driver/Src/stm32f4xx_ll_usb.c ****   {
 633:Drivers/STM32F4xx_HAL_Driver/Src/stm32f4xx_ll_usb.c ****     if ((USBx_INEP(epnum)->DIEPCTL & USB_OTG_DIEPCTL_EPENA) == USB_OTG_DIEPCTL_EPENA)
 634:Drivers/STM32F4xx_HAL_Driver/Src/stm32f4xx_ll_usb.c ****     {
 635:Drivers/STM32F4xx_HAL_Driver/Src/stm32f4xx_ll_usb.c ****       USBx_INEP(epnum)->DIEPCTL |= USB_OTG_DIEPCTL_SNAK;
 636:Drivers/STM32F4xx_HAL_Driver/Src/stm32f4xx_ll_usb.c ****       USBx_INEP(epnum)->DIEPCTL |= USB_OTG_DIEPCTL_EPDIS;
 637:Drivers/STM32F4xx_HAL_Driver/Src/stm32f4xx_ll_usb.c ****     }
 638:Drivers/STM32F4xx_HAL_Driver/Src/stm32f4xx_ll_usb.c **** 
 639:Drivers/STM32F4xx_HAL_Driver/Src/stm32f4xx_ll_usb.c ****     USBx_DEVICE->DEACHMSK &= ~(USB_OTG_DAINTMSK_IEPM & (uint32_t)(1UL << (ep->num & EP_ADDR_MSK)));
 640:Drivers/STM32F4xx_HAL_Driver/Src/stm32f4xx_ll_usb.c ****     USBx_DEVICE->DAINTMSK &= ~(USB_OTG_DAINTMSK_IEPM & (uint32_t)(1UL << (ep->num & EP_ADDR_MSK)));
 641:Drivers/STM32F4xx_HAL_Driver/Src/stm32f4xx_ll_usb.c ****     USBx_INEP(epnum)->DIEPCTL &= ~(USB_OTG_DIEPCTL_USBAEP |
 642:Drivers/STM32F4xx_HAL_Driver/Src/stm32f4xx_ll_usb.c ****                                    USB_OTG_DIEPCTL_MPSIZ |
 643:Drivers/STM32F4xx_HAL_Driver/Src/stm32f4xx_ll_usb.c ****                                    USB_OTG_DIEPCTL_TXFNUM |
 644:Drivers/STM32F4xx_HAL_Driver/Src/stm32f4xx_ll_usb.c ****                                    USB_OTG_DIEPCTL_SD0PID_SEVNFRM |
 645:Drivers/STM32F4xx_HAL_Driver/Src/stm32f4xx_ll_usb.c ****                                    USB_OTG_DIEPCTL_EPTYP);
 646:Drivers/STM32F4xx_HAL_Driver/Src/stm32f4xx_ll_usb.c ****   }
 647:Drivers/STM32F4xx_HAL_Driver/Src/stm32f4xx_ll_usb.c ****   else
 648:Drivers/STM32F4xx_HAL_Driver/Src/stm32f4xx_ll_usb.c ****   {
 649:Drivers/STM32F4xx_HAL_Driver/Src/stm32f4xx_ll_usb.c ****     if ((USBx_OUTEP(epnum)->DOEPCTL & USB_OTG_DOEPCTL_EPENA) == USB_OTG_DOEPCTL_EPENA)
 650:Drivers/STM32F4xx_HAL_Driver/Src/stm32f4xx_ll_usb.c ****     {
 651:Drivers/STM32F4xx_HAL_Driver/Src/stm32f4xx_ll_usb.c ****       USBx_OUTEP(epnum)->DOEPCTL |= USB_OTG_DOEPCTL_SNAK;
 652:Drivers/STM32F4xx_HAL_Driver/Src/stm32f4xx_ll_usb.c ****       USBx_OUTEP(epnum)->DOEPCTL |= USB_OTG_DOEPCTL_EPDIS;
 653:Drivers/STM32F4xx_HAL_Driver/Src/stm32f4xx_ll_usb.c ****     }
 654:Drivers/STM32F4xx_HAL_Driver/Src/stm32f4xx_ll_usb.c **** 
 655:Drivers/STM32F4xx_HAL_Driver/Src/stm32f4xx_ll_usb.c ****     USBx_DEVICE->DEACHMSK &= ~(USB_OTG_DAINTMSK_OEPM & ((uint32_t)(1UL << (ep->num & EP_ADDR_MSK)) 
 656:Drivers/STM32F4xx_HAL_Driver/Src/stm32f4xx_ll_usb.c ****     USBx_DEVICE->DAINTMSK &= ~(USB_OTG_DAINTMSK_OEPM & ((uint32_t)(1UL << (ep->num & EP_ADDR_MSK)) 
 657:Drivers/STM32F4xx_HAL_Driver/Src/stm32f4xx_ll_usb.c ****     USBx_OUTEP(epnum)->DOEPCTL &= ~(USB_OTG_DOEPCTL_USBAEP |
 658:Drivers/STM32F4xx_HAL_Driver/Src/stm32f4xx_ll_usb.c ****                                     USB_OTG_DOEPCTL_MPSIZ |
 659:Drivers/STM32F4xx_HAL_Driver/Src/stm32f4xx_ll_usb.c ****                                     USB_OTG_DOEPCTL_SD0PID_SEVNFRM |
ARM GAS  C:\Users\User\AppData\Local\Temp\ccbub1mW.s 			page 13


 660:Drivers/STM32F4xx_HAL_Driver/Src/stm32f4xx_ll_usb.c ****                                     USB_OTG_DOEPCTL_EPTYP);
 661:Drivers/STM32F4xx_HAL_Driver/Src/stm32f4xx_ll_usb.c ****   }
 662:Drivers/STM32F4xx_HAL_Driver/Src/stm32f4xx_ll_usb.c **** 
 663:Drivers/STM32F4xx_HAL_Driver/Src/stm32f4xx_ll_usb.c ****   return HAL_OK;
 664:Drivers/STM32F4xx_HAL_Driver/Src/stm32f4xx_ll_usb.c **** }
 665:Drivers/STM32F4xx_HAL_Driver/Src/stm32f4xx_ll_usb.c **** 
 666:Drivers/STM32F4xx_HAL_Driver/Src/stm32f4xx_ll_usb.c **** /**
 667:Drivers/STM32F4xx_HAL_Driver/Src/stm32f4xx_ll_usb.c ****   * @brief  De-activate and de-initialize a dedicated endpoint
 668:Drivers/STM32F4xx_HAL_Driver/Src/stm32f4xx_ll_usb.c ****   * @param  USBx  Selected device
 669:Drivers/STM32F4xx_HAL_Driver/Src/stm32f4xx_ll_usb.c ****   * @param  ep pointer to endpoint structure
 670:Drivers/STM32F4xx_HAL_Driver/Src/stm32f4xx_ll_usb.c ****   * @retval HAL status
 671:Drivers/STM32F4xx_HAL_Driver/Src/stm32f4xx_ll_usb.c ****   */
 672:Drivers/STM32F4xx_HAL_Driver/Src/stm32f4xx_ll_usb.c **** HAL_StatusTypeDef USB_DeactivateDedicatedEndpoint(USB_OTG_GlobalTypeDef *USBx, USB_OTG_EPTypeDef *e
 673:Drivers/STM32F4xx_HAL_Driver/Src/stm32f4xx_ll_usb.c **** {
 674:Drivers/STM32F4xx_HAL_Driver/Src/stm32f4xx_ll_usb.c ****   uint32_t USBx_BASE = (uint32_t)USBx;
 675:Drivers/STM32F4xx_HAL_Driver/Src/stm32f4xx_ll_usb.c ****   uint32_t epnum = (uint32_t)ep->num;
 676:Drivers/STM32F4xx_HAL_Driver/Src/stm32f4xx_ll_usb.c **** 
 677:Drivers/STM32F4xx_HAL_Driver/Src/stm32f4xx_ll_usb.c ****   /* Read DEPCTLn register */
 678:Drivers/STM32F4xx_HAL_Driver/Src/stm32f4xx_ll_usb.c ****   if (ep->is_in == 1U)
 679:Drivers/STM32F4xx_HAL_Driver/Src/stm32f4xx_ll_usb.c ****   {
 680:Drivers/STM32F4xx_HAL_Driver/Src/stm32f4xx_ll_usb.c ****     if ((USBx_INEP(epnum)->DIEPCTL & USB_OTG_DIEPCTL_EPENA) == USB_OTG_DIEPCTL_EPENA)
 681:Drivers/STM32F4xx_HAL_Driver/Src/stm32f4xx_ll_usb.c ****     {
 682:Drivers/STM32F4xx_HAL_Driver/Src/stm32f4xx_ll_usb.c ****       USBx_INEP(epnum)->DIEPCTL  |= USB_OTG_DIEPCTL_SNAK;
 683:Drivers/STM32F4xx_HAL_Driver/Src/stm32f4xx_ll_usb.c ****       USBx_INEP(epnum)->DIEPCTL  |= USB_OTG_DIEPCTL_EPDIS;
 684:Drivers/STM32F4xx_HAL_Driver/Src/stm32f4xx_ll_usb.c ****     }
 685:Drivers/STM32F4xx_HAL_Driver/Src/stm32f4xx_ll_usb.c **** 
 686:Drivers/STM32F4xx_HAL_Driver/Src/stm32f4xx_ll_usb.c ****     USBx_INEP(epnum)->DIEPCTL &= ~ USB_OTG_DIEPCTL_USBAEP;
 687:Drivers/STM32F4xx_HAL_Driver/Src/stm32f4xx_ll_usb.c ****     USBx_DEVICE->DAINTMSK &= ~(USB_OTG_DAINTMSK_IEPM & (uint32_t)(1UL << (ep->num & EP_ADDR_MSK)));
 688:Drivers/STM32F4xx_HAL_Driver/Src/stm32f4xx_ll_usb.c ****   }
 689:Drivers/STM32F4xx_HAL_Driver/Src/stm32f4xx_ll_usb.c ****   else
 690:Drivers/STM32F4xx_HAL_Driver/Src/stm32f4xx_ll_usb.c ****   {
 691:Drivers/STM32F4xx_HAL_Driver/Src/stm32f4xx_ll_usb.c ****     if ((USBx_OUTEP(epnum)->DOEPCTL & USB_OTG_DOEPCTL_EPENA) == USB_OTG_DOEPCTL_EPENA)
 692:Drivers/STM32F4xx_HAL_Driver/Src/stm32f4xx_ll_usb.c ****     {
 693:Drivers/STM32F4xx_HAL_Driver/Src/stm32f4xx_ll_usb.c ****       USBx_OUTEP(epnum)->DOEPCTL  |= USB_OTG_DOEPCTL_SNAK;
 694:Drivers/STM32F4xx_HAL_Driver/Src/stm32f4xx_ll_usb.c ****       USBx_OUTEP(epnum)->DOEPCTL  |= USB_OTG_DOEPCTL_EPDIS;
 695:Drivers/STM32F4xx_HAL_Driver/Src/stm32f4xx_ll_usb.c ****     }
 696:Drivers/STM32F4xx_HAL_Driver/Src/stm32f4xx_ll_usb.c **** 
 697:Drivers/STM32F4xx_HAL_Driver/Src/stm32f4xx_ll_usb.c ****     USBx_OUTEP(epnum)->DOEPCTL &= ~USB_OTG_DOEPCTL_USBAEP;
 698:Drivers/STM32F4xx_HAL_Driver/Src/stm32f4xx_ll_usb.c ****     USBx_DEVICE->DAINTMSK &= ~(USB_OTG_DAINTMSK_OEPM & ((uint32_t)(1UL << (ep->num & EP_ADDR_MSK)) 
 699:Drivers/STM32F4xx_HAL_Driver/Src/stm32f4xx_ll_usb.c ****   }
 700:Drivers/STM32F4xx_HAL_Driver/Src/stm32f4xx_ll_usb.c **** 
 701:Drivers/STM32F4xx_HAL_Driver/Src/stm32f4xx_ll_usb.c ****   return HAL_OK;
 702:Drivers/STM32F4xx_HAL_Driver/Src/stm32f4xx_ll_usb.c **** }
 703:Drivers/STM32F4xx_HAL_Driver/Src/stm32f4xx_ll_usb.c **** 
 704:Drivers/STM32F4xx_HAL_Driver/Src/stm32f4xx_ll_usb.c **** /**
 705:Drivers/STM32F4xx_HAL_Driver/Src/stm32f4xx_ll_usb.c ****   * @brief  USB_EPStartXfer : setup and starts a transfer over an EP
 706:Drivers/STM32F4xx_HAL_Driver/Src/stm32f4xx_ll_usb.c ****   * @param  USBx  Selected device
 707:Drivers/STM32F4xx_HAL_Driver/Src/stm32f4xx_ll_usb.c ****   * @param  ep pointer to endpoint structure
 708:Drivers/STM32F4xx_HAL_Driver/Src/stm32f4xx_ll_usb.c ****   * @param  dma USB dma enabled or disabled
 709:Drivers/STM32F4xx_HAL_Driver/Src/stm32f4xx_ll_usb.c ****   *          This parameter can be one of these values:
 710:Drivers/STM32F4xx_HAL_Driver/Src/stm32f4xx_ll_usb.c ****   *           0 : DMA feature not used
 711:Drivers/STM32F4xx_HAL_Driver/Src/stm32f4xx_ll_usb.c ****   *           1 : DMA feature used
 712:Drivers/STM32F4xx_HAL_Driver/Src/stm32f4xx_ll_usb.c ****   * @retval HAL status
 713:Drivers/STM32F4xx_HAL_Driver/Src/stm32f4xx_ll_usb.c ****   */
 714:Drivers/STM32F4xx_HAL_Driver/Src/stm32f4xx_ll_usb.c **** HAL_StatusTypeDef USB_EPStartXfer(USB_OTG_GlobalTypeDef *USBx, USB_OTG_EPTypeDef *ep, uint8_t dma)
 715:Drivers/STM32F4xx_HAL_Driver/Src/stm32f4xx_ll_usb.c **** {
 716:Drivers/STM32F4xx_HAL_Driver/Src/stm32f4xx_ll_usb.c ****   uint32_t USBx_BASE = (uint32_t)USBx;
ARM GAS  C:\Users\User\AppData\Local\Temp\ccbub1mW.s 			page 14


 717:Drivers/STM32F4xx_HAL_Driver/Src/stm32f4xx_ll_usb.c ****   uint32_t epnum = (uint32_t)ep->num;
 718:Drivers/STM32F4xx_HAL_Driver/Src/stm32f4xx_ll_usb.c ****   uint16_t pktcnt;
 719:Drivers/STM32F4xx_HAL_Driver/Src/stm32f4xx_ll_usb.c **** 
 720:Drivers/STM32F4xx_HAL_Driver/Src/stm32f4xx_ll_usb.c ****   /* IN endpoint */
 721:Drivers/STM32F4xx_HAL_Driver/Src/stm32f4xx_ll_usb.c ****   if (ep->is_in == 1U)
 722:Drivers/STM32F4xx_HAL_Driver/Src/stm32f4xx_ll_usb.c ****   {
 723:Drivers/STM32F4xx_HAL_Driver/Src/stm32f4xx_ll_usb.c ****     /* Zero Length Packet? */
 724:Drivers/STM32F4xx_HAL_Driver/Src/stm32f4xx_ll_usb.c ****     if (ep->xfer_len == 0U)
 725:Drivers/STM32F4xx_HAL_Driver/Src/stm32f4xx_ll_usb.c ****     {
 726:Drivers/STM32F4xx_HAL_Driver/Src/stm32f4xx_ll_usb.c ****       USBx_INEP(epnum)->DIEPTSIZ &= ~(USB_OTG_DIEPTSIZ_PKTCNT);
 727:Drivers/STM32F4xx_HAL_Driver/Src/stm32f4xx_ll_usb.c ****       USBx_INEP(epnum)->DIEPTSIZ |= (USB_OTG_DIEPTSIZ_PKTCNT & (1U << 19));
 728:Drivers/STM32F4xx_HAL_Driver/Src/stm32f4xx_ll_usb.c ****       USBx_INEP(epnum)->DIEPTSIZ &= ~(USB_OTG_DIEPTSIZ_XFRSIZ);
 729:Drivers/STM32F4xx_HAL_Driver/Src/stm32f4xx_ll_usb.c ****     }
 730:Drivers/STM32F4xx_HAL_Driver/Src/stm32f4xx_ll_usb.c ****     else
 731:Drivers/STM32F4xx_HAL_Driver/Src/stm32f4xx_ll_usb.c ****     {
 732:Drivers/STM32F4xx_HAL_Driver/Src/stm32f4xx_ll_usb.c ****       /* Program the transfer size and packet count
 733:Drivers/STM32F4xx_HAL_Driver/Src/stm32f4xx_ll_usb.c ****       * as follows: xfersize = N * maxpacket +
 734:Drivers/STM32F4xx_HAL_Driver/Src/stm32f4xx_ll_usb.c ****       * short_packet pktcnt = N + (short_packet
 735:Drivers/STM32F4xx_HAL_Driver/Src/stm32f4xx_ll_usb.c ****       * exist ? 1 : 0)
 736:Drivers/STM32F4xx_HAL_Driver/Src/stm32f4xx_ll_usb.c ****       */
 737:Drivers/STM32F4xx_HAL_Driver/Src/stm32f4xx_ll_usb.c ****       USBx_INEP(epnum)->DIEPTSIZ &= ~(USB_OTG_DIEPTSIZ_XFRSIZ);
 738:Drivers/STM32F4xx_HAL_Driver/Src/stm32f4xx_ll_usb.c ****       USBx_INEP(epnum)->DIEPTSIZ &= ~(USB_OTG_DIEPTSIZ_PKTCNT);
 739:Drivers/STM32F4xx_HAL_Driver/Src/stm32f4xx_ll_usb.c ****       USBx_INEP(epnum)->DIEPTSIZ |= (USB_OTG_DIEPTSIZ_PKTCNT & (((ep->xfer_len + ep->maxpacket - 1U
 740:Drivers/STM32F4xx_HAL_Driver/Src/stm32f4xx_ll_usb.c ****       USBx_INEP(epnum)->DIEPTSIZ |= (USB_OTG_DIEPTSIZ_XFRSIZ & ep->xfer_len);
 741:Drivers/STM32F4xx_HAL_Driver/Src/stm32f4xx_ll_usb.c **** 
 742:Drivers/STM32F4xx_HAL_Driver/Src/stm32f4xx_ll_usb.c ****       if (ep->type == EP_TYPE_ISOC)
 743:Drivers/STM32F4xx_HAL_Driver/Src/stm32f4xx_ll_usb.c ****       {
 744:Drivers/STM32F4xx_HAL_Driver/Src/stm32f4xx_ll_usb.c ****         USBx_INEP(epnum)->DIEPTSIZ &= ~(USB_OTG_DIEPTSIZ_MULCNT);
 745:Drivers/STM32F4xx_HAL_Driver/Src/stm32f4xx_ll_usb.c ****         USBx_INEP(epnum)->DIEPTSIZ |= (USB_OTG_DIEPTSIZ_MULCNT & (1U << 29));
 746:Drivers/STM32F4xx_HAL_Driver/Src/stm32f4xx_ll_usb.c ****       }
 747:Drivers/STM32F4xx_HAL_Driver/Src/stm32f4xx_ll_usb.c ****     }
 748:Drivers/STM32F4xx_HAL_Driver/Src/stm32f4xx_ll_usb.c **** 
 749:Drivers/STM32F4xx_HAL_Driver/Src/stm32f4xx_ll_usb.c ****     if (dma == 1U)
 750:Drivers/STM32F4xx_HAL_Driver/Src/stm32f4xx_ll_usb.c ****     {
 751:Drivers/STM32F4xx_HAL_Driver/Src/stm32f4xx_ll_usb.c ****       if ((uint32_t)ep->dma_addr != 0U)
 752:Drivers/STM32F4xx_HAL_Driver/Src/stm32f4xx_ll_usb.c ****       {
 753:Drivers/STM32F4xx_HAL_Driver/Src/stm32f4xx_ll_usb.c ****         USBx_INEP(epnum)->DIEPDMA = (uint32_t)(ep->dma_addr);
 754:Drivers/STM32F4xx_HAL_Driver/Src/stm32f4xx_ll_usb.c ****       }
 755:Drivers/STM32F4xx_HAL_Driver/Src/stm32f4xx_ll_usb.c **** 
 756:Drivers/STM32F4xx_HAL_Driver/Src/stm32f4xx_ll_usb.c ****       if (ep->type == EP_TYPE_ISOC)
 757:Drivers/STM32F4xx_HAL_Driver/Src/stm32f4xx_ll_usb.c ****       {
 758:Drivers/STM32F4xx_HAL_Driver/Src/stm32f4xx_ll_usb.c ****         if ((USBx_DEVICE->DSTS & (1U << 8)) == 0U)
 759:Drivers/STM32F4xx_HAL_Driver/Src/stm32f4xx_ll_usb.c ****         {
 760:Drivers/STM32F4xx_HAL_Driver/Src/stm32f4xx_ll_usb.c ****           USBx_INEP(epnum)->DIEPCTL |= USB_OTG_DIEPCTL_SODDFRM;
 761:Drivers/STM32F4xx_HAL_Driver/Src/stm32f4xx_ll_usb.c ****         }
 762:Drivers/STM32F4xx_HAL_Driver/Src/stm32f4xx_ll_usb.c ****         else
 763:Drivers/STM32F4xx_HAL_Driver/Src/stm32f4xx_ll_usb.c ****         {
 764:Drivers/STM32F4xx_HAL_Driver/Src/stm32f4xx_ll_usb.c ****           USBx_INEP(epnum)->DIEPCTL |= USB_OTG_DIEPCTL_SD0PID_SEVNFRM;
 765:Drivers/STM32F4xx_HAL_Driver/Src/stm32f4xx_ll_usb.c ****         }
 766:Drivers/STM32F4xx_HAL_Driver/Src/stm32f4xx_ll_usb.c ****       }
 767:Drivers/STM32F4xx_HAL_Driver/Src/stm32f4xx_ll_usb.c **** 
 768:Drivers/STM32F4xx_HAL_Driver/Src/stm32f4xx_ll_usb.c ****       /* EP enable, IN data in FIFO */
 769:Drivers/STM32F4xx_HAL_Driver/Src/stm32f4xx_ll_usb.c ****       USBx_INEP(epnum)->DIEPCTL |= (USB_OTG_DIEPCTL_CNAK | USB_OTG_DIEPCTL_EPENA);
 770:Drivers/STM32F4xx_HAL_Driver/Src/stm32f4xx_ll_usb.c ****     }
 771:Drivers/STM32F4xx_HAL_Driver/Src/stm32f4xx_ll_usb.c ****     else
 772:Drivers/STM32F4xx_HAL_Driver/Src/stm32f4xx_ll_usb.c ****     {
 773:Drivers/STM32F4xx_HAL_Driver/Src/stm32f4xx_ll_usb.c ****       /* EP enable, IN data in FIFO */
ARM GAS  C:\Users\User\AppData\Local\Temp\ccbub1mW.s 			page 15


 774:Drivers/STM32F4xx_HAL_Driver/Src/stm32f4xx_ll_usb.c ****       USBx_INEP(epnum)->DIEPCTL |= (USB_OTG_DIEPCTL_CNAK | USB_OTG_DIEPCTL_EPENA);
 775:Drivers/STM32F4xx_HAL_Driver/Src/stm32f4xx_ll_usb.c **** 
 776:Drivers/STM32F4xx_HAL_Driver/Src/stm32f4xx_ll_usb.c ****       if (ep->type != EP_TYPE_ISOC)
 777:Drivers/STM32F4xx_HAL_Driver/Src/stm32f4xx_ll_usb.c ****       {
 778:Drivers/STM32F4xx_HAL_Driver/Src/stm32f4xx_ll_usb.c ****         /* Enable the Tx FIFO Empty Interrupt for this EP */
 779:Drivers/STM32F4xx_HAL_Driver/Src/stm32f4xx_ll_usb.c ****         if (ep->xfer_len > 0U)
 780:Drivers/STM32F4xx_HAL_Driver/Src/stm32f4xx_ll_usb.c ****         {
 781:Drivers/STM32F4xx_HAL_Driver/Src/stm32f4xx_ll_usb.c ****           USBx_DEVICE->DIEPEMPMSK |= 1UL << (ep->num & EP_ADDR_MSK);
 782:Drivers/STM32F4xx_HAL_Driver/Src/stm32f4xx_ll_usb.c ****         }
 783:Drivers/STM32F4xx_HAL_Driver/Src/stm32f4xx_ll_usb.c ****       }
 784:Drivers/STM32F4xx_HAL_Driver/Src/stm32f4xx_ll_usb.c ****       else
 785:Drivers/STM32F4xx_HAL_Driver/Src/stm32f4xx_ll_usb.c ****       {
 786:Drivers/STM32F4xx_HAL_Driver/Src/stm32f4xx_ll_usb.c ****         if ((USBx_DEVICE->DSTS & (1U << 8)) == 0U)
 787:Drivers/STM32F4xx_HAL_Driver/Src/stm32f4xx_ll_usb.c ****         {
 788:Drivers/STM32F4xx_HAL_Driver/Src/stm32f4xx_ll_usb.c ****           USBx_INEP(epnum)->DIEPCTL |= USB_OTG_DIEPCTL_SODDFRM;
 789:Drivers/STM32F4xx_HAL_Driver/Src/stm32f4xx_ll_usb.c ****         }
 790:Drivers/STM32F4xx_HAL_Driver/Src/stm32f4xx_ll_usb.c ****         else
 791:Drivers/STM32F4xx_HAL_Driver/Src/stm32f4xx_ll_usb.c ****         {
 792:Drivers/STM32F4xx_HAL_Driver/Src/stm32f4xx_ll_usb.c ****           USBx_INEP(epnum)->DIEPCTL |= USB_OTG_DIEPCTL_SD0PID_SEVNFRM;
 793:Drivers/STM32F4xx_HAL_Driver/Src/stm32f4xx_ll_usb.c ****         }
 794:Drivers/STM32F4xx_HAL_Driver/Src/stm32f4xx_ll_usb.c **** 
 795:Drivers/STM32F4xx_HAL_Driver/Src/stm32f4xx_ll_usb.c ****         (void)USB_WritePacket(USBx, ep->xfer_buff, ep->num, (uint16_t)ep->xfer_len, dma);
 796:Drivers/STM32F4xx_HAL_Driver/Src/stm32f4xx_ll_usb.c ****       }
 797:Drivers/STM32F4xx_HAL_Driver/Src/stm32f4xx_ll_usb.c ****     }
 798:Drivers/STM32F4xx_HAL_Driver/Src/stm32f4xx_ll_usb.c ****   }
 799:Drivers/STM32F4xx_HAL_Driver/Src/stm32f4xx_ll_usb.c ****   else /* OUT endpoint */
 800:Drivers/STM32F4xx_HAL_Driver/Src/stm32f4xx_ll_usb.c ****   {
 801:Drivers/STM32F4xx_HAL_Driver/Src/stm32f4xx_ll_usb.c ****     /* Program the transfer size and packet count as follows:
 802:Drivers/STM32F4xx_HAL_Driver/Src/stm32f4xx_ll_usb.c ****     * pktcnt = N
 803:Drivers/STM32F4xx_HAL_Driver/Src/stm32f4xx_ll_usb.c ****     * xfersize = N * maxpacket
 804:Drivers/STM32F4xx_HAL_Driver/Src/stm32f4xx_ll_usb.c ****     */
 805:Drivers/STM32F4xx_HAL_Driver/Src/stm32f4xx_ll_usb.c ****     USBx_OUTEP(epnum)->DOEPTSIZ &= ~(USB_OTG_DOEPTSIZ_XFRSIZ);
 806:Drivers/STM32F4xx_HAL_Driver/Src/stm32f4xx_ll_usb.c ****     USBx_OUTEP(epnum)->DOEPTSIZ &= ~(USB_OTG_DOEPTSIZ_PKTCNT);
 807:Drivers/STM32F4xx_HAL_Driver/Src/stm32f4xx_ll_usb.c **** 
 808:Drivers/STM32F4xx_HAL_Driver/Src/stm32f4xx_ll_usb.c ****     if (ep->xfer_len == 0U)
 809:Drivers/STM32F4xx_HAL_Driver/Src/stm32f4xx_ll_usb.c ****     {
 810:Drivers/STM32F4xx_HAL_Driver/Src/stm32f4xx_ll_usb.c ****       USBx_OUTEP(epnum)->DOEPTSIZ |= (USB_OTG_DOEPTSIZ_XFRSIZ & ep->maxpacket);
 811:Drivers/STM32F4xx_HAL_Driver/Src/stm32f4xx_ll_usb.c ****       USBx_OUTEP(epnum)->DOEPTSIZ |= (USB_OTG_DOEPTSIZ_PKTCNT & (1U << 19));
 812:Drivers/STM32F4xx_HAL_Driver/Src/stm32f4xx_ll_usb.c ****     }
 813:Drivers/STM32F4xx_HAL_Driver/Src/stm32f4xx_ll_usb.c ****     else
 814:Drivers/STM32F4xx_HAL_Driver/Src/stm32f4xx_ll_usb.c ****     {
 815:Drivers/STM32F4xx_HAL_Driver/Src/stm32f4xx_ll_usb.c ****       pktcnt = (uint16_t)((ep->xfer_len + ep->maxpacket - 1U) / ep->maxpacket);
 816:Drivers/STM32F4xx_HAL_Driver/Src/stm32f4xx_ll_usb.c ****       USBx_OUTEP(epnum)->DOEPTSIZ |= USB_OTG_DOEPTSIZ_PKTCNT & ((uint32_t)pktcnt << 19);
 817:Drivers/STM32F4xx_HAL_Driver/Src/stm32f4xx_ll_usb.c ****       USBx_OUTEP(epnum)->DOEPTSIZ |= USB_OTG_DOEPTSIZ_XFRSIZ & (ep->maxpacket * pktcnt);
 818:Drivers/STM32F4xx_HAL_Driver/Src/stm32f4xx_ll_usb.c ****     }
 819:Drivers/STM32F4xx_HAL_Driver/Src/stm32f4xx_ll_usb.c **** 
 820:Drivers/STM32F4xx_HAL_Driver/Src/stm32f4xx_ll_usb.c ****     if (dma == 1U)
 821:Drivers/STM32F4xx_HAL_Driver/Src/stm32f4xx_ll_usb.c ****     {
 822:Drivers/STM32F4xx_HAL_Driver/Src/stm32f4xx_ll_usb.c ****       if ((uint32_t)ep->xfer_buff != 0U)
 823:Drivers/STM32F4xx_HAL_Driver/Src/stm32f4xx_ll_usb.c ****       {
 824:Drivers/STM32F4xx_HAL_Driver/Src/stm32f4xx_ll_usb.c ****         USBx_OUTEP(epnum)->DOEPDMA = (uint32_t)(ep->xfer_buff);
 825:Drivers/STM32F4xx_HAL_Driver/Src/stm32f4xx_ll_usb.c ****       }
 826:Drivers/STM32F4xx_HAL_Driver/Src/stm32f4xx_ll_usb.c ****     }
 827:Drivers/STM32F4xx_HAL_Driver/Src/stm32f4xx_ll_usb.c **** 
 828:Drivers/STM32F4xx_HAL_Driver/Src/stm32f4xx_ll_usb.c ****     if (ep->type == EP_TYPE_ISOC)
 829:Drivers/STM32F4xx_HAL_Driver/Src/stm32f4xx_ll_usb.c ****     {
 830:Drivers/STM32F4xx_HAL_Driver/Src/stm32f4xx_ll_usb.c ****       if ((USBx_DEVICE->DSTS & (1U << 8)) == 0U)
ARM GAS  C:\Users\User\AppData\Local\Temp\ccbub1mW.s 			page 16


 831:Drivers/STM32F4xx_HAL_Driver/Src/stm32f4xx_ll_usb.c ****       {
 832:Drivers/STM32F4xx_HAL_Driver/Src/stm32f4xx_ll_usb.c ****         USBx_OUTEP(epnum)->DOEPCTL |= USB_OTG_DOEPCTL_SODDFRM;
 833:Drivers/STM32F4xx_HAL_Driver/Src/stm32f4xx_ll_usb.c ****       }
 834:Drivers/STM32F4xx_HAL_Driver/Src/stm32f4xx_ll_usb.c ****       else
 835:Drivers/STM32F4xx_HAL_Driver/Src/stm32f4xx_ll_usb.c ****       {
 836:Drivers/STM32F4xx_HAL_Driver/Src/stm32f4xx_ll_usb.c ****         USBx_OUTEP(epnum)->DOEPCTL |= USB_OTG_DOEPCTL_SD0PID_SEVNFRM;
 837:Drivers/STM32F4xx_HAL_Driver/Src/stm32f4xx_ll_usb.c ****       }
 838:Drivers/STM32F4xx_HAL_Driver/Src/stm32f4xx_ll_usb.c ****     }
 839:Drivers/STM32F4xx_HAL_Driver/Src/stm32f4xx_ll_usb.c ****     /* EP enable */
 840:Drivers/STM32F4xx_HAL_Driver/Src/stm32f4xx_ll_usb.c ****     USBx_OUTEP(epnum)->DOEPCTL |= (USB_OTG_DOEPCTL_CNAK | USB_OTG_DOEPCTL_EPENA);
 841:Drivers/STM32F4xx_HAL_Driver/Src/stm32f4xx_ll_usb.c ****   }
 842:Drivers/STM32F4xx_HAL_Driver/Src/stm32f4xx_ll_usb.c **** 
 843:Drivers/STM32F4xx_HAL_Driver/Src/stm32f4xx_ll_usb.c ****   return HAL_OK;
 844:Drivers/STM32F4xx_HAL_Driver/Src/stm32f4xx_ll_usb.c **** }
 845:Drivers/STM32F4xx_HAL_Driver/Src/stm32f4xx_ll_usb.c **** 
 846:Drivers/STM32F4xx_HAL_Driver/Src/stm32f4xx_ll_usb.c **** /**
 847:Drivers/STM32F4xx_HAL_Driver/Src/stm32f4xx_ll_usb.c ****   * @brief  USB_EP0StartXfer : setup and starts a transfer over the EP  0
 848:Drivers/STM32F4xx_HAL_Driver/Src/stm32f4xx_ll_usb.c ****   * @param  USBx  Selected device
 849:Drivers/STM32F4xx_HAL_Driver/Src/stm32f4xx_ll_usb.c ****   * @param  ep pointer to endpoint structure
 850:Drivers/STM32F4xx_HAL_Driver/Src/stm32f4xx_ll_usb.c ****   * @param  dma USB dma enabled or disabled
 851:Drivers/STM32F4xx_HAL_Driver/Src/stm32f4xx_ll_usb.c ****   *          This parameter can be one of these values:
 852:Drivers/STM32F4xx_HAL_Driver/Src/stm32f4xx_ll_usb.c ****   *           0 : DMA feature not used
 853:Drivers/STM32F4xx_HAL_Driver/Src/stm32f4xx_ll_usb.c ****   *           1 : DMA feature used
 854:Drivers/STM32F4xx_HAL_Driver/Src/stm32f4xx_ll_usb.c ****   * @retval HAL status
 855:Drivers/STM32F4xx_HAL_Driver/Src/stm32f4xx_ll_usb.c ****   */
 856:Drivers/STM32F4xx_HAL_Driver/Src/stm32f4xx_ll_usb.c **** HAL_StatusTypeDef USB_EP0StartXfer(USB_OTG_GlobalTypeDef *USBx, USB_OTG_EPTypeDef *ep, uint8_t dma)
 857:Drivers/STM32F4xx_HAL_Driver/Src/stm32f4xx_ll_usb.c **** {
 858:Drivers/STM32F4xx_HAL_Driver/Src/stm32f4xx_ll_usb.c ****   uint32_t USBx_BASE = (uint32_t)USBx;
 859:Drivers/STM32F4xx_HAL_Driver/Src/stm32f4xx_ll_usb.c ****   uint32_t epnum = (uint32_t)ep->num;
 860:Drivers/STM32F4xx_HAL_Driver/Src/stm32f4xx_ll_usb.c **** 
 861:Drivers/STM32F4xx_HAL_Driver/Src/stm32f4xx_ll_usb.c ****   /* IN endpoint */
 862:Drivers/STM32F4xx_HAL_Driver/Src/stm32f4xx_ll_usb.c ****   if (ep->is_in == 1U)
 863:Drivers/STM32F4xx_HAL_Driver/Src/stm32f4xx_ll_usb.c ****   {
 864:Drivers/STM32F4xx_HAL_Driver/Src/stm32f4xx_ll_usb.c ****     /* Zero Length Packet? */
 865:Drivers/STM32F4xx_HAL_Driver/Src/stm32f4xx_ll_usb.c ****     if (ep->xfer_len == 0U)
 866:Drivers/STM32F4xx_HAL_Driver/Src/stm32f4xx_ll_usb.c ****     {
 867:Drivers/STM32F4xx_HAL_Driver/Src/stm32f4xx_ll_usb.c ****       USBx_INEP(epnum)->DIEPTSIZ &= ~(USB_OTG_DIEPTSIZ_PKTCNT);
 868:Drivers/STM32F4xx_HAL_Driver/Src/stm32f4xx_ll_usb.c ****       USBx_INEP(epnum)->DIEPTSIZ |= (USB_OTG_DIEPTSIZ_PKTCNT & (1U << 19));
 869:Drivers/STM32F4xx_HAL_Driver/Src/stm32f4xx_ll_usb.c ****       USBx_INEP(epnum)->DIEPTSIZ &= ~(USB_OTG_DIEPTSIZ_XFRSIZ);
 870:Drivers/STM32F4xx_HAL_Driver/Src/stm32f4xx_ll_usb.c ****     }
 871:Drivers/STM32F4xx_HAL_Driver/Src/stm32f4xx_ll_usb.c ****     else
 872:Drivers/STM32F4xx_HAL_Driver/Src/stm32f4xx_ll_usb.c ****     {
 873:Drivers/STM32F4xx_HAL_Driver/Src/stm32f4xx_ll_usb.c ****       /* Program the transfer size and packet count
 874:Drivers/STM32F4xx_HAL_Driver/Src/stm32f4xx_ll_usb.c ****       * as follows: xfersize = N * maxpacket +
 875:Drivers/STM32F4xx_HAL_Driver/Src/stm32f4xx_ll_usb.c ****       * short_packet pktcnt = N + (short_packet
 876:Drivers/STM32F4xx_HAL_Driver/Src/stm32f4xx_ll_usb.c ****       * exist ? 1 : 0)
 877:Drivers/STM32F4xx_HAL_Driver/Src/stm32f4xx_ll_usb.c ****       */
 878:Drivers/STM32F4xx_HAL_Driver/Src/stm32f4xx_ll_usb.c ****       USBx_INEP(epnum)->DIEPTSIZ &= ~(USB_OTG_DIEPTSIZ_XFRSIZ);
 879:Drivers/STM32F4xx_HAL_Driver/Src/stm32f4xx_ll_usb.c ****       USBx_INEP(epnum)->DIEPTSIZ &= ~(USB_OTG_DIEPTSIZ_PKTCNT);
 880:Drivers/STM32F4xx_HAL_Driver/Src/stm32f4xx_ll_usb.c **** 
 881:Drivers/STM32F4xx_HAL_Driver/Src/stm32f4xx_ll_usb.c ****       if (ep->xfer_len > ep->maxpacket)
 882:Drivers/STM32F4xx_HAL_Driver/Src/stm32f4xx_ll_usb.c ****       {
 883:Drivers/STM32F4xx_HAL_Driver/Src/stm32f4xx_ll_usb.c ****         ep->xfer_len = ep->maxpacket;
 884:Drivers/STM32F4xx_HAL_Driver/Src/stm32f4xx_ll_usb.c ****       }
 885:Drivers/STM32F4xx_HAL_Driver/Src/stm32f4xx_ll_usb.c ****       USBx_INEP(epnum)->DIEPTSIZ |= (USB_OTG_DIEPTSIZ_PKTCNT & (1U << 19));
 886:Drivers/STM32F4xx_HAL_Driver/Src/stm32f4xx_ll_usb.c ****       USBx_INEP(epnum)->DIEPTSIZ |= (USB_OTG_DIEPTSIZ_XFRSIZ & ep->xfer_len);
 887:Drivers/STM32F4xx_HAL_Driver/Src/stm32f4xx_ll_usb.c ****     }
ARM GAS  C:\Users\User\AppData\Local\Temp\ccbub1mW.s 			page 17


 888:Drivers/STM32F4xx_HAL_Driver/Src/stm32f4xx_ll_usb.c **** 
 889:Drivers/STM32F4xx_HAL_Driver/Src/stm32f4xx_ll_usb.c ****     if (dma == 1U)
 890:Drivers/STM32F4xx_HAL_Driver/Src/stm32f4xx_ll_usb.c ****     {
 891:Drivers/STM32F4xx_HAL_Driver/Src/stm32f4xx_ll_usb.c ****       if ((uint32_t)ep->dma_addr != 0U)
 892:Drivers/STM32F4xx_HAL_Driver/Src/stm32f4xx_ll_usb.c ****       {
 893:Drivers/STM32F4xx_HAL_Driver/Src/stm32f4xx_ll_usb.c ****         USBx_INEP(epnum)->DIEPDMA = (uint32_t)(ep->dma_addr);
 894:Drivers/STM32F4xx_HAL_Driver/Src/stm32f4xx_ll_usb.c ****       }
 895:Drivers/STM32F4xx_HAL_Driver/Src/stm32f4xx_ll_usb.c **** 
 896:Drivers/STM32F4xx_HAL_Driver/Src/stm32f4xx_ll_usb.c ****       /* EP enable, IN data in FIFO */
 897:Drivers/STM32F4xx_HAL_Driver/Src/stm32f4xx_ll_usb.c ****       USBx_INEP(epnum)->DIEPCTL |= (USB_OTG_DIEPCTL_CNAK | USB_OTG_DIEPCTL_EPENA);
 898:Drivers/STM32F4xx_HAL_Driver/Src/stm32f4xx_ll_usb.c ****     }
 899:Drivers/STM32F4xx_HAL_Driver/Src/stm32f4xx_ll_usb.c ****     else
 900:Drivers/STM32F4xx_HAL_Driver/Src/stm32f4xx_ll_usb.c ****     {
 901:Drivers/STM32F4xx_HAL_Driver/Src/stm32f4xx_ll_usb.c ****       /* EP enable, IN data in FIFO */
 902:Drivers/STM32F4xx_HAL_Driver/Src/stm32f4xx_ll_usb.c ****       USBx_INEP(epnum)->DIEPCTL |= (USB_OTG_DIEPCTL_CNAK | USB_OTG_DIEPCTL_EPENA);
 903:Drivers/STM32F4xx_HAL_Driver/Src/stm32f4xx_ll_usb.c **** 
 904:Drivers/STM32F4xx_HAL_Driver/Src/stm32f4xx_ll_usb.c ****       /* Enable the Tx FIFO Empty Interrupt for this EP */
 905:Drivers/STM32F4xx_HAL_Driver/Src/stm32f4xx_ll_usb.c ****       if (ep->xfer_len > 0U)
 906:Drivers/STM32F4xx_HAL_Driver/Src/stm32f4xx_ll_usb.c ****       {
 907:Drivers/STM32F4xx_HAL_Driver/Src/stm32f4xx_ll_usb.c ****         USBx_DEVICE->DIEPEMPMSK |= 1UL << (ep->num & EP_ADDR_MSK);
 908:Drivers/STM32F4xx_HAL_Driver/Src/stm32f4xx_ll_usb.c ****       }
 909:Drivers/STM32F4xx_HAL_Driver/Src/stm32f4xx_ll_usb.c ****     }
 910:Drivers/STM32F4xx_HAL_Driver/Src/stm32f4xx_ll_usb.c ****   }
 911:Drivers/STM32F4xx_HAL_Driver/Src/stm32f4xx_ll_usb.c ****   else /* OUT endpoint */
 912:Drivers/STM32F4xx_HAL_Driver/Src/stm32f4xx_ll_usb.c ****   {
 913:Drivers/STM32F4xx_HAL_Driver/Src/stm32f4xx_ll_usb.c ****     /* Program the transfer size and packet count as follows:
 914:Drivers/STM32F4xx_HAL_Driver/Src/stm32f4xx_ll_usb.c ****     * pktcnt = N
 915:Drivers/STM32F4xx_HAL_Driver/Src/stm32f4xx_ll_usb.c ****     * xfersize = N * maxpacket
 916:Drivers/STM32F4xx_HAL_Driver/Src/stm32f4xx_ll_usb.c ****     */
 917:Drivers/STM32F4xx_HAL_Driver/Src/stm32f4xx_ll_usb.c ****     USBx_OUTEP(epnum)->DOEPTSIZ &= ~(USB_OTG_DOEPTSIZ_XFRSIZ);
 918:Drivers/STM32F4xx_HAL_Driver/Src/stm32f4xx_ll_usb.c ****     USBx_OUTEP(epnum)->DOEPTSIZ &= ~(USB_OTG_DOEPTSIZ_PKTCNT);
 919:Drivers/STM32F4xx_HAL_Driver/Src/stm32f4xx_ll_usb.c **** 
 920:Drivers/STM32F4xx_HAL_Driver/Src/stm32f4xx_ll_usb.c ****     if (ep->xfer_len > 0U)
 921:Drivers/STM32F4xx_HAL_Driver/Src/stm32f4xx_ll_usb.c ****     {
 922:Drivers/STM32F4xx_HAL_Driver/Src/stm32f4xx_ll_usb.c ****       ep->xfer_len = ep->maxpacket;
 923:Drivers/STM32F4xx_HAL_Driver/Src/stm32f4xx_ll_usb.c ****     }
 924:Drivers/STM32F4xx_HAL_Driver/Src/stm32f4xx_ll_usb.c **** 
 925:Drivers/STM32F4xx_HAL_Driver/Src/stm32f4xx_ll_usb.c ****     USBx_OUTEP(epnum)->DOEPTSIZ |= (USB_OTG_DOEPTSIZ_PKTCNT & (1U << 19));
 926:Drivers/STM32F4xx_HAL_Driver/Src/stm32f4xx_ll_usb.c ****     USBx_OUTEP(epnum)->DOEPTSIZ |= (USB_OTG_DOEPTSIZ_XFRSIZ & (ep->maxpacket));
 927:Drivers/STM32F4xx_HAL_Driver/Src/stm32f4xx_ll_usb.c **** 
 928:Drivers/STM32F4xx_HAL_Driver/Src/stm32f4xx_ll_usb.c ****     if (dma == 1U)
 929:Drivers/STM32F4xx_HAL_Driver/Src/stm32f4xx_ll_usb.c ****     {
 930:Drivers/STM32F4xx_HAL_Driver/Src/stm32f4xx_ll_usb.c ****       if ((uint32_t)ep->xfer_buff != 0U)
 931:Drivers/STM32F4xx_HAL_Driver/Src/stm32f4xx_ll_usb.c ****       {
 932:Drivers/STM32F4xx_HAL_Driver/Src/stm32f4xx_ll_usb.c ****         USBx_OUTEP(epnum)->DOEPDMA = (uint32_t)(ep->xfer_buff);
 933:Drivers/STM32F4xx_HAL_Driver/Src/stm32f4xx_ll_usb.c ****       }
 934:Drivers/STM32F4xx_HAL_Driver/Src/stm32f4xx_ll_usb.c ****     }
 935:Drivers/STM32F4xx_HAL_Driver/Src/stm32f4xx_ll_usb.c **** 
 936:Drivers/STM32F4xx_HAL_Driver/Src/stm32f4xx_ll_usb.c ****     /* EP enable */
 937:Drivers/STM32F4xx_HAL_Driver/Src/stm32f4xx_ll_usb.c ****     USBx_OUTEP(epnum)->DOEPCTL |= (USB_OTG_DOEPCTL_CNAK | USB_OTG_DOEPCTL_EPENA);
 938:Drivers/STM32F4xx_HAL_Driver/Src/stm32f4xx_ll_usb.c ****   }
 939:Drivers/STM32F4xx_HAL_Driver/Src/stm32f4xx_ll_usb.c **** 
 940:Drivers/STM32F4xx_HAL_Driver/Src/stm32f4xx_ll_usb.c ****   return HAL_OK;
 941:Drivers/STM32F4xx_HAL_Driver/Src/stm32f4xx_ll_usb.c **** }
 942:Drivers/STM32F4xx_HAL_Driver/Src/stm32f4xx_ll_usb.c **** 
 943:Drivers/STM32F4xx_HAL_Driver/Src/stm32f4xx_ll_usb.c **** /**
 944:Drivers/STM32F4xx_HAL_Driver/Src/stm32f4xx_ll_usb.c ****   * @brief  USB_WritePacket : Writes a packet into the Tx FIFO associated
ARM GAS  C:\Users\User\AppData\Local\Temp\ccbub1mW.s 			page 18


 945:Drivers/STM32F4xx_HAL_Driver/Src/stm32f4xx_ll_usb.c ****   *         with the EP/channel
 946:Drivers/STM32F4xx_HAL_Driver/Src/stm32f4xx_ll_usb.c ****   * @param  USBx  Selected device
 947:Drivers/STM32F4xx_HAL_Driver/Src/stm32f4xx_ll_usb.c ****   * @param  src   pointer to source buffer
 948:Drivers/STM32F4xx_HAL_Driver/Src/stm32f4xx_ll_usb.c ****   * @param  ch_ep_num  endpoint or host channel number
 949:Drivers/STM32F4xx_HAL_Driver/Src/stm32f4xx_ll_usb.c ****   * @param  len  Number of bytes to write
 950:Drivers/STM32F4xx_HAL_Driver/Src/stm32f4xx_ll_usb.c ****   * @param  dma USB dma enabled or disabled
 951:Drivers/STM32F4xx_HAL_Driver/Src/stm32f4xx_ll_usb.c ****   *          This parameter can be one of these values:
 952:Drivers/STM32F4xx_HAL_Driver/Src/stm32f4xx_ll_usb.c ****   *           0 : DMA feature not used
 953:Drivers/STM32F4xx_HAL_Driver/Src/stm32f4xx_ll_usb.c ****   *           1 : DMA feature used
 954:Drivers/STM32F4xx_HAL_Driver/Src/stm32f4xx_ll_usb.c ****   * @retval HAL status
 955:Drivers/STM32F4xx_HAL_Driver/Src/stm32f4xx_ll_usb.c ****   */
 956:Drivers/STM32F4xx_HAL_Driver/Src/stm32f4xx_ll_usb.c **** HAL_StatusTypeDef USB_WritePacket(USB_OTG_GlobalTypeDef *USBx, uint8_t *src,
 957:Drivers/STM32F4xx_HAL_Driver/Src/stm32f4xx_ll_usb.c ****                                   uint8_t ch_ep_num, uint16_t len, uint8_t dma)
 958:Drivers/STM32F4xx_HAL_Driver/Src/stm32f4xx_ll_usb.c **** {
 959:Drivers/STM32F4xx_HAL_Driver/Src/stm32f4xx_ll_usb.c ****   uint32_t USBx_BASE = (uint32_t)USBx;
 960:Drivers/STM32F4xx_HAL_Driver/Src/stm32f4xx_ll_usb.c ****   uint32_t *pSrc = (uint32_t *)src;
 961:Drivers/STM32F4xx_HAL_Driver/Src/stm32f4xx_ll_usb.c ****   uint32_t count32b, i;
 962:Drivers/STM32F4xx_HAL_Driver/Src/stm32f4xx_ll_usb.c **** 
 963:Drivers/STM32F4xx_HAL_Driver/Src/stm32f4xx_ll_usb.c ****   if (dma == 0U)
 964:Drivers/STM32F4xx_HAL_Driver/Src/stm32f4xx_ll_usb.c ****   {
 965:Drivers/STM32F4xx_HAL_Driver/Src/stm32f4xx_ll_usb.c ****     count32b = ((uint32_t)len + 3U) / 4U;
 966:Drivers/STM32F4xx_HAL_Driver/Src/stm32f4xx_ll_usb.c ****     for (i = 0U; i < count32b; i++)
 967:Drivers/STM32F4xx_HAL_Driver/Src/stm32f4xx_ll_usb.c ****     {
 968:Drivers/STM32F4xx_HAL_Driver/Src/stm32f4xx_ll_usb.c ****       USBx_DFIFO((uint32_t)ch_ep_num) = __UNALIGNED_UINT32_READ(pSrc);
 969:Drivers/STM32F4xx_HAL_Driver/Src/stm32f4xx_ll_usb.c ****       pSrc++;
 970:Drivers/STM32F4xx_HAL_Driver/Src/stm32f4xx_ll_usb.c ****     }
 971:Drivers/STM32F4xx_HAL_Driver/Src/stm32f4xx_ll_usb.c ****   }
 972:Drivers/STM32F4xx_HAL_Driver/Src/stm32f4xx_ll_usb.c **** 
 973:Drivers/STM32F4xx_HAL_Driver/Src/stm32f4xx_ll_usb.c ****   return HAL_OK;
 974:Drivers/STM32F4xx_HAL_Driver/Src/stm32f4xx_ll_usb.c **** }
 975:Drivers/STM32F4xx_HAL_Driver/Src/stm32f4xx_ll_usb.c **** 
 976:Drivers/STM32F4xx_HAL_Driver/Src/stm32f4xx_ll_usb.c **** /**
 977:Drivers/STM32F4xx_HAL_Driver/Src/stm32f4xx_ll_usb.c ****   * @brief  USB_ReadPacket : read a packet from the RX FIFO
 978:Drivers/STM32F4xx_HAL_Driver/Src/stm32f4xx_ll_usb.c ****   * @param  USBx  Selected device
 979:Drivers/STM32F4xx_HAL_Driver/Src/stm32f4xx_ll_usb.c ****   * @param  dest  source pointer
 980:Drivers/STM32F4xx_HAL_Driver/Src/stm32f4xx_ll_usb.c ****   * @param  len  Number of bytes to read
 981:Drivers/STM32F4xx_HAL_Driver/Src/stm32f4xx_ll_usb.c ****   * @retval pointer to destination buffer
 982:Drivers/STM32F4xx_HAL_Driver/Src/stm32f4xx_ll_usb.c ****   */
 983:Drivers/STM32F4xx_HAL_Driver/Src/stm32f4xx_ll_usb.c **** void *USB_ReadPacket(USB_OTG_GlobalTypeDef *USBx, uint8_t *dest, uint16_t len)
 984:Drivers/STM32F4xx_HAL_Driver/Src/stm32f4xx_ll_usb.c **** {
 985:Drivers/STM32F4xx_HAL_Driver/Src/stm32f4xx_ll_usb.c ****   uint32_t USBx_BASE = (uint32_t)USBx;
 986:Drivers/STM32F4xx_HAL_Driver/Src/stm32f4xx_ll_usb.c ****   uint32_t *pDest = (uint32_t *)dest;
 987:Drivers/STM32F4xx_HAL_Driver/Src/stm32f4xx_ll_usb.c ****   uint32_t i;
 988:Drivers/STM32F4xx_HAL_Driver/Src/stm32f4xx_ll_usb.c ****   uint32_t count32b = ((uint32_t)len + 3U) / 4U;
 989:Drivers/STM32F4xx_HAL_Driver/Src/stm32f4xx_ll_usb.c **** 
 990:Drivers/STM32F4xx_HAL_Driver/Src/stm32f4xx_ll_usb.c ****   for (i = 0U; i < count32b; i++)
 991:Drivers/STM32F4xx_HAL_Driver/Src/stm32f4xx_ll_usb.c ****   {
 992:Drivers/STM32F4xx_HAL_Driver/Src/stm32f4xx_ll_usb.c ****     __UNALIGNED_UINT32_WRITE(pDest, USBx_DFIFO(0U));
 993:Drivers/STM32F4xx_HAL_Driver/Src/stm32f4xx_ll_usb.c ****     pDest++;
 994:Drivers/STM32F4xx_HAL_Driver/Src/stm32f4xx_ll_usb.c ****   }
 995:Drivers/STM32F4xx_HAL_Driver/Src/stm32f4xx_ll_usb.c **** 
 996:Drivers/STM32F4xx_HAL_Driver/Src/stm32f4xx_ll_usb.c ****   return ((void *)pDest);
 997:Drivers/STM32F4xx_HAL_Driver/Src/stm32f4xx_ll_usb.c **** }
 998:Drivers/STM32F4xx_HAL_Driver/Src/stm32f4xx_ll_usb.c **** 
 999:Drivers/STM32F4xx_HAL_Driver/Src/stm32f4xx_ll_usb.c **** /**
1000:Drivers/STM32F4xx_HAL_Driver/Src/stm32f4xx_ll_usb.c ****   * @brief  USB_EPSetStall : set a stall condition over an EP
1001:Drivers/STM32F4xx_HAL_Driver/Src/stm32f4xx_ll_usb.c ****   * @param  USBx  Selected device
ARM GAS  C:\Users\User\AppData\Local\Temp\ccbub1mW.s 			page 19


1002:Drivers/STM32F4xx_HAL_Driver/Src/stm32f4xx_ll_usb.c ****   * @param  ep pointer to endpoint structure
1003:Drivers/STM32F4xx_HAL_Driver/Src/stm32f4xx_ll_usb.c ****   * @retval HAL status
1004:Drivers/STM32F4xx_HAL_Driver/Src/stm32f4xx_ll_usb.c ****   */
1005:Drivers/STM32F4xx_HAL_Driver/Src/stm32f4xx_ll_usb.c **** HAL_StatusTypeDef USB_EPSetStall(USB_OTG_GlobalTypeDef *USBx, USB_OTG_EPTypeDef *ep)
1006:Drivers/STM32F4xx_HAL_Driver/Src/stm32f4xx_ll_usb.c **** {
1007:Drivers/STM32F4xx_HAL_Driver/Src/stm32f4xx_ll_usb.c ****   uint32_t USBx_BASE = (uint32_t)USBx;
1008:Drivers/STM32F4xx_HAL_Driver/Src/stm32f4xx_ll_usb.c ****   uint32_t epnum = (uint32_t)ep->num;
1009:Drivers/STM32F4xx_HAL_Driver/Src/stm32f4xx_ll_usb.c **** 
1010:Drivers/STM32F4xx_HAL_Driver/Src/stm32f4xx_ll_usb.c ****   if (ep->is_in == 1U)
1011:Drivers/STM32F4xx_HAL_Driver/Src/stm32f4xx_ll_usb.c ****   {
1012:Drivers/STM32F4xx_HAL_Driver/Src/stm32f4xx_ll_usb.c ****     if (((USBx_INEP(epnum)->DIEPCTL & USB_OTG_DIEPCTL_EPENA) == 0U) && (epnum != 0U))
1013:Drivers/STM32F4xx_HAL_Driver/Src/stm32f4xx_ll_usb.c ****     {
1014:Drivers/STM32F4xx_HAL_Driver/Src/stm32f4xx_ll_usb.c ****       USBx_INEP(epnum)->DIEPCTL &= ~(USB_OTG_DIEPCTL_EPDIS);
1015:Drivers/STM32F4xx_HAL_Driver/Src/stm32f4xx_ll_usb.c ****     }
1016:Drivers/STM32F4xx_HAL_Driver/Src/stm32f4xx_ll_usb.c ****     USBx_INEP(epnum)->DIEPCTL |= USB_OTG_DIEPCTL_STALL;
1017:Drivers/STM32F4xx_HAL_Driver/Src/stm32f4xx_ll_usb.c ****   }
1018:Drivers/STM32F4xx_HAL_Driver/Src/stm32f4xx_ll_usb.c ****   else
1019:Drivers/STM32F4xx_HAL_Driver/Src/stm32f4xx_ll_usb.c ****   {
1020:Drivers/STM32F4xx_HAL_Driver/Src/stm32f4xx_ll_usb.c ****     if (((USBx_OUTEP(epnum)->DOEPCTL & USB_OTG_DOEPCTL_EPENA) == 0U) && (epnum != 0U))
1021:Drivers/STM32F4xx_HAL_Driver/Src/stm32f4xx_ll_usb.c ****     {
1022:Drivers/STM32F4xx_HAL_Driver/Src/stm32f4xx_ll_usb.c ****       USBx_OUTEP(epnum)->DOEPCTL &= ~(USB_OTG_DOEPCTL_EPDIS);
1023:Drivers/STM32F4xx_HAL_Driver/Src/stm32f4xx_ll_usb.c ****     }
1024:Drivers/STM32F4xx_HAL_Driver/Src/stm32f4xx_ll_usb.c ****     USBx_OUTEP(epnum)->DOEPCTL |= USB_OTG_DOEPCTL_STALL;
1025:Drivers/STM32F4xx_HAL_Driver/Src/stm32f4xx_ll_usb.c ****   }
1026:Drivers/STM32F4xx_HAL_Driver/Src/stm32f4xx_ll_usb.c **** 
1027:Drivers/STM32F4xx_HAL_Driver/Src/stm32f4xx_ll_usb.c ****   return HAL_OK;
1028:Drivers/STM32F4xx_HAL_Driver/Src/stm32f4xx_ll_usb.c **** }
1029:Drivers/STM32F4xx_HAL_Driver/Src/stm32f4xx_ll_usb.c **** 
1030:Drivers/STM32F4xx_HAL_Driver/Src/stm32f4xx_ll_usb.c **** /**
1031:Drivers/STM32F4xx_HAL_Driver/Src/stm32f4xx_ll_usb.c ****   * @brief  USB_EPClearStall : Clear a stall condition over an EP
1032:Drivers/STM32F4xx_HAL_Driver/Src/stm32f4xx_ll_usb.c ****   * @param  USBx  Selected device
1033:Drivers/STM32F4xx_HAL_Driver/Src/stm32f4xx_ll_usb.c ****   * @param  ep pointer to endpoint structure
1034:Drivers/STM32F4xx_HAL_Driver/Src/stm32f4xx_ll_usb.c ****   * @retval HAL status
1035:Drivers/STM32F4xx_HAL_Driver/Src/stm32f4xx_ll_usb.c ****   */
1036:Drivers/STM32F4xx_HAL_Driver/Src/stm32f4xx_ll_usb.c **** HAL_StatusTypeDef USB_EPClearStall(USB_OTG_GlobalTypeDef *USBx, USB_OTG_EPTypeDef *ep)
1037:Drivers/STM32F4xx_HAL_Driver/Src/stm32f4xx_ll_usb.c **** {
1038:Drivers/STM32F4xx_HAL_Driver/Src/stm32f4xx_ll_usb.c ****   uint32_t USBx_BASE = (uint32_t)USBx;
1039:Drivers/STM32F4xx_HAL_Driver/Src/stm32f4xx_ll_usb.c ****   uint32_t epnum = (uint32_t)ep->num;
1040:Drivers/STM32F4xx_HAL_Driver/Src/stm32f4xx_ll_usb.c **** 
1041:Drivers/STM32F4xx_HAL_Driver/Src/stm32f4xx_ll_usb.c ****   if (ep->is_in == 1U)
1042:Drivers/STM32F4xx_HAL_Driver/Src/stm32f4xx_ll_usb.c ****   {
1043:Drivers/STM32F4xx_HAL_Driver/Src/stm32f4xx_ll_usb.c ****     USBx_INEP(epnum)->DIEPCTL &= ~USB_OTG_DIEPCTL_STALL;
1044:Drivers/STM32F4xx_HAL_Driver/Src/stm32f4xx_ll_usb.c ****     if ((ep->type == EP_TYPE_INTR) || (ep->type == EP_TYPE_BULK))
1045:Drivers/STM32F4xx_HAL_Driver/Src/stm32f4xx_ll_usb.c ****     {
1046:Drivers/STM32F4xx_HAL_Driver/Src/stm32f4xx_ll_usb.c ****       USBx_INEP(epnum)->DIEPCTL |= USB_OTG_DIEPCTL_SD0PID_SEVNFRM; /* DATA0 */
1047:Drivers/STM32F4xx_HAL_Driver/Src/stm32f4xx_ll_usb.c ****     }
1048:Drivers/STM32F4xx_HAL_Driver/Src/stm32f4xx_ll_usb.c ****   }
1049:Drivers/STM32F4xx_HAL_Driver/Src/stm32f4xx_ll_usb.c ****   else
1050:Drivers/STM32F4xx_HAL_Driver/Src/stm32f4xx_ll_usb.c ****   {
1051:Drivers/STM32F4xx_HAL_Driver/Src/stm32f4xx_ll_usb.c ****     USBx_OUTEP(epnum)->DOEPCTL &= ~USB_OTG_DOEPCTL_STALL;
1052:Drivers/STM32F4xx_HAL_Driver/Src/stm32f4xx_ll_usb.c ****     if ((ep->type == EP_TYPE_INTR) || (ep->type == EP_TYPE_BULK))
1053:Drivers/STM32F4xx_HAL_Driver/Src/stm32f4xx_ll_usb.c ****     {
1054:Drivers/STM32F4xx_HAL_Driver/Src/stm32f4xx_ll_usb.c ****       USBx_OUTEP(epnum)->DOEPCTL |= USB_OTG_DOEPCTL_SD0PID_SEVNFRM; /* DATA0 */
1055:Drivers/STM32F4xx_HAL_Driver/Src/stm32f4xx_ll_usb.c ****     }
1056:Drivers/STM32F4xx_HAL_Driver/Src/stm32f4xx_ll_usb.c ****   }
1057:Drivers/STM32F4xx_HAL_Driver/Src/stm32f4xx_ll_usb.c ****   return HAL_OK;
1058:Drivers/STM32F4xx_HAL_Driver/Src/stm32f4xx_ll_usb.c **** }
ARM GAS  C:\Users\User\AppData\Local\Temp\ccbub1mW.s 			page 20


1059:Drivers/STM32F4xx_HAL_Driver/Src/stm32f4xx_ll_usb.c **** 
1060:Drivers/STM32F4xx_HAL_Driver/Src/stm32f4xx_ll_usb.c **** /**
1061:Drivers/STM32F4xx_HAL_Driver/Src/stm32f4xx_ll_usb.c ****   * @brief  USB_StopDevice : Stop the usb device mode
1062:Drivers/STM32F4xx_HAL_Driver/Src/stm32f4xx_ll_usb.c ****   * @param  USBx  Selected device
1063:Drivers/STM32F4xx_HAL_Driver/Src/stm32f4xx_ll_usb.c ****   * @retval HAL status
1064:Drivers/STM32F4xx_HAL_Driver/Src/stm32f4xx_ll_usb.c ****   */
1065:Drivers/STM32F4xx_HAL_Driver/Src/stm32f4xx_ll_usb.c **** HAL_StatusTypeDef USB_StopDevice(USB_OTG_GlobalTypeDef *USBx)
1066:Drivers/STM32F4xx_HAL_Driver/Src/stm32f4xx_ll_usb.c **** {
1067:Drivers/STM32F4xx_HAL_Driver/Src/stm32f4xx_ll_usb.c ****   HAL_StatusTypeDef ret;
1068:Drivers/STM32F4xx_HAL_Driver/Src/stm32f4xx_ll_usb.c ****   uint32_t USBx_BASE = (uint32_t)USBx;
1069:Drivers/STM32F4xx_HAL_Driver/Src/stm32f4xx_ll_usb.c ****   uint32_t i;
1070:Drivers/STM32F4xx_HAL_Driver/Src/stm32f4xx_ll_usb.c **** 
1071:Drivers/STM32F4xx_HAL_Driver/Src/stm32f4xx_ll_usb.c ****   /* Clear Pending interrupt */
1072:Drivers/STM32F4xx_HAL_Driver/Src/stm32f4xx_ll_usb.c ****   for (i = 0U; i < 15U; i++)
1073:Drivers/STM32F4xx_HAL_Driver/Src/stm32f4xx_ll_usb.c ****   {
1074:Drivers/STM32F4xx_HAL_Driver/Src/stm32f4xx_ll_usb.c ****     USBx_INEP(i)->DIEPINT = 0xFB7FU;
1075:Drivers/STM32F4xx_HAL_Driver/Src/stm32f4xx_ll_usb.c ****     USBx_OUTEP(i)->DOEPINT = 0xFB7FU;
1076:Drivers/STM32F4xx_HAL_Driver/Src/stm32f4xx_ll_usb.c ****   }
1077:Drivers/STM32F4xx_HAL_Driver/Src/stm32f4xx_ll_usb.c **** 
1078:Drivers/STM32F4xx_HAL_Driver/Src/stm32f4xx_ll_usb.c ****   /* Clear interrupt masks */
1079:Drivers/STM32F4xx_HAL_Driver/Src/stm32f4xx_ll_usb.c ****   USBx_DEVICE->DIEPMSK  = 0U;
1080:Drivers/STM32F4xx_HAL_Driver/Src/stm32f4xx_ll_usb.c ****   USBx_DEVICE->DOEPMSK  = 0U;
1081:Drivers/STM32F4xx_HAL_Driver/Src/stm32f4xx_ll_usb.c ****   USBx_DEVICE->DAINTMSK = 0U;
1082:Drivers/STM32F4xx_HAL_Driver/Src/stm32f4xx_ll_usb.c **** 
1083:Drivers/STM32F4xx_HAL_Driver/Src/stm32f4xx_ll_usb.c ****   /* Flush the FIFO */
1084:Drivers/STM32F4xx_HAL_Driver/Src/stm32f4xx_ll_usb.c ****   ret = USB_FlushRxFifo(USBx);
1085:Drivers/STM32F4xx_HAL_Driver/Src/stm32f4xx_ll_usb.c ****   if (ret != HAL_OK)
1086:Drivers/STM32F4xx_HAL_Driver/Src/stm32f4xx_ll_usb.c ****   {
1087:Drivers/STM32F4xx_HAL_Driver/Src/stm32f4xx_ll_usb.c ****     return ret;
1088:Drivers/STM32F4xx_HAL_Driver/Src/stm32f4xx_ll_usb.c ****   }
1089:Drivers/STM32F4xx_HAL_Driver/Src/stm32f4xx_ll_usb.c **** 
1090:Drivers/STM32F4xx_HAL_Driver/Src/stm32f4xx_ll_usb.c ****   ret = USB_FlushTxFifo(USBx,  0x10U);
1091:Drivers/STM32F4xx_HAL_Driver/Src/stm32f4xx_ll_usb.c ****   if (ret != HAL_OK)
1092:Drivers/STM32F4xx_HAL_Driver/Src/stm32f4xx_ll_usb.c ****   {
1093:Drivers/STM32F4xx_HAL_Driver/Src/stm32f4xx_ll_usb.c ****     return ret;
1094:Drivers/STM32F4xx_HAL_Driver/Src/stm32f4xx_ll_usb.c ****   }
1095:Drivers/STM32F4xx_HAL_Driver/Src/stm32f4xx_ll_usb.c **** 
1096:Drivers/STM32F4xx_HAL_Driver/Src/stm32f4xx_ll_usb.c ****   return ret;
1097:Drivers/STM32F4xx_HAL_Driver/Src/stm32f4xx_ll_usb.c **** }
1098:Drivers/STM32F4xx_HAL_Driver/Src/stm32f4xx_ll_usb.c **** 
1099:Drivers/STM32F4xx_HAL_Driver/Src/stm32f4xx_ll_usb.c **** /**
1100:Drivers/STM32F4xx_HAL_Driver/Src/stm32f4xx_ll_usb.c ****   * @brief  USB_SetDevAddress : Stop the usb device mode
1101:Drivers/STM32F4xx_HAL_Driver/Src/stm32f4xx_ll_usb.c ****   * @param  USBx  Selected device
1102:Drivers/STM32F4xx_HAL_Driver/Src/stm32f4xx_ll_usb.c ****   * @param  address  new device address to be assigned
1103:Drivers/STM32F4xx_HAL_Driver/Src/stm32f4xx_ll_usb.c ****   *          This parameter can be a value from 0 to 255
1104:Drivers/STM32F4xx_HAL_Driver/Src/stm32f4xx_ll_usb.c ****   * @retval HAL status
1105:Drivers/STM32F4xx_HAL_Driver/Src/stm32f4xx_ll_usb.c ****   */
1106:Drivers/STM32F4xx_HAL_Driver/Src/stm32f4xx_ll_usb.c **** HAL_StatusTypeDef  USB_SetDevAddress(USB_OTG_GlobalTypeDef *USBx, uint8_t address)
1107:Drivers/STM32F4xx_HAL_Driver/Src/stm32f4xx_ll_usb.c **** {
1108:Drivers/STM32F4xx_HAL_Driver/Src/stm32f4xx_ll_usb.c ****   uint32_t USBx_BASE = (uint32_t)USBx;
1109:Drivers/STM32F4xx_HAL_Driver/Src/stm32f4xx_ll_usb.c **** 
1110:Drivers/STM32F4xx_HAL_Driver/Src/stm32f4xx_ll_usb.c ****   USBx_DEVICE->DCFG &= ~(USB_OTG_DCFG_DAD);
1111:Drivers/STM32F4xx_HAL_Driver/Src/stm32f4xx_ll_usb.c ****   USBx_DEVICE->DCFG |= ((uint32_t)address << 4) & USB_OTG_DCFG_DAD;
1112:Drivers/STM32F4xx_HAL_Driver/Src/stm32f4xx_ll_usb.c **** 
1113:Drivers/STM32F4xx_HAL_Driver/Src/stm32f4xx_ll_usb.c ****   return HAL_OK;
1114:Drivers/STM32F4xx_HAL_Driver/Src/stm32f4xx_ll_usb.c **** }
1115:Drivers/STM32F4xx_HAL_Driver/Src/stm32f4xx_ll_usb.c **** 
ARM GAS  C:\Users\User\AppData\Local\Temp\ccbub1mW.s 			page 21


1116:Drivers/STM32F4xx_HAL_Driver/Src/stm32f4xx_ll_usb.c **** /**
1117:Drivers/STM32F4xx_HAL_Driver/Src/stm32f4xx_ll_usb.c ****   * @brief  USB_DevConnect : Connect the USB device by enabling Rpu
1118:Drivers/STM32F4xx_HAL_Driver/Src/stm32f4xx_ll_usb.c ****   * @param  USBx  Selected device
1119:Drivers/STM32F4xx_HAL_Driver/Src/stm32f4xx_ll_usb.c ****   * @retval HAL status
1120:Drivers/STM32F4xx_HAL_Driver/Src/stm32f4xx_ll_usb.c ****   */
1121:Drivers/STM32F4xx_HAL_Driver/Src/stm32f4xx_ll_usb.c **** HAL_StatusTypeDef  USB_DevConnect(USB_OTG_GlobalTypeDef *USBx)
1122:Drivers/STM32F4xx_HAL_Driver/Src/stm32f4xx_ll_usb.c **** {
1123:Drivers/STM32F4xx_HAL_Driver/Src/stm32f4xx_ll_usb.c ****   uint32_t USBx_BASE = (uint32_t)USBx;
1124:Drivers/STM32F4xx_HAL_Driver/Src/stm32f4xx_ll_usb.c **** 
1125:Drivers/STM32F4xx_HAL_Driver/Src/stm32f4xx_ll_usb.c ****   /* In case phy is stopped, ensure to ungate and restore the phy CLK */
1126:Drivers/STM32F4xx_HAL_Driver/Src/stm32f4xx_ll_usb.c ****   USBx_PCGCCTL &= ~(USB_OTG_PCGCCTL_STOPCLK | USB_OTG_PCGCCTL_GATECLK);
1127:Drivers/STM32F4xx_HAL_Driver/Src/stm32f4xx_ll_usb.c **** 
1128:Drivers/STM32F4xx_HAL_Driver/Src/stm32f4xx_ll_usb.c ****   USBx_DEVICE->DCTL &= ~USB_OTG_DCTL_SDIS;
1129:Drivers/STM32F4xx_HAL_Driver/Src/stm32f4xx_ll_usb.c **** 
1130:Drivers/STM32F4xx_HAL_Driver/Src/stm32f4xx_ll_usb.c ****   return HAL_OK;
1131:Drivers/STM32F4xx_HAL_Driver/Src/stm32f4xx_ll_usb.c **** }
1132:Drivers/STM32F4xx_HAL_Driver/Src/stm32f4xx_ll_usb.c **** 
1133:Drivers/STM32F4xx_HAL_Driver/Src/stm32f4xx_ll_usb.c **** /**
1134:Drivers/STM32F4xx_HAL_Driver/Src/stm32f4xx_ll_usb.c ****   * @brief  USB_DevDisconnect : Disconnect the USB device by disabling Rpu
1135:Drivers/STM32F4xx_HAL_Driver/Src/stm32f4xx_ll_usb.c ****   * @param  USBx  Selected device
1136:Drivers/STM32F4xx_HAL_Driver/Src/stm32f4xx_ll_usb.c ****   * @retval HAL status
1137:Drivers/STM32F4xx_HAL_Driver/Src/stm32f4xx_ll_usb.c ****   */
1138:Drivers/STM32F4xx_HAL_Driver/Src/stm32f4xx_ll_usb.c **** HAL_StatusTypeDef  USB_DevDisconnect(USB_OTG_GlobalTypeDef *USBx)
1139:Drivers/STM32F4xx_HAL_Driver/Src/stm32f4xx_ll_usb.c **** {
1140:Drivers/STM32F4xx_HAL_Driver/Src/stm32f4xx_ll_usb.c ****   uint32_t USBx_BASE = (uint32_t)USBx;
1141:Drivers/STM32F4xx_HAL_Driver/Src/stm32f4xx_ll_usb.c **** 
1142:Drivers/STM32F4xx_HAL_Driver/Src/stm32f4xx_ll_usb.c ****   /* In case phy is stopped, ensure to ungate and restore the phy CLK */
1143:Drivers/STM32F4xx_HAL_Driver/Src/stm32f4xx_ll_usb.c ****   USBx_PCGCCTL &= ~(USB_OTG_PCGCCTL_STOPCLK | USB_OTG_PCGCCTL_GATECLK);
1144:Drivers/STM32F4xx_HAL_Driver/Src/stm32f4xx_ll_usb.c **** 
1145:Drivers/STM32F4xx_HAL_Driver/Src/stm32f4xx_ll_usb.c ****   USBx_DEVICE->DCTL |= USB_OTG_DCTL_SDIS;
1146:Drivers/STM32F4xx_HAL_Driver/Src/stm32f4xx_ll_usb.c **** 
1147:Drivers/STM32F4xx_HAL_Driver/Src/stm32f4xx_ll_usb.c ****   return HAL_OK;
1148:Drivers/STM32F4xx_HAL_Driver/Src/stm32f4xx_ll_usb.c **** }
1149:Drivers/STM32F4xx_HAL_Driver/Src/stm32f4xx_ll_usb.c **** 
1150:Drivers/STM32F4xx_HAL_Driver/Src/stm32f4xx_ll_usb.c **** /**
1151:Drivers/STM32F4xx_HAL_Driver/Src/stm32f4xx_ll_usb.c ****   * @brief  USB_ReadInterrupts: return the global USB interrupt status
1152:Drivers/STM32F4xx_HAL_Driver/Src/stm32f4xx_ll_usb.c ****   * @param  USBx  Selected device
1153:Drivers/STM32F4xx_HAL_Driver/Src/stm32f4xx_ll_usb.c ****   * @retval HAL status
1154:Drivers/STM32F4xx_HAL_Driver/Src/stm32f4xx_ll_usb.c ****   */
1155:Drivers/STM32F4xx_HAL_Driver/Src/stm32f4xx_ll_usb.c **** uint32_t  USB_ReadInterrupts(USB_OTG_GlobalTypeDef *USBx)
1156:Drivers/STM32F4xx_HAL_Driver/Src/stm32f4xx_ll_usb.c **** {
1157:Drivers/STM32F4xx_HAL_Driver/Src/stm32f4xx_ll_usb.c ****   uint32_t tmpreg;
1158:Drivers/STM32F4xx_HAL_Driver/Src/stm32f4xx_ll_usb.c **** 
1159:Drivers/STM32F4xx_HAL_Driver/Src/stm32f4xx_ll_usb.c ****   tmpreg = USBx->GINTSTS;
1160:Drivers/STM32F4xx_HAL_Driver/Src/stm32f4xx_ll_usb.c ****   tmpreg &= USBx->GINTMSK;
1161:Drivers/STM32F4xx_HAL_Driver/Src/stm32f4xx_ll_usb.c **** 
1162:Drivers/STM32F4xx_HAL_Driver/Src/stm32f4xx_ll_usb.c ****   return tmpreg;
1163:Drivers/STM32F4xx_HAL_Driver/Src/stm32f4xx_ll_usb.c **** }
1164:Drivers/STM32F4xx_HAL_Driver/Src/stm32f4xx_ll_usb.c **** 
1165:Drivers/STM32F4xx_HAL_Driver/Src/stm32f4xx_ll_usb.c **** /**
1166:Drivers/STM32F4xx_HAL_Driver/Src/stm32f4xx_ll_usb.c ****   * @brief  USB_ReadDevAllOutEpInterrupt: return the USB device OUT endpoints interrupt status
1167:Drivers/STM32F4xx_HAL_Driver/Src/stm32f4xx_ll_usb.c ****   * @param  USBx  Selected device
1168:Drivers/STM32F4xx_HAL_Driver/Src/stm32f4xx_ll_usb.c ****   * @retval HAL status
1169:Drivers/STM32F4xx_HAL_Driver/Src/stm32f4xx_ll_usb.c ****   */
1170:Drivers/STM32F4xx_HAL_Driver/Src/stm32f4xx_ll_usb.c **** uint32_t USB_ReadDevAllOutEpInterrupt(USB_OTG_GlobalTypeDef *USBx)
1171:Drivers/STM32F4xx_HAL_Driver/Src/stm32f4xx_ll_usb.c **** {
1172:Drivers/STM32F4xx_HAL_Driver/Src/stm32f4xx_ll_usb.c ****   uint32_t USBx_BASE = (uint32_t)USBx;
ARM GAS  C:\Users\User\AppData\Local\Temp\ccbub1mW.s 			page 22


1173:Drivers/STM32F4xx_HAL_Driver/Src/stm32f4xx_ll_usb.c ****   uint32_t tmpreg;
1174:Drivers/STM32F4xx_HAL_Driver/Src/stm32f4xx_ll_usb.c **** 
1175:Drivers/STM32F4xx_HAL_Driver/Src/stm32f4xx_ll_usb.c ****   tmpreg  = USBx_DEVICE->DAINT;
1176:Drivers/STM32F4xx_HAL_Driver/Src/stm32f4xx_ll_usb.c ****   tmpreg &= USBx_DEVICE->DAINTMSK;
1177:Drivers/STM32F4xx_HAL_Driver/Src/stm32f4xx_ll_usb.c **** 
1178:Drivers/STM32F4xx_HAL_Driver/Src/stm32f4xx_ll_usb.c ****   return ((tmpreg & 0xffff0000U) >> 16);
1179:Drivers/STM32F4xx_HAL_Driver/Src/stm32f4xx_ll_usb.c **** }
1180:Drivers/STM32F4xx_HAL_Driver/Src/stm32f4xx_ll_usb.c **** 
1181:Drivers/STM32F4xx_HAL_Driver/Src/stm32f4xx_ll_usb.c **** /**
1182:Drivers/STM32F4xx_HAL_Driver/Src/stm32f4xx_ll_usb.c ****   * @brief  USB_ReadDevAllInEpInterrupt: return the USB device IN endpoints interrupt status
1183:Drivers/STM32F4xx_HAL_Driver/Src/stm32f4xx_ll_usb.c ****   * @param  USBx  Selected device
1184:Drivers/STM32F4xx_HAL_Driver/Src/stm32f4xx_ll_usb.c ****   * @retval HAL status
1185:Drivers/STM32F4xx_HAL_Driver/Src/stm32f4xx_ll_usb.c ****   */
1186:Drivers/STM32F4xx_HAL_Driver/Src/stm32f4xx_ll_usb.c **** uint32_t USB_ReadDevAllInEpInterrupt(USB_OTG_GlobalTypeDef *USBx)
1187:Drivers/STM32F4xx_HAL_Driver/Src/stm32f4xx_ll_usb.c **** {
1188:Drivers/STM32F4xx_HAL_Driver/Src/stm32f4xx_ll_usb.c ****   uint32_t USBx_BASE = (uint32_t)USBx;
1189:Drivers/STM32F4xx_HAL_Driver/Src/stm32f4xx_ll_usb.c ****   uint32_t tmpreg;
1190:Drivers/STM32F4xx_HAL_Driver/Src/stm32f4xx_ll_usb.c **** 
1191:Drivers/STM32F4xx_HAL_Driver/Src/stm32f4xx_ll_usb.c ****   tmpreg  = USBx_DEVICE->DAINT;
1192:Drivers/STM32F4xx_HAL_Driver/Src/stm32f4xx_ll_usb.c ****   tmpreg &= USBx_DEVICE->DAINTMSK;
1193:Drivers/STM32F4xx_HAL_Driver/Src/stm32f4xx_ll_usb.c **** 
1194:Drivers/STM32F4xx_HAL_Driver/Src/stm32f4xx_ll_usb.c ****   return ((tmpreg & 0xFFFFU));
1195:Drivers/STM32F4xx_HAL_Driver/Src/stm32f4xx_ll_usb.c **** }
1196:Drivers/STM32F4xx_HAL_Driver/Src/stm32f4xx_ll_usb.c **** 
1197:Drivers/STM32F4xx_HAL_Driver/Src/stm32f4xx_ll_usb.c **** /**
1198:Drivers/STM32F4xx_HAL_Driver/Src/stm32f4xx_ll_usb.c ****   * @brief  Returns Device OUT EP Interrupt register
1199:Drivers/STM32F4xx_HAL_Driver/Src/stm32f4xx_ll_usb.c ****   * @param  USBx  Selected device
1200:Drivers/STM32F4xx_HAL_Driver/Src/stm32f4xx_ll_usb.c ****   * @param  epnum  endpoint number
1201:Drivers/STM32F4xx_HAL_Driver/Src/stm32f4xx_ll_usb.c ****   *          This parameter can be a value from 0 to 15
1202:Drivers/STM32F4xx_HAL_Driver/Src/stm32f4xx_ll_usb.c ****   * @retval Device OUT EP Interrupt register
1203:Drivers/STM32F4xx_HAL_Driver/Src/stm32f4xx_ll_usb.c ****   */
1204:Drivers/STM32F4xx_HAL_Driver/Src/stm32f4xx_ll_usb.c **** uint32_t USB_ReadDevOutEPInterrupt(USB_OTG_GlobalTypeDef *USBx, uint8_t epnum)
1205:Drivers/STM32F4xx_HAL_Driver/Src/stm32f4xx_ll_usb.c **** {
1206:Drivers/STM32F4xx_HAL_Driver/Src/stm32f4xx_ll_usb.c ****   uint32_t USBx_BASE = (uint32_t)USBx;
1207:Drivers/STM32F4xx_HAL_Driver/Src/stm32f4xx_ll_usb.c ****   uint32_t tmpreg;
1208:Drivers/STM32F4xx_HAL_Driver/Src/stm32f4xx_ll_usb.c **** 
1209:Drivers/STM32F4xx_HAL_Driver/Src/stm32f4xx_ll_usb.c ****   tmpreg  = USBx_OUTEP((uint32_t)epnum)->DOEPINT;
1210:Drivers/STM32F4xx_HAL_Driver/Src/stm32f4xx_ll_usb.c ****   tmpreg &= USBx_DEVICE->DOEPMSK;
1211:Drivers/STM32F4xx_HAL_Driver/Src/stm32f4xx_ll_usb.c **** 
1212:Drivers/STM32F4xx_HAL_Driver/Src/stm32f4xx_ll_usb.c ****   return tmpreg;
1213:Drivers/STM32F4xx_HAL_Driver/Src/stm32f4xx_ll_usb.c **** }
1214:Drivers/STM32F4xx_HAL_Driver/Src/stm32f4xx_ll_usb.c **** 
1215:Drivers/STM32F4xx_HAL_Driver/Src/stm32f4xx_ll_usb.c **** /**
1216:Drivers/STM32F4xx_HAL_Driver/Src/stm32f4xx_ll_usb.c ****   * @brief  Returns Device IN EP Interrupt register
1217:Drivers/STM32F4xx_HAL_Driver/Src/stm32f4xx_ll_usb.c ****   * @param  USBx  Selected device
1218:Drivers/STM32F4xx_HAL_Driver/Src/stm32f4xx_ll_usb.c ****   * @param  epnum  endpoint number
1219:Drivers/STM32F4xx_HAL_Driver/Src/stm32f4xx_ll_usb.c ****   *          This parameter can be a value from 0 to 15
1220:Drivers/STM32F4xx_HAL_Driver/Src/stm32f4xx_ll_usb.c ****   * @retval Device IN EP Interrupt register
1221:Drivers/STM32F4xx_HAL_Driver/Src/stm32f4xx_ll_usb.c ****   */
1222:Drivers/STM32F4xx_HAL_Driver/Src/stm32f4xx_ll_usb.c **** uint32_t USB_ReadDevInEPInterrupt(USB_OTG_GlobalTypeDef *USBx, uint8_t epnum)
1223:Drivers/STM32F4xx_HAL_Driver/Src/stm32f4xx_ll_usb.c **** {
1224:Drivers/STM32F4xx_HAL_Driver/Src/stm32f4xx_ll_usb.c ****   uint32_t USBx_BASE = (uint32_t)USBx;
1225:Drivers/STM32F4xx_HAL_Driver/Src/stm32f4xx_ll_usb.c ****   uint32_t tmpreg, msk, emp;
1226:Drivers/STM32F4xx_HAL_Driver/Src/stm32f4xx_ll_usb.c **** 
1227:Drivers/STM32F4xx_HAL_Driver/Src/stm32f4xx_ll_usb.c ****   msk = USBx_DEVICE->DIEPMSK;
1228:Drivers/STM32F4xx_HAL_Driver/Src/stm32f4xx_ll_usb.c ****   emp = USBx_DEVICE->DIEPEMPMSK;
1229:Drivers/STM32F4xx_HAL_Driver/Src/stm32f4xx_ll_usb.c ****   msk |= ((emp >> (epnum & EP_ADDR_MSK)) & 0x1U) << 7;
ARM GAS  C:\Users\User\AppData\Local\Temp\ccbub1mW.s 			page 23


1230:Drivers/STM32F4xx_HAL_Driver/Src/stm32f4xx_ll_usb.c ****   tmpreg = USBx_INEP((uint32_t)epnum)->DIEPINT & msk;
1231:Drivers/STM32F4xx_HAL_Driver/Src/stm32f4xx_ll_usb.c **** 
1232:Drivers/STM32F4xx_HAL_Driver/Src/stm32f4xx_ll_usb.c ****   return tmpreg;
1233:Drivers/STM32F4xx_HAL_Driver/Src/stm32f4xx_ll_usb.c **** }
1234:Drivers/STM32F4xx_HAL_Driver/Src/stm32f4xx_ll_usb.c **** 
1235:Drivers/STM32F4xx_HAL_Driver/Src/stm32f4xx_ll_usb.c **** /**
1236:Drivers/STM32F4xx_HAL_Driver/Src/stm32f4xx_ll_usb.c ****   * @brief  USB_ClearInterrupts: clear a USB interrupt
1237:Drivers/STM32F4xx_HAL_Driver/Src/stm32f4xx_ll_usb.c ****   * @param  USBx  Selected device
1238:Drivers/STM32F4xx_HAL_Driver/Src/stm32f4xx_ll_usb.c ****   * @param  interrupt  flag
1239:Drivers/STM32F4xx_HAL_Driver/Src/stm32f4xx_ll_usb.c ****   * @retval None
1240:Drivers/STM32F4xx_HAL_Driver/Src/stm32f4xx_ll_usb.c ****   */
1241:Drivers/STM32F4xx_HAL_Driver/Src/stm32f4xx_ll_usb.c **** void  USB_ClearInterrupts(USB_OTG_GlobalTypeDef *USBx, uint32_t interrupt)
1242:Drivers/STM32F4xx_HAL_Driver/Src/stm32f4xx_ll_usb.c **** {
1243:Drivers/STM32F4xx_HAL_Driver/Src/stm32f4xx_ll_usb.c ****   USBx->GINTSTS |= interrupt;
1244:Drivers/STM32F4xx_HAL_Driver/Src/stm32f4xx_ll_usb.c **** }
1245:Drivers/STM32F4xx_HAL_Driver/Src/stm32f4xx_ll_usb.c **** 
1246:Drivers/STM32F4xx_HAL_Driver/Src/stm32f4xx_ll_usb.c **** /**
1247:Drivers/STM32F4xx_HAL_Driver/Src/stm32f4xx_ll_usb.c ****   * @brief  Returns USB core mode
1248:Drivers/STM32F4xx_HAL_Driver/Src/stm32f4xx_ll_usb.c ****   * @param  USBx  Selected device
1249:Drivers/STM32F4xx_HAL_Driver/Src/stm32f4xx_ll_usb.c ****   * @retval return core mode : Host or Device
1250:Drivers/STM32F4xx_HAL_Driver/Src/stm32f4xx_ll_usb.c ****   *          This parameter can be one of these values:
1251:Drivers/STM32F4xx_HAL_Driver/Src/stm32f4xx_ll_usb.c ****   *           0 : Host
1252:Drivers/STM32F4xx_HAL_Driver/Src/stm32f4xx_ll_usb.c ****   *           1 : Device
1253:Drivers/STM32F4xx_HAL_Driver/Src/stm32f4xx_ll_usb.c ****   */
1254:Drivers/STM32F4xx_HAL_Driver/Src/stm32f4xx_ll_usb.c **** uint32_t USB_GetMode(USB_OTG_GlobalTypeDef *USBx)
1255:Drivers/STM32F4xx_HAL_Driver/Src/stm32f4xx_ll_usb.c **** {
1256:Drivers/STM32F4xx_HAL_Driver/Src/stm32f4xx_ll_usb.c ****   return ((USBx->GINTSTS) & 0x1U);
1257:Drivers/STM32F4xx_HAL_Driver/Src/stm32f4xx_ll_usb.c **** }
1258:Drivers/STM32F4xx_HAL_Driver/Src/stm32f4xx_ll_usb.c **** 
1259:Drivers/STM32F4xx_HAL_Driver/Src/stm32f4xx_ll_usb.c **** /**
1260:Drivers/STM32F4xx_HAL_Driver/Src/stm32f4xx_ll_usb.c ****   * @brief  Activate EP0 for Setup transactions
1261:Drivers/STM32F4xx_HAL_Driver/Src/stm32f4xx_ll_usb.c ****   * @param  USBx  Selected device
1262:Drivers/STM32F4xx_HAL_Driver/Src/stm32f4xx_ll_usb.c ****   * @retval HAL status
1263:Drivers/STM32F4xx_HAL_Driver/Src/stm32f4xx_ll_usb.c ****   */
1264:Drivers/STM32F4xx_HAL_Driver/Src/stm32f4xx_ll_usb.c **** HAL_StatusTypeDef  USB_ActivateSetup(USB_OTG_GlobalTypeDef *USBx)
1265:Drivers/STM32F4xx_HAL_Driver/Src/stm32f4xx_ll_usb.c **** {
1266:Drivers/STM32F4xx_HAL_Driver/Src/stm32f4xx_ll_usb.c ****   uint32_t USBx_BASE = (uint32_t)USBx;
1267:Drivers/STM32F4xx_HAL_Driver/Src/stm32f4xx_ll_usb.c **** 
1268:Drivers/STM32F4xx_HAL_Driver/Src/stm32f4xx_ll_usb.c ****   /* Set the MPS of the IN EP0 to 64 bytes */
1269:Drivers/STM32F4xx_HAL_Driver/Src/stm32f4xx_ll_usb.c ****   USBx_INEP(0U)->DIEPCTL &= ~USB_OTG_DIEPCTL_MPSIZ;
1270:Drivers/STM32F4xx_HAL_Driver/Src/stm32f4xx_ll_usb.c **** 
1271:Drivers/STM32F4xx_HAL_Driver/Src/stm32f4xx_ll_usb.c ****   USBx_DEVICE->DCTL |= USB_OTG_DCTL_CGINAK;
1272:Drivers/STM32F4xx_HAL_Driver/Src/stm32f4xx_ll_usb.c **** 
1273:Drivers/STM32F4xx_HAL_Driver/Src/stm32f4xx_ll_usb.c ****   return HAL_OK;
1274:Drivers/STM32F4xx_HAL_Driver/Src/stm32f4xx_ll_usb.c **** }
1275:Drivers/STM32F4xx_HAL_Driver/Src/stm32f4xx_ll_usb.c **** 
1276:Drivers/STM32F4xx_HAL_Driver/Src/stm32f4xx_ll_usb.c **** /**
1277:Drivers/STM32F4xx_HAL_Driver/Src/stm32f4xx_ll_usb.c ****   * @brief  Prepare the EP0 to start the first control setup
1278:Drivers/STM32F4xx_HAL_Driver/Src/stm32f4xx_ll_usb.c ****   * @param  USBx  Selected device
1279:Drivers/STM32F4xx_HAL_Driver/Src/stm32f4xx_ll_usb.c ****   * @param  dma USB dma enabled or disabled
1280:Drivers/STM32F4xx_HAL_Driver/Src/stm32f4xx_ll_usb.c ****   *          This parameter can be one of these values:
1281:Drivers/STM32F4xx_HAL_Driver/Src/stm32f4xx_ll_usb.c ****   *           0 : DMA feature not used
1282:Drivers/STM32F4xx_HAL_Driver/Src/stm32f4xx_ll_usb.c ****   *           1 : DMA feature used
1283:Drivers/STM32F4xx_HAL_Driver/Src/stm32f4xx_ll_usb.c ****   * @param  psetup  pointer to setup packet
1284:Drivers/STM32F4xx_HAL_Driver/Src/stm32f4xx_ll_usb.c ****   * @retval HAL status
1285:Drivers/STM32F4xx_HAL_Driver/Src/stm32f4xx_ll_usb.c ****   */
1286:Drivers/STM32F4xx_HAL_Driver/Src/stm32f4xx_ll_usb.c **** HAL_StatusTypeDef USB_EP0_OutStart(USB_OTG_GlobalTypeDef *USBx, uint8_t dma, uint8_t *psetup)
ARM GAS  C:\Users\User\AppData\Local\Temp\ccbub1mW.s 			page 24


1287:Drivers/STM32F4xx_HAL_Driver/Src/stm32f4xx_ll_usb.c **** {
1288:Drivers/STM32F4xx_HAL_Driver/Src/stm32f4xx_ll_usb.c ****   uint32_t USBx_BASE = (uint32_t)USBx;
1289:Drivers/STM32F4xx_HAL_Driver/Src/stm32f4xx_ll_usb.c ****   uint32_t gSNPSiD = *(__IO uint32_t *)(&USBx->CID + 0x1U);
1290:Drivers/STM32F4xx_HAL_Driver/Src/stm32f4xx_ll_usb.c **** 
1291:Drivers/STM32F4xx_HAL_Driver/Src/stm32f4xx_ll_usb.c ****   if (gSNPSiD > USB_OTG_CORE_ID_300A)
1292:Drivers/STM32F4xx_HAL_Driver/Src/stm32f4xx_ll_usb.c ****   {
1293:Drivers/STM32F4xx_HAL_Driver/Src/stm32f4xx_ll_usb.c ****     if ((USBx_OUTEP(0U)->DOEPCTL & USB_OTG_DOEPCTL_EPENA) == USB_OTG_DOEPCTL_EPENA)
1294:Drivers/STM32F4xx_HAL_Driver/Src/stm32f4xx_ll_usb.c ****     {
1295:Drivers/STM32F4xx_HAL_Driver/Src/stm32f4xx_ll_usb.c ****       return HAL_OK;
1296:Drivers/STM32F4xx_HAL_Driver/Src/stm32f4xx_ll_usb.c ****     }
1297:Drivers/STM32F4xx_HAL_Driver/Src/stm32f4xx_ll_usb.c ****   }
1298:Drivers/STM32F4xx_HAL_Driver/Src/stm32f4xx_ll_usb.c **** 
1299:Drivers/STM32F4xx_HAL_Driver/Src/stm32f4xx_ll_usb.c ****   USBx_OUTEP(0U)->DOEPTSIZ = 0U;
1300:Drivers/STM32F4xx_HAL_Driver/Src/stm32f4xx_ll_usb.c ****   USBx_OUTEP(0U)->DOEPTSIZ |= (USB_OTG_DOEPTSIZ_PKTCNT & (1U << 19));
1301:Drivers/STM32F4xx_HAL_Driver/Src/stm32f4xx_ll_usb.c ****   USBx_OUTEP(0U)->DOEPTSIZ |= (3U * 8U);
1302:Drivers/STM32F4xx_HAL_Driver/Src/stm32f4xx_ll_usb.c ****   USBx_OUTEP(0U)->DOEPTSIZ |=  USB_OTG_DOEPTSIZ_STUPCNT;
1303:Drivers/STM32F4xx_HAL_Driver/Src/stm32f4xx_ll_usb.c **** 
1304:Drivers/STM32F4xx_HAL_Driver/Src/stm32f4xx_ll_usb.c ****   if (dma == 1U)
1305:Drivers/STM32F4xx_HAL_Driver/Src/stm32f4xx_ll_usb.c ****   {
1306:Drivers/STM32F4xx_HAL_Driver/Src/stm32f4xx_ll_usb.c ****     USBx_OUTEP(0U)->DOEPDMA = (uint32_t)psetup;
1307:Drivers/STM32F4xx_HAL_Driver/Src/stm32f4xx_ll_usb.c ****     /* EP enable */
1308:Drivers/STM32F4xx_HAL_Driver/Src/stm32f4xx_ll_usb.c ****     USBx_OUTEP(0U)->DOEPCTL |= USB_OTG_DOEPCTL_EPENA | USB_OTG_DOEPCTL_USBAEP;
1309:Drivers/STM32F4xx_HAL_Driver/Src/stm32f4xx_ll_usb.c ****   }
1310:Drivers/STM32F4xx_HAL_Driver/Src/stm32f4xx_ll_usb.c **** 
1311:Drivers/STM32F4xx_HAL_Driver/Src/stm32f4xx_ll_usb.c ****   return HAL_OK;
1312:Drivers/STM32F4xx_HAL_Driver/Src/stm32f4xx_ll_usb.c **** }
1313:Drivers/STM32F4xx_HAL_Driver/Src/stm32f4xx_ll_usb.c **** 
1314:Drivers/STM32F4xx_HAL_Driver/Src/stm32f4xx_ll_usb.c **** /**
1315:Drivers/STM32F4xx_HAL_Driver/Src/stm32f4xx_ll_usb.c ****   * @brief  Reset the USB Core (needed after USB clock settings change)
1316:Drivers/STM32F4xx_HAL_Driver/Src/stm32f4xx_ll_usb.c ****   * @param  USBx  Selected device
1317:Drivers/STM32F4xx_HAL_Driver/Src/stm32f4xx_ll_usb.c ****   * @retval HAL status
1318:Drivers/STM32F4xx_HAL_Driver/Src/stm32f4xx_ll_usb.c ****   */
1319:Drivers/STM32F4xx_HAL_Driver/Src/stm32f4xx_ll_usb.c **** static HAL_StatusTypeDef USB_CoreReset(USB_OTG_GlobalTypeDef *USBx)
1320:Drivers/STM32F4xx_HAL_Driver/Src/stm32f4xx_ll_usb.c **** {
  27              		.loc 1 1320 0
  28              		.cfi_startproc
  29              		@ args = 0, pretend = 0, frame = 0
  30              		@ frame_needed = 0, uses_anonymous_args = 0
  31              		@ link register save eliminated.
  32              	.LVL0:
1321:Drivers/STM32F4xx_HAL_Driver/Src/stm32f4xx_ll_usb.c ****   uint32_t count = 0U;
  33              		.loc 1 1321 0
  34 0000 0023     		movs	r3, #0
  35              	.LVL1:
  36              	.L3:
1322:Drivers/STM32F4xx_HAL_Driver/Src/stm32f4xx_ll_usb.c **** 
1323:Drivers/STM32F4xx_HAL_Driver/Src/stm32f4xx_ll_usb.c ****   /* Wait for AHB master IDLE state. */
1324:Drivers/STM32F4xx_HAL_Driver/Src/stm32f4xx_ll_usb.c ****   do
1325:Drivers/STM32F4xx_HAL_Driver/Src/stm32f4xx_ll_usb.c ****   {
1326:Drivers/STM32F4xx_HAL_Driver/Src/stm32f4xx_ll_usb.c ****     if (++count > 200000U)
  37              		.loc 1 1326 0
  38 0002 0133     		adds	r3, r3, #1
  39              	.LVL2:
  40 0004 0C4A     		ldr	r2, .L7
  41 0006 9342     		cmp	r3, r2
  42 0008 11D8     		bhi	.L5
1327:Drivers/STM32F4xx_HAL_Driver/Src/stm32f4xx_ll_usb.c ****     {
ARM GAS  C:\Users\User\AppData\Local\Temp\ccbub1mW.s 			page 25


1328:Drivers/STM32F4xx_HAL_Driver/Src/stm32f4xx_ll_usb.c ****       return HAL_TIMEOUT;
1329:Drivers/STM32F4xx_HAL_Driver/Src/stm32f4xx_ll_usb.c ****     }
1330:Drivers/STM32F4xx_HAL_Driver/Src/stm32f4xx_ll_usb.c ****   } while ((USBx->GRSTCTL & USB_OTG_GRSTCTL_AHBIDL) == 0U);
  43              		.loc 1 1330 0
  44 000a 0269     		ldr	r2, [r0, #16]
  45 000c 002A     		cmp	r2, #0
  46 000e F8DA     		bge	.L3
  47              	.LVL3:
1331:Drivers/STM32F4xx_HAL_Driver/Src/stm32f4xx_ll_usb.c **** 
1332:Drivers/STM32F4xx_HAL_Driver/Src/stm32f4xx_ll_usb.c ****   /* Core Soft Reset */
1333:Drivers/STM32F4xx_HAL_Driver/Src/stm32f4xx_ll_usb.c ****   count = 0U;
1334:Drivers/STM32F4xx_HAL_Driver/Src/stm32f4xx_ll_usb.c ****   USBx->GRSTCTL |= USB_OTG_GRSTCTL_CSRST;
  48              		.loc 1 1334 0
  49 0010 0369     		ldr	r3, [r0, #16]
  50 0012 43F00103 		orr	r3, r3, #1
  51 0016 0361     		str	r3, [r0, #16]
1333:Drivers/STM32F4xx_HAL_Driver/Src/stm32f4xx_ll_usb.c ****   USBx->GRSTCTL |= USB_OTG_GRSTCTL_CSRST;
  52              		.loc 1 1333 0
  53 0018 0023     		movs	r3, #0
  54              	.LVL4:
  55              	.L4:
1335:Drivers/STM32F4xx_HAL_Driver/Src/stm32f4xx_ll_usb.c **** 
1336:Drivers/STM32F4xx_HAL_Driver/Src/stm32f4xx_ll_usb.c ****   do
1337:Drivers/STM32F4xx_HAL_Driver/Src/stm32f4xx_ll_usb.c ****   {
1338:Drivers/STM32F4xx_HAL_Driver/Src/stm32f4xx_ll_usb.c ****     if (++count > 200000U)
  56              		.loc 1 1338 0
  57 001a 0133     		adds	r3, r3, #1
  58              	.LVL5:
  59 001c 064A     		ldr	r2, .L7
  60 001e 9342     		cmp	r3, r2
  61 0020 07D8     		bhi	.L6
1339:Drivers/STM32F4xx_HAL_Driver/Src/stm32f4xx_ll_usb.c ****     {
1340:Drivers/STM32F4xx_HAL_Driver/Src/stm32f4xx_ll_usb.c ****       return HAL_TIMEOUT;
1341:Drivers/STM32F4xx_HAL_Driver/Src/stm32f4xx_ll_usb.c ****     }
1342:Drivers/STM32F4xx_HAL_Driver/Src/stm32f4xx_ll_usb.c ****   } while ((USBx->GRSTCTL & USB_OTG_GRSTCTL_CSRST) == USB_OTG_GRSTCTL_CSRST);
  62              		.loc 1 1342 0
  63 0022 0269     		ldr	r2, [r0, #16]
  64 0024 12F0010F 		tst	r2, #1
  65 0028 F7D1     		bne	.L4
1343:Drivers/STM32F4xx_HAL_Driver/Src/stm32f4xx_ll_usb.c **** 
1344:Drivers/STM32F4xx_HAL_Driver/Src/stm32f4xx_ll_usb.c ****   return HAL_OK;
  66              		.loc 1 1344 0
  67 002a 0020     		movs	r0, #0
  68              	.LVL6:
  69 002c 7047     		bx	lr
  70              	.LVL7:
  71              	.L5:
1328:Drivers/STM32F4xx_HAL_Driver/Src/stm32f4xx_ll_usb.c ****     }
  72              		.loc 1 1328 0
  73 002e 0320     		movs	r0, #3
  74              	.LVL8:
  75 0030 7047     		bx	lr
  76              	.LVL9:
  77              	.L6:
1340:Drivers/STM32F4xx_HAL_Driver/Src/stm32f4xx_ll_usb.c ****     }
  78              		.loc 1 1340 0
  79 0032 0320     		movs	r0, #3
ARM GAS  C:\Users\User\AppData\Local\Temp\ccbub1mW.s 			page 26


  80              	.LVL10:
1345:Drivers/STM32F4xx_HAL_Driver/Src/stm32f4xx_ll_usb.c **** }
  81              		.loc 1 1345 0
  82 0034 7047     		bx	lr
  83              	.L8:
  84 0036 00BF     		.align	2
  85              	.L7:
  86 0038 400D0300 		.word	200000
  87              		.cfi_endproc
  88              	.LFE163:
  90              		.section	.text.USB_CoreInit,"ax",%progbits
  91              		.align	1
  92              		.global	USB_CoreInit
  93              		.syntax unified
  94              		.thumb
  95              		.thumb_func
  96              		.fpu fpv4-sp-d16
  98              	USB_CoreInit:
  99              	.LFB130:
  83:Drivers/STM32F4xx_HAL_Driver/Src/stm32f4xx_ll_usb.c ****   HAL_StatusTypeDef ret;
 100              		.loc 1 83 0
 101              		.cfi_startproc
 102              		@ args = 56, pretend = 16, frame = 0
 103              		@ frame_needed = 0, uses_anonymous_args = 0
 104              	.LVL11:
 105 0000 84B0     		sub	sp, sp, #16
 106              	.LCFI0:
 107              		.cfi_def_cfa_offset 16
 108 0002 10B5     		push	{r4, lr}
 109              	.LCFI1:
 110              		.cfi_def_cfa_offset 24
 111              		.cfi_offset 4, -24
 112              		.cfi_offset 14, -20
 113 0004 0446     		mov	r4, r0
 114 0006 03A8     		add	r0, sp, #12
 115              	.LVL12:
 116 0008 80E80E00 		stm	r0, {r1, r2, r3}
  86:Drivers/STM32F4xx_HAL_Driver/Src/stm32f4xx_ll_usb.c ****   {
 117              		.loc 1 86 0
 118 000c 089B     		ldr	r3, [sp, #32]
 119 000e 012B     		cmp	r3, #1
 120 0010 1FD1     		bne	.L10
  88:Drivers/STM32F4xx_HAL_Driver/Src/stm32f4xx_ll_usb.c **** 
 121              		.loc 1 88 0
 122 0012 A36B     		ldr	r3, [r4, #56]
 123 0014 23F48033 		bic	r3, r3, #65536
 124 0018 A363     		str	r3, [r4, #56]
  91:Drivers/STM32F4xx_HAL_Driver/Src/stm32f4xx_ll_usb.c **** 
 125              		.loc 1 91 0
 126 001a E368     		ldr	r3, [r4, #12]
 127 001c 23F48403 		bic	r3, r3, #4325376
 128 0020 23F04003 		bic	r3, r3, #64
 129 0024 E360     		str	r3, [r4, #12]
  94:Drivers/STM32F4xx_HAL_Driver/Src/stm32f4xx_ll_usb.c ****     if (cfg.use_external_vbus == 1U)
 130              		.loc 1 94 0
 131 0026 E368     		ldr	r3, [r4, #12]
 132 0028 23F44013 		bic	r3, r3, #3145728
ARM GAS  C:\Users\User\AppData\Local\Temp\ccbub1mW.s 			page 27


 133 002c E360     		str	r3, [r4, #12]
  95:Drivers/STM32F4xx_HAL_Driver/Src/stm32f4xx_ll_usb.c ****     {
 134              		.loc 1 95 0
 135 002e 0F9B     		ldr	r3, [sp, #60]
 136 0030 012B     		cmp	r3, #1
 137 0032 09D0     		beq	.L16
 138              	.L11:
 100:Drivers/STM32F4xx_HAL_Driver/Src/stm32f4xx_ll_usb.c ****   }
 139              		.loc 1 100 0
 140 0034 2046     		mov	r0, r4
 141 0036 FFF7FEFF 		bl	USB_CoreReset
 142              	.LVL13:
 143              	.L12:
 122:Drivers/STM32F4xx_HAL_Driver/Src/stm32f4xx_ll_usb.c ****   {
 144              		.loc 1 122 0
 145 003a 069B     		ldr	r3, [sp, #24]
 146 003c 012B     		cmp	r3, #1
 147 003e 1BD0     		beq	.L17
 148              	.L14:
 129:Drivers/STM32F4xx_HAL_Driver/Src/stm32f4xx_ll_usb.c **** 
 149              		.loc 1 129 0
 150 0040 BDE81040 		pop	{r4, lr}
 151              	.LCFI2:
 152              		.cfi_remember_state
 153              		.cfi_restore 14
 154              		.cfi_restore 4
 155              		.cfi_def_cfa_offset 16
 156              	.LVL14:
 157 0044 04B0     		add	sp, sp, #16
 158              	.LCFI3:
 159              		.cfi_def_cfa_offset 0
 160 0046 7047     		bx	lr
 161              	.LVL15:
 162              	.L16:
 163              	.LCFI4:
 164              		.cfi_restore_state
  97:Drivers/STM32F4xx_HAL_Driver/Src/stm32f4xx_ll_usb.c ****     }
 165              		.loc 1 97 0
 166 0048 E368     		ldr	r3, [r4, #12]
 167 004a 43F48013 		orr	r3, r3, #1048576
 168 004e E360     		str	r3, [r4, #12]
 169 0050 F0E7     		b	.L11
 170              	.L10:
 105:Drivers/STM32F4xx_HAL_Driver/Src/stm32f4xx_ll_usb.c **** 
 171              		.loc 1 105 0
 172 0052 E368     		ldr	r3, [r4, #12]
 173 0054 43F04003 		orr	r3, r3, #64
 174 0058 E360     		str	r3, [r4, #12]
 108:Drivers/STM32F4xx_HAL_Driver/Src/stm32f4xx_ll_usb.c **** 
 175              		.loc 1 108 0
 176 005a 2046     		mov	r0, r4
 177 005c FFF7FEFF 		bl	USB_CoreReset
 178              	.LVL16:
 110:Drivers/STM32F4xx_HAL_Driver/Src/stm32f4xx_ll_usb.c ****     {
 179              		.loc 1 110 0
 180 0060 0C9B     		ldr	r3, [sp, #48]
 181 0062 23B9     		cbnz	r3, .L13
ARM GAS  C:\Users\User\AppData\Local\Temp\ccbub1mW.s 			page 28


 113:Drivers/STM32F4xx_HAL_Driver/Src/stm32f4xx_ll_usb.c ****     }
 182              		.loc 1 113 0
 183 0064 A36B     		ldr	r3, [r4, #56]
 184 0066 43F48033 		orr	r3, r3, #65536
 185 006a A363     		str	r3, [r4, #56]
 186 006c E5E7     		b	.L12
 187              	.L13:
 118:Drivers/STM32F4xx_HAL_Driver/Src/stm32f4xx_ll_usb.c ****     }
 188              		.loc 1 118 0
 189 006e A36B     		ldr	r3, [r4, #56]
 190 0070 23F48033 		bic	r3, r3, #65536
 191 0074 A363     		str	r3, [r4, #56]
 192 0076 E0E7     		b	.L12
 193              	.L17:
 124:Drivers/STM32F4xx_HAL_Driver/Src/stm32f4xx_ll_usb.c ****     USBx->GAHBCFG |= USB_OTG_GAHBCFG_DMAEN;
 194              		.loc 1 124 0
 195 0078 A368     		ldr	r3, [r4, #8]
 196 007a 43F00603 		orr	r3, r3, #6
 197 007e A360     		str	r3, [r4, #8]
 125:Drivers/STM32F4xx_HAL_Driver/Src/stm32f4xx_ll_usb.c ****   }
 198              		.loc 1 125 0
 199 0080 A368     		ldr	r3, [r4, #8]
 200 0082 43F02003 		orr	r3, r3, #32
 201 0086 A360     		str	r3, [r4, #8]
 202 0088 DAE7     		b	.L14
 203              		.cfi_endproc
 204              	.LFE130:
 206              		.section	.text.USB_SetTurnaroundTime,"ax",%progbits
 207              		.align	1
 208              		.global	USB_SetTurnaroundTime
 209              		.syntax unified
 210              		.thumb
 211              		.thumb_func
 212              		.fpu fpv4-sp-d16
 214              	USB_SetTurnaroundTime:
 215              	.LFB131:
 140:Drivers/STM32F4xx_HAL_Driver/Src/stm32f4xx_ll_usb.c ****   uint32_t UsbTrd;
 216              		.loc 1 140 0
 217              		.cfi_startproc
 218              		@ args = 0, pretend = 0, frame = 0
 219              		@ frame_needed = 0, uses_anonymous_args = 0
 220              		@ link register save eliminated.
 221              	.LVL17:
 147:Drivers/STM32F4xx_HAL_Driver/Src/stm32f4xx_ll_usb.c ****   {
 222              		.loc 1 147 0
 223 0000 022A     		cmp	r2, #2
 224 0002 0AD0     		beq	.L30
 202:Drivers/STM32F4xx_HAL_Driver/Src/stm32f4xx_ll_usb.c ****   }
 225              		.loc 1 202 0
 226 0004 0921     		movs	r1, #9
 227              	.LVL18:
 228              	.L19:
 209:Drivers/STM32F4xx_HAL_Driver/Src/stm32f4xx_ll_usb.c ****   USBx->GUSBCFG |= (uint32_t)((UsbTrd << 10) & USB_OTG_GUSBCFG_TRDT);
 229              		.loc 1 209 0
 230 0006 C268     		ldr	r2, [r0, #12]
 231 0008 22F47052 		bic	r2, r2, #15360
 232 000c C260     		str	r2, [r0, #12]
ARM GAS  C:\Users\User\AppData\Local\Temp\ccbub1mW.s 			page 29


 210:Drivers/STM32F4xx_HAL_Driver/Src/stm32f4xx_ll_usb.c **** 
 233              		.loc 1 210 0
 234 000e C368     		ldr	r3, [r0, #12]
 235 0010 43EA8123 		orr	r3, r3, r1, lsl #10
 236 0014 C360     		str	r3, [r0, #12]
 213:Drivers/STM32F4xx_HAL_Driver/Src/stm32f4xx_ll_usb.c **** 
 237              		.loc 1 213 0
 238 0016 0020     		movs	r0, #0
 239              	.LVL19:
 240 0018 7047     		bx	lr
 241              	.LVL20:
 242              	.L30:
 149:Drivers/STM32F4xx_HAL_Driver/Src/stm32f4xx_ll_usb.c ****     {
 243              		.loc 1 149 0
 244 001a 2A4B     		ldr	r3, .L32
 245 001c 0B44     		add	r3, r3, r1
 246 001e 2A4A     		ldr	r2, .L32+4
 247              	.LVL21:
 248 0020 9342     		cmp	r3, r2
 249 0022 3FD9     		bls	.L21
 154:Drivers/STM32F4xx_HAL_Driver/Src/stm32f4xx_ll_usb.c ****     {
 250              		.loc 1 154 0
 251 0024 294B     		ldr	r3, .L32+8
 252 0026 0B44     		add	r3, r3, r1
 253 0028 294A     		ldr	r2, .L32+12
 254 002a 9342     		cmp	r3, r2
 255 002c 3CD9     		bls	.L22
 159:Drivers/STM32F4xx_HAL_Driver/Src/stm32f4xx_ll_usb.c ****     {
 256              		.loc 1 159 0
 257 002e A1F57403 		sub	r3, r1, #15990784
 258 0032 A3F51053 		sub	r3, r3, #9216
 259 0036 274A     		ldr	r2, .L32+16
 260 0038 9342     		cmp	r3, r2
 261 003a 37D9     		bls	.L23
 164:Drivers/STM32F4xx_HAL_Driver/Src/stm32f4xx_ll_usb.c ****     {
 262              		.loc 1 164 0
 263 003c A1F18373 		sub	r3, r1, #17170432
 264 0040 A3F5E743 		sub	r3, r3, #29568
 265 0044 02F5C332 		add	r2, r2, #99840
 266 0048 A032     		adds	r2, r2, #160
 267 004a 9342     		cmp	r3, r2
 268 004c 30D9     		bls	.L24
 169:Drivers/STM32F4xx_HAL_Driver/Src/stm32f4xx_ll_usb.c ****     {
 269              		.loc 1 169 0
 270 004e 224B     		ldr	r3, .L32+20
 271 0050 0B44     		add	r3, r3, r1
 272 0052 224A     		ldr	r2, .L32+24
 273 0054 9342     		cmp	r3, r2
 274 0056 2DD9     		bls	.L25
 174:Drivers/STM32F4xx_HAL_Driver/Src/stm32f4xx_ll_usb.c ****     {
 275              		.loc 1 174 0
 276 0058 214B     		ldr	r3, .L32+28
 277 005a 0B44     		add	r3, r3, r1
 278 005c 02F59222 		add	r2, r2, #299008
 279 0060 02F57872 		add	r2, r2, #992
 280 0064 9342     		cmp	r3, r2
 281 0066 27D9     		bls	.L26
ARM GAS  C:\Users\User\AppData\Local\Temp\ccbub1mW.s 			page 30


 179:Drivers/STM32F4xx_HAL_Driver/Src/stm32f4xx_ll_usb.c ****     {
 282              		.loc 1 179 0
 283 0068 1E4B     		ldr	r3, .L32+32
 284 006a 0B44     		add	r3, r3, r1
 285 006c 02F5C322 		add	r2, r2, #399360
 286 0070 02F52072 		add	r2, r2, #640
 287 0074 9342     		cmp	r3, r2
 288 0076 21D9     		bls	.L27
 184:Drivers/STM32F4xx_HAL_Driver/Src/stm32f4xx_ll_usb.c ****     {
 289              		.loc 1 184 0
 290 0078 A1F1B773 		sub	r3, r1, #23986176
 291 007c A3F55853 		sub	r3, r3, #13824
 292 0080 02F5B712 		add	r2, r2, #1499136
 293 0084 02F55872 		add	r2, r2, #864
 294 0088 9342     		cmp	r3, r2
 295 008a 19D9     		bls	.L28
 189:Drivers/STM32F4xx_HAL_Driver/Src/stm32f4xx_ll_usb.c ****     {
 296              		.loc 1 189 0
 297 008c 164B     		ldr	r3, .L32+36
 298 008e 0B44     		add	r3, r3, r1
 299 0090 02F51222 		add	r2, r2, #598016
 300 0094 02F5F862 		add	r2, r2, #1984
 301 0098 9342     		cmp	r3, r2
 302 009a 01D9     		bls	.L31
 197:Drivers/STM32F4xx_HAL_Driver/Src/stm32f4xx_ll_usb.c ****     }
 303              		.loc 1 197 0
 304 009c 0621     		movs	r1, #6
 305              	.LVL22:
 306 009e B2E7     		b	.L19
 307              	.LVL23:
 308              	.L31:
 192:Drivers/STM32F4xx_HAL_Driver/Src/stm32f4xx_ll_usb.c ****     }
 309              		.loc 1 192 0
 310 00a0 0721     		movs	r1, #7
 311              	.LVL24:
 312 00a2 B0E7     		b	.L19
 313              	.LVL25:
 314              	.L21:
 152:Drivers/STM32F4xx_HAL_Driver/Src/stm32f4xx_ll_usb.c ****     }
 315              		.loc 1 152 0
 316 00a4 0F21     		movs	r1, #15
 317              	.LVL26:
 318 00a6 AEE7     		b	.L19
 319              	.LVL27:
 320              	.L22:
 157:Drivers/STM32F4xx_HAL_Driver/Src/stm32f4xx_ll_usb.c ****     }
 321              		.loc 1 157 0
 322 00a8 0E21     		movs	r1, #14
 323              	.LVL28:
 324 00aa ACE7     		b	.L19
 325              	.LVL29:
 326              	.L23:
 162:Drivers/STM32F4xx_HAL_Driver/Src/stm32f4xx_ll_usb.c ****     }
 327              		.loc 1 162 0
 328 00ac 0D21     		movs	r1, #13
 329              	.LVL30:
 330 00ae AAE7     		b	.L19
ARM GAS  C:\Users\User\AppData\Local\Temp\ccbub1mW.s 			page 31


 331              	.LVL31:
 332              	.L24:
 167:Drivers/STM32F4xx_HAL_Driver/Src/stm32f4xx_ll_usb.c ****     }
 333              		.loc 1 167 0
 334 00b0 0C21     		movs	r1, #12
 335              	.LVL32:
 336 00b2 A8E7     		b	.L19
 337              	.LVL33:
 338              	.L25:
 172:Drivers/STM32F4xx_HAL_Driver/Src/stm32f4xx_ll_usb.c ****     }
 339              		.loc 1 172 0
 340 00b4 0B21     		movs	r1, #11
 341              	.LVL34:
 342 00b6 A6E7     		b	.L19
 343              	.LVL35:
 344              	.L26:
 177:Drivers/STM32F4xx_HAL_Driver/Src/stm32f4xx_ll_usb.c ****     }
 345              		.loc 1 177 0
 346 00b8 0A21     		movs	r1, #10
 347              	.LVL36:
 348 00ba A4E7     		b	.L19
 349              	.LVL37:
 350              	.L27:
 182:Drivers/STM32F4xx_HAL_Driver/Src/stm32f4xx_ll_usb.c ****     }
 351              		.loc 1 182 0
 352 00bc 0921     		movs	r1, #9
 353              	.LVL38:
 354 00be A2E7     		b	.L19
 355              	.LVL39:
 356              	.L28:
 187:Drivers/STM32F4xx_HAL_Driver/Src/stm32f4xx_ll_usb.c ****     }
 357              		.loc 1 187 0
 358 00c0 0821     		movs	r1, #8
 359              	.LVL40:
 360 00c2 A0E7     		b	.L19
 361              	.L33:
 362              		.align	2
 363              	.L32:
 364 00c4 405327FF 		.word	-14200000
 365 00c8 FF340C00 		.word	799999
 366 00cc 401E1BFF 		.word	-15000000
 367 00d0 3F420F00 		.word	999999
 368 00d4 7F4F1200 		.word	1199999
 369 00d8 60B6E5FE 		.word	-18500000
 370 00dc 5FE31600 		.word	1499999
 371 00e0 00D3CEFE 		.word	-20000000
 372 00e4 C05BB3FE 		.word	-21800000
 373 00e8 E05459FE 		.word	-27700000
 374              		.cfi_endproc
 375              	.LFE131:
 377              		.section	.text.USB_EnableGlobalInt,"ax",%progbits
 378              		.align	1
 379              		.global	USB_EnableGlobalInt
 380              		.syntax unified
 381              		.thumb
 382              		.thumb_func
 383              		.fpu fpv4-sp-d16
ARM GAS  C:\Users\User\AppData\Local\Temp\ccbub1mW.s 			page 32


 385              	USB_EnableGlobalInt:
 386              	.LFB132:
 222:Drivers/STM32F4xx_HAL_Driver/Src/stm32f4xx_ll_usb.c ****   USBx->GAHBCFG |= USB_OTG_GAHBCFG_GINT;
 387              		.loc 1 222 0
 388              		.cfi_startproc
 389              		@ args = 0, pretend = 0, frame = 0
 390              		@ frame_needed = 0, uses_anonymous_args = 0
 391              		@ link register save eliminated.
 392              	.LVL41:
 223:Drivers/STM32F4xx_HAL_Driver/Src/stm32f4xx_ll_usb.c ****   return HAL_OK;
 393              		.loc 1 223 0
 394 0000 8368     		ldr	r3, [r0, #8]
 395 0002 43F00103 		orr	r3, r3, #1
 396 0006 8360     		str	r3, [r0, #8]
 225:Drivers/STM32F4xx_HAL_Driver/Src/stm32f4xx_ll_usb.c **** 
 397              		.loc 1 225 0
 398 0008 0020     		movs	r0, #0
 399              	.LVL42:
 400 000a 7047     		bx	lr
 401              		.cfi_endproc
 402              	.LFE132:
 404              		.section	.text.USB_DisableGlobalInt,"ax",%progbits
 405              		.align	1
 406              		.global	USB_DisableGlobalInt
 407              		.syntax unified
 408              		.thumb
 409              		.thumb_func
 410              		.fpu fpv4-sp-d16
 412              	USB_DisableGlobalInt:
 413              	.LFB133:
 234:Drivers/STM32F4xx_HAL_Driver/Src/stm32f4xx_ll_usb.c ****   USBx->GAHBCFG &= ~USB_OTG_GAHBCFG_GINT;
 414              		.loc 1 234 0
 415              		.cfi_startproc
 416              		@ args = 0, pretend = 0, frame = 0
 417              		@ frame_needed = 0, uses_anonymous_args = 0
 418              		@ link register save eliminated.
 419              	.LVL43:
 235:Drivers/STM32F4xx_HAL_Driver/Src/stm32f4xx_ll_usb.c ****   return HAL_OK;
 420              		.loc 1 235 0
 421 0000 8368     		ldr	r3, [r0, #8]
 422 0002 23F00103 		bic	r3, r3, #1
 423 0006 8360     		str	r3, [r0, #8]
 237:Drivers/STM32F4xx_HAL_Driver/Src/stm32f4xx_ll_usb.c **** 
 424              		.loc 1 237 0
 425 0008 0020     		movs	r0, #0
 426              	.LVL44:
 427 000a 7047     		bx	lr
 428              		.cfi_endproc
 429              	.LFE133:
 431              		.section	.text.USB_SetCurrentMode,"ax",%progbits
 432              		.align	1
 433              		.global	USB_SetCurrentMode
 434              		.syntax unified
 435              		.thumb
 436              		.thumb_func
 437              		.fpu fpv4-sp-d16
 439              	USB_SetCurrentMode:
ARM GAS  C:\Users\User\AppData\Local\Temp\ccbub1mW.s 			page 33


 440              	.LFB134:
 249:Drivers/STM32F4xx_HAL_Driver/Src/stm32f4xx_ll_usb.c ****   USBx->GUSBCFG &= ~(USB_OTG_GUSBCFG_FHMOD | USB_OTG_GUSBCFG_FDMOD);
 441              		.loc 1 249 0
 442              		.cfi_startproc
 443              		@ args = 0, pretend = 0, frame = 0
 444              		@ frame_needed = 0, uses_anonymous_args = 0
 445              	.LVL45:
 446 0000 08B5     		push	{r3, lr}
 447              	.LCFI5:
 448              		.cfi_def_cfa_offset 8
 449              		.cfi_offset 3, -8
 450              		.cfi_offset 14, -4
 250:Drivers/STM32F4xx_HAL_Driver/Src/stm32f4xx_ll_usb.c **** 
 451              		.loc 1 250 0
 452 0002 C368     		ldr	r3, [r0, #12]
 453 0004 23F0C043 		bic	r3, r3, #1610612736
 454 0008 C360     		str	r3, [r0, #12]
 252:Drivers/STM32F4xx_HAL_Driver/Src/stm32f4xx_ll_usb.c ****   {
 455              		.loc 1 252 0
 456 000a 0129     		cmp	r1, #1
 457 000c 09D0     		beq	.L42
 256:Drivers/STM32F4xx_HAL_Driver/Src/stm32f4xx_ll_usb.c ****   {
 458              		.loc 1 256 0
 459 000e 69B9     		cbnz	r1, .L40
 258:Drivers/STM32F4xx_HAL_Driver/Src/stm32f4xx_ll_usb.c ****   }
 460              		.loc 1 258 0
 461 0010 C368     		ldr	r3, [r0, #12]
 462 0012 43F08043 		orr	r3, r3, #1073741824
 463 0016 C360     		str	r3, [r0, #12]
 464              	.L38:
 264:Drivers/STM32F4xx_HAL_Driver/Src/stm32f4xx_ll_usb.c **** 
 465              		.loc 1 264 0
 466 0018 3220     		movs	r0, #50
 467              	.LVL46:
 468 001a FFF7FEFF 		bl	HAL_Delay
 469              	.LVL47:
 266:Drivers/STM32F4xx_HAL_Driver/Src/stm32f4xx_ll_usb.c **** }
 470              		.loc 1 266 0
 471 001e 0020     		movs	r0, #0
 472              	.L39:
 267:Drivers/STM32F4xx_HAL_Driver/Src/stm32f4xx_ll_usb.c **** 
 473              		.loc 1 267 0
 474 0020 08BD     		pop	{r3, pc}
 475              	.LVL48:
 476              	.L42:
 254:Drivers/STM32F4xx_HAL_Driver/Src/stm32f4xx_ll_usb.c ****   }
 477              		.loc 1 254 0
 478 0022 C368     		ldr	r3, [r0, #12]
 479 0024 43F00053 		orr	r3, r3, #536870912
 480 0028 C360     		str	r3, [r0, #12]
 481 002a F5E7     		b	.L38
 482              	.L40:
 262:Drivers/STM32F4xx_HAL_Driver/Src/stm32f4xx_ll_usb.c ****   }
 483              		.loc 1 262 0
 484 002c 0120     		movs	r0, #1
 485              	.LVL49:
 486 002e F7E7     		b	.L39
ARM GAS  C:\Users\User\AppData\Local\Temp\ccbub1mW.s 			page 34


 487              		.cfi_endproc
 488              	.LFE134:
 490              		.section	.text.USB_FlushTxFifo,"ax",%progbits
 491              		.align	1
 492              		.global	USB_FlushTxFifo
 493              		.syntax unified
 494              		.thumb
 495              		.thumb_func
 496              		.fpu fpv4-sp-d16
 498              	USB_FlushTxFifo:
 499              	.LFB136:
 454:Drivers/STM32F4xx_HAL_Driver/Src/stm32f4xx_ll_usb.c ****   uint32_t count = 0U;
 500              		.loc 1 454 0
 501              		.cfi_startproc
 502              		@ args = 0, pretend = 0, frame = 0
 503              		@ frame_needed = 0, uses_anonymous_args = 0
 504              		@ link register save eliminated.
 505              	.LVL50:
 457:Drivers/STM32F4xx_HAL_Driver/Src/stm32f4xx_ll_usb.c **** 
 506              		.loc 1 457 0
 507 0000 8901     		lsls	r1, r1, #6
 508              	.LVL51:
 509 0002 41F02001 		orr	r1, r1, #32
 510 0006 0161     		str	r1, [r0, #16]
 455:Drivers/STM32F4xx_HAL_Driver/Src/stm32f4xx_ll_usb.c **** 
 511              		.loc 1 455 0
 512 0008 0023     		movs	r3, #0
 513              	.LVL52:
 514              	.L45:
 461:Drivers/STM32F4xx_HAL_Driver/Src/stm32f4xx_ll_usb.c ****     {
 515              		.loc 1 461 0
 516 000a 0133     		adds	r3, r3, #1
 517              	.LVL53:
 518 000c 054A     		ldr	r2, .L47
 519 000e 9342     		cmp	r3, r2
 520 0010 05D8     		bhi	.L46
 465:Drivers/STM32F4xx_HAL_Driver/Src/stm32f4xx_ll_usb.c **** 
 521              		.loc 1 465 0
 522 0012 0269     		ldr	r2, [r0, #16]
 523 0014 12F0200F 		tst	r2, #32
 524 0018 F7D1     		bne	.L45
 467:Drivers/STM32F4xx_HAL_Driver/Src/stm32f4xx_ll_usb.c **** }
 525              		.loc 1 467 0
 526 001a 0020     		movs	r0, #0
 527              	.LVL54:
 528 001c 7047     		bx	lr
 529              	.LVL55:
 530              	.L46:
 463:Drivers/STM32F4xx_HAL_Driver/Src/stm32f4xx_ll_usb.c ****     }
 531              		.loc 1 463 0
 532 001e 0320     		movs	r0, #3
 533              	.LVL56:
 468:Drivers/STM32F4xx_HAL_Driver/Src/stm32f4xx_ll_usb.c **** 
 534              		.loc 1 468 0
 535 0020 7047     		bx	lr
 536              	.L48:
 537 0022 00BF     		.align	2
ARM GAS  C:\Users\User\AppData\Local\Temp\ccbub1mW.s 			page 35


 538              	.L47:
 539 0024 400D0300 		.word	200000
 540              		.cfi_endproc
 541              	.LFE136:
 543              		.section	.text.USB_FlushRxFifo,"ax",%progbits
 544              		.align	1
 545              		.global	USB_FlushRxFifo
 546              		.syntax unified
 547              		.thumb
 548              		.thumb_func
 549              		.fpu fpv4-sp-d16
 551              	USB_FlushRxFifo:
 552              	.LFB137:
 476:Drivers/STM32F4xx_HAL_Driver/Src/stm32f4xx_ll_usb.c ****   uint32_t count = 0;
 553              		.loc 1 476 0
 554              		.cfi_startproc
 555              		@ args = 0, pretend = 0, frame = 0
 556              		@ frame_needed = 0, uses_anonymous_args = 0
 557              		@ link register save eliminated.
 558              	.LVL57:
 479:Drivers/STM32F4xx_HAL_Driver/Src/stm32f4xx_ll_usb.c **** 
 559              		.loc 1 479 0
 560 0000 1023     		movs	r3, #16
 561 0002 0361     		str	r3, [r0, #16]
 477:Drivers/STM32F4xx_HAL_Driver/Src/stm32f4xx_ll_usb.c **** 
 562              		.loc 1 477 0
 563 0004 0023     		movs	r3, #0
 564              	.LVL58:
 565              	.L51:
 483:Drivers/STM32F4xx_HAL_Driver/Src/stm32f4xx_ll_usb.c ****     {
 566              		.loc 1 483 0
 567 0006 0133     		adds	r3, r3, #1
 568              	.LVL59:
 569 0008 054A     		ldr	r2, .L53
 570 000a 9342     		cmp	r3, r2
 571 000c 05D8     		bhi	.L52
 487:Drivers/STM32F4xx_HAL_Driver/Src/stm32f4xx_ll_usb.c **** 
 572              		.loc 1 487 0
 573 000e 0269     		ldr	r2, [r0, #16]
 574 0010 12F0100F 		tst	r2, #16
 575 0014 F7D1     		bne	.L51
 489:Drivers/STM32F4xx_HAL_Driver/Src/stm32f4xx_ll_usb.c **** }
 576              		.loc 1 489 0
 577 0016 0020     		movs	r0, #0
 578              	.LVL60:
 579 0018 7047     		bx	lr
 580              	.LVL61:
 581              	.L52:
 485:Drivers/STM32F4xx_HAL_Driver/Src/stm32f4xx_ll_usb.c ****     }
 582              		.loc 1 485 0
 583 001a 0320     		movs	r0, #3
 584              	.LVL62:
 490:Drivers/STM32F4xx_HAL_Driver/Src/stm32f4xx_ll_usb.c **** 
 585              		.loc 1 490 0
 586 001c 7047     		bx	lr
 587              	.L54:
 588 001e 00BF     		.align	2
ARM GAS  C:\Users\User\AppData\Local\Temp\ccbub1mW.s 			page 36


 589              	.L53:
 590 0020 400D0300 		.word	200000
 591              		.cfi_endproc
 592              	.LFE137:
 594              		.section	.text.USB_SetDevSpeed,"ax",%progbits
 595              		.align	1
 596              		.global	USB_SetDevSpeed
 597              		.syntax unified
 598              		.thumb
 599              		.thumb_func
 600              		.fpu fpv4-sp-d16
 602              	USB_SetDevSpeed:
 603              	.LFB138:
 504:Drivers/STM32F4xx_HAL_Driver/Src/stm32f4xx_ll_usb.c ****   uint32_t USBx_BASE = (uint32_t)USBx;
 604              		.loc 1 504 0
 605              		.cfi_startproc
 606              		@ args = 0, pretend = 0, frame = 0
 607              		@ frame_needed = 0, uses_anonymous_args = 0
 608              		@ link register save eliminated.
 609              	.LVL63:
 507:Drivers/STM32F4xx_HAL_Driver/Src/stm32f4xx_ll_usb.c ****   return HAL_OK;
 610              		.loc 1 507 0
 611 0000 D0F80038 		ldr	r3, [r0, #2048]
 612 0004 1943     		orrs	r1, r1, r3
 613              	.LVL64:
 614 0006 C0F80018 		str	r1, [r0, #2048]
 509:Drivers/STM32F4xx_HAL_Driver/Src/stm32f4xx_ll_usb.c **** 
 615              		.loc 1 509 0
 616 000a 0020     		movs	r0, #0
 617              	.LVL65:
 618 000c 7047     		bx	lr
 619              		.cfi_endproc
 620              	.LFE138:
 622              		.section	.text.USB_DevInit,"ax",%progbits
 623              		.align	1
 624              		.global	USB_DevInit
 625              		.syntax unified
 626              		.thumb
 627              		.thumb_func
 628              		.fpu fpv4-sp-d16
 630              	USB_DevInit:
 631              	.LFB135:
 278:Drivers/STM32F4xx_HAL_Driver/Src/stm32f4xx_ll_usb.c ****   HAL_StatusTypeDef ret = HAL_OK;
 632              		.loc 1 278 0
 633              		.cfi_startproc
 634              		@ args = 56, pretend = 16, frame = 0
 635              		@ frame_needed = 0, uses_anonymous_args = 0
 636              	.LVL66:
 637 0000 84B0     		sub	sp, sp, #16
 638              	.LCFI6:
 639              		.cfi_def_cfa_offset 16
 640 0002 2DE9F041 		push	{r4, r5, r6, r7, r8, lr}
 641              	.LCFI7:
 642              		.cfi_def_cfa_offset 40
 643              		.cfi_offset 4, -40
 644              		.cfi_offset 5, -36
 645              		.cfi_offset 6, -32
ARM GAS  C:\Users\User\AppData\Local\Temp\ccbub1mW.s 			page 37


 646              		.cfi_offset 7, -28
 647              		.cfi_offset 8, -24
 648              		.cfi_offset 14, -20
 649 0006 0446     		mov	r4, r0
 650 0008 07A8     		add	r0, sp, #28
 651              	.LVL67:
 652 000a 80E80E00 		stm	r0, {r1, r2, r3}
 653              	.LVL68:
 280:Drivers/STM32F4xx_HAL_Driver/Src/stm32f4xx_ll_usb.c ****   uint32_t i;
 654              		.loc 1 280 0
 655 000e 2546     		mov	r5, r4
 656              	.LVL69:
 283:Drivers/STM32F4xx_HAL_Driver/Src/stm32f4xx_ll_usb.c ****   {
 657              		.loc 1 283 0
 658 0010 0023     		movs	r3, #0
 659 0012 06E0     		b	.L57
 660              	.LVL70:
 661              	.L58:
 285:Drivers/STM32F4xx_HAL_Driver/Src/stm32f4xx_ll_usb.c ****   }
 662              		.loc 1 285 0 discriminator 3
 663 0014 03F14002 		add	r2, r3, #64
 664 0018 04EB8202 		add	r2, r4, r2, lsl #2
 665 001c 0021     		movs	r1, #0
 666 001e 5160     		str	r1, [r2, #4]
 283:Drivers/STM32F4xx_HAL_Driver/Src/stm32f4xx_ll_usb.c ****   {
 667              		.loc 1 283 0 discriminator 3
 668 0020 0133     		adds	r3, r3, #1
 669              	.LVL71:
 670              	.L57:
 283:Drivers/STM32F4xx_HAL_Driver/Src/stm32f4xx_ll_usb.c ****   {
 671              		.loc 1 283 0 is_stmt 0 discriminator 1
 672 0022 0E2B     		cmp	r3, #14
 673 0024 F6D9     		bls	.L58
 308:Drivers/STM32F4xx_HAL_Driver/Src/stm32f4xx_ll_usb.c ****   {
 674              		.loc 1 308 0 is_stmt 1
 675 0026 119B     		ldr	r3, [sp, #68]
 676              	.LVL72:
 677 0028 23BB     		cbnz	r3, .L59
 314:Drivers/STM32F4xx_HAL_Driver/Src/stm32f4xx_ll_usb.c ****     USBx->GCCFG |= USB_OTG_GCCFG_NOVBUSSENS;
 678              		.loc 1 314 0
 679 002a D4F80438 		ldr	r3, [r4, #2052]
 680 002e 43F00203 		orr	r3, r3, #2
 681 0032 C4F80438 		str	r3, [r4, #2052]
 315:Drivers/STM32F4xx_HAL_Driver/Src/stm32f4xx_ll_usb.c ****     USBx->GCCFG &= ~USB_OTG_GCCFG_VBUSBSEN;
 682              		.loc 1 315 0
 683 0036 A36B     		ldr	r3, [r4, #56]
 684 0038 43F40013 		orr	r3, r3, #2097152
 685 003c A363     		str	r3, [r4, #56]
 316:Drivers/STM32F4xx_HAL_Driver/Src/stm32f4xx_ll_usb.c ****     USBx->GCCFG &= ~USB_OTG_GCCFG_VBUSASEN;
 686              		.loc 1 316 0
 687 003e A36B     		ldr	r3, [r4, #56]
 688 0040 23F40023 		bic	r3, r3, #524288
 689 0044 A363     		str	r3, [r4, #56]
 317:Drivers/STM32F4xx_HAL_Driver/Src/stm32f4xx_ll_usb.c ****   }
 690              		.loc 1 317 0
 691 0046 A36B     		ldr	r3, [r4, #56]
 692 0048 23F48023 		bic	r3, r3, #262144
ARM GAS  C:\Users\User\AppData\Local\Temp\ccbub1mW.s 			page 38


 693 004c A363     		str	r3, [r4, #56]
 694              	.L60:
 328:Drivers/STM32F4xx_HAL_Driver/Src/stm32f4xx_ll_usb.c **** 
 695              		.loc 1 328 0
 696 004e 0023     		movs	r3, #0
 697 0050 C4F8003E 		str	r3, [r4, #3584]
 331:Drivers/STM32F4xx_HAL_Driver/Src/stm32f4xx_ll_usb.c **** 
 698              		.loc 1 331 0
 699 0054 04F50066 		add	r6, r4, #2048
 700 0058 D4F80038 		ldr	r3, [r4, #2048]
 701 005c C4F80038 		str	r3, [r4, #2048]
 333:Drivers/STM32F4xx_HAL_Driver/Src/stm32f4xx_ll_usb.c ****   {
 702              		.loc 1 333 0
 703 0060 0C9B     		ldr	r3, [sp, #48]
 704 0062 012B     		cmp	r3, #1
 705 0064 14D1     		bne	.L61
 335:Drivers/STM32F4xx_HAL_Driver/Src/stm32f4xx_ll_usb.c ****     {
 706              		.loc 1 335 0
 707 0066 099B     		ldr	r3, [sp, #36]
 708 0068 6BB9     		cbnz	r3, .L62
 338:Drivers/STM32F4xx_HAL_Driver/Src/stm32f4xx_ll_usb.c ****     }
 709              		.loc 1 338 0
 710 006a 0021     		movs	r1, #0
 711 006c 2046     		mov	r0, r4
 712 006e FFF7FEFF 		bl	USB_SetDevSpeed
 713              	.LVL73:
 714 0072 11E0     		b	.L63
 715              	.L59:
 322:Drivers/STM32F4xx_HAL_Driver/Src/stm32f4xx_ll_usb.c ****     USBx->GCCFG |= USB_OTG_GCCFG_VBUSBSEN;
 716              		.loc 1 322 0
 717 0074 A36B     		ldr	r3, [r4, #56]
 718 0076 23F40013 		bic	r3, r3, #2097152
 719 007a A363     		str	r3, [r4, #56]
 323:Drivers/STM32F4xx_HAL_Driver/Src/stm32f4xx_ll_usb.c ****   }
 720              		.loc 1 323 0
 721 007c A36B     		ldr	r3, [r4, #56]
 722 007e 43F40023 		orr	r3, r3, #524288
 723 0082 A363     		str	r3, [r4, #56]
 724 0084 E3E7     		b	.L60
 725              	.L62:
 343:Drivers/STM32F4xx_HAL_Driver/Src/stm32f4xx_ll_usb.c ****     }
 726              		.loc 1 343 0
 727 0086 0121     		movs	r1, #1
 728 0088 2046     		mov	r0, r4
 729 008a FFF7FEFF 		bl	USB_SetDevSpeed
 730              	.LVL74:
 731 008e 03E0     		b	.L63
 732              	.L61:
 349:Drivers/STM32F4xx_HAL_Driver/Src/stm32f4xx_ll_usb.c ****   }
 733              		.loc 1 349 0
 734 0090 0321     		movs	r1, #3
 735 0092 2046     		mov	r0, r4
 736 0094 FFF7FEFF 		bl	USB_SetDevSpeed
 737              	.LVL75:
 738              	.L63:
 353:Drivers/STM32F4xx_HAL_Driver/Src/stm32f4xx_ll_usb.c ****   {
 739              		.loc 1 353 0
ARM GAS  C:\Users\User\AppData\Local\Temp\ccbub1mW.s 			page 39


 740 0098 1021     		movs	r1, #16
 741 009a 2046     		mov	r0, r4
 742 009c FFF7FEFF 		bl	USB_FlushTxFifo
 743              	.LVL76:
 744 00a0 8046     		mov	r8, r0
 745 00a2 08B1     		cbz	r0, .L64
 355:Drivers/STM32F4xx_HAL_Driver/Src/stm32f4xx_ll_usb.c ****   }
 746              		.loc 1 355 0
 747 00a4 4FF00108 		mov	r8, #1
 748              	.L64:
 749              	.LVL77:
 358:Drivers/STM32F4xx_HAL_Driver/Src/stm32f4xx_ll_usb.c ****   {
 750              		.loc 1 358 0
 751 00a8 2046     		mov	r0, r4
 752 00aa FFF7FEFF 		bl	USB_FlushRxFifo
 753              	.LVL78:
 754 00ae 08B1     		cbz	r0, .L65
 360:Drivers/STM32F4xx_HAL_Driver/Src/stm32f4xx_ll_usb.c ****   }
 755              		.loc 1 360 0
 756 00b0 4FF00108 		mov	r8, #1
 757              	.LVL79:
 758              	.L65:
 364:Drivers/STM32F4xx_HAL_Driver/Src/stm32f4xx_ll_usb.c ****   USBx_DEVICE->DOEPMSK = 0U;
 759              		.loc 1 364 0
 760 00b4 0023     		movs	r3, #0
 761 00b6 3361     		str	r3, [r6, #16]
 365:Drivers/STM32F4xx_HAL_Driver/Src/stm32f4xx_ll_usb.c ****   USBx_DEVICE->DAINTMSK = 0U;
 762              		.loc 1 365 0
 763 00b8 7361     		str	r3, [r6, #20]
 366:Drivers/STM32F4xx_HAL_Driver/Src/stm32f4xx_ll_usb.c **** 
 764              		.loc 1 366 0
 765 00ba F361     		str	r3, [r6, #28]
 766              	.LVL80:
 368:Drivers/STM32F4xx_HAL_Driver/Src/stm32f4xx_ll_usb.c ****   {
 767              		.loc 1 368 0
 768 00bc 0AE0     		b	.L66
 769              	.LVL81:
 770              	.L83:
 372:Drivers/STM32F4xx_HAL_Driver/Src/stm32f4xx_ll_usb.c ****       {
 771              		.loc 1 372 0
 772 00be C3B9     		cbnz	r3, .L68
 374:Drivers/STM32F4xx_HAL_Driver/Src/stm32f4xx_ll_usb.c ****       }
 773              		.loc 1 374 0
 774 00c0 4FF00060 		mov	r0, #134217728
 775 00c4 C2F80009 		str	r0, [r2, #2304]
 776              	.L69:
 386:Drivers/STM32F4xx_HAL_Driver/Src/stm32f4xx_ll_usb.c ****     USBx_INEP(i)->DIEPINT  = 0xFB7FU;
 777              		.loc 1 386 0 discriminator 2
 778 00c8 0022     		movs	r2, #0
 779 00ca 0A61     		str	r2, [r1, #16]
 387:Drivers/STM32F4xx_HAL_Driver/Src/stm32f4xx_ll_usb.c ****   }
 780              		.loc 1 387 0 discriminator 2
 781 00cc 4FF67F32 		movw	r2, #64383
 782 00d0 8A60     		str	r2, [r1, #8]
 368:Drivers/STM32F4xx_HAL_Driver/Src/stm32f4xx_ll_usb.c ****   {
 783              		.loc 1 368 0 discriminator 2
 784 00d2 0133     		adds	r3, r3, #1
ARM GAS  C:\Users\User\AppData\Local\Temp\ccbub1mW.s 			page 40


 785              	.LVL82:
 786              	.L66:
 368:Drivers/STM32F4xx_HAL_Driver/Src/stm32f4xx_ll_usb.c ****   {
 787              		.loc 1 368 0 is_stmt 0 discriminator 1
 788 00d4 0799     		ldr	r1, [sp, #28]
 789 00d6 9942     		cmp	r1, r3
 790 00d8 10D9     		bls	.L82
 370:Drivers/STM32F4xx_HAL_Driver/Src/stm32f4xx_ll_usb.c ****     {
 791              		.loc 1 370 0 is_stmt 1
 792 00da 05EB4312 		add	r2, r5, r3, lsl #5
 793 00de 02F51061 		add	r1, r2, #2304
 794 00e2 D2F80009 		ldr	r0, [r2, #2304]
 795 00e6 0028     		cmp	r0, #0
 796 00e8 E9DB     		blt	.L83
 383:Drivers/STM32F4xx_HAL_Driver/Src/stm32f4xx_ll_usb.c ****     }
 797              		.loc 1 383 0
 798 00ea 0020     		movs	r0, #0
 799 00ec C2F80009 		str	r0, [r2, #2304]
 800 00f0 EAE7     		b	.L69
 801              	.L68:
 378:Drivers/STM32F4xx_HAL_Driver/Src/stm32f4xx_ll_usb.c ****       }
 802              		.loc 1 378 0
 803 00f2 4FF09040 		mov	r0, #1207959552
 804 00f6 C2F80009 		str	r0, [r2, #2304]
 805 00fa E5E7     		b	.L69
 806              	.L82:
 390:Drivers/STM32F4xx_HAL_Driver/Src/stm32f4xx_ll_usb.c ****   {
 807              		.loc 1 390 0
 808 00fc 0023     		movs	r3, #0
 809              	.LVL83:
 810 00fe 0AE0     		b	.L71
 811              	.LVL84:
 812              	.L86:
 394:Drivers/STM32F4xx_HAL_Driver/Src/stm32f4xx_ll_usb.c ****       {
 813              		.loc 1 394 0
 814 0100 BBB1     		cbz	r3, .L84
 400:Drivers/STM32F4xx_HAL_Driver/Src/stm32f4xx_ll_usb.c ****       }
 815              		.loc 1 400 0
 816 0102 4FF09047 		mov	r7, #1207959552
 817 0106 C2F8007B 		str	r7, [r2, #2816]
 818              	.L74:
 408:Drivers/STM32F4xx_HAL_Driver/Src/stm32f4xx_ll_usb.c ****     USBx_OUTEP(i)->DOEPINT  = 0xFB7FU;
 819              		.loc 1 408 0 discriminator 2
 820 010a 0022     		movs	r2, #0
 821 010c 0261     		str	r2, [r0, #16]
 409:Drivers/STM32F4xx_HAL_Driver/Src/stm32f4xx_ll_usb.c ****   }
 822              		.loc 1 409 0 discriminator 2
 823 010e 4FF67F32 		movw	r2, #64383
 824 0112 8260     		str	r2, [r0, #8]
 390:Drivers/STM32F4xx_HAL_Driver/Src/stm32f4xx_ll_usb.c ****   {
 825              		.loc 1 390 0 discriminator 2
 826 0114 0133     		adds	r3, r3, #1
 827              	.LVL85:
 828              	.L71:
 390:Drivers/STM32F4xx_HAL_Driver/Src/stm32f4xx_ll_usb.c ****   {
 829              		.loc 1 390 0 is_stmt 0 discriminator 1
 830 0116 9942     		cmp	r1, r3
ARM GAS  C:\Users\User\AppData\Local\Temp\ccbub1mW.s 			page 41


 831 0118 10D9     		bls	.L85
 392:Drivers/STM32F4xx_HAL_Driver/Src/stm32f4xx_ll_usb.c ****     {
 832              		.loc 1 392 0 is_stmt 1
 833 011a 05EB4312 		add	r2, r5, r3, lsl #5
 834 011e 02F53060 		add	r0, r2, #2816
 835 0122 D2F8007B 		ldr	r7, [r2, #2816]
 836 0126 002F     		cmp	r7, #0
 837 0128 EADB     		blt	.L86
 405:Drivers/STM32F4xx_HAL_Driver/Src/stm32f4xx_ll_usb.c ****     }
 838              		.loc 1 405 0
 839 012a 0027     		movs	r7, #0
 840 012c C2F8007B 		str	r7, [r2, #2816]
 841 0130 EBE7     		b	.L74
 842              	.L84:
 396:Drivers/STM32F4xx_HAL_Driver/Src/stm32f4xx_ll_usb.c ****       }
 843              		.loc 1 396 0
 844 0132 4FF00067 		mov	r7, #134217728
 845 0136 C2F8007B 		str	r7, [r2, #2816]
 846 013a E6E7     		b	.L74
 847              	.L85:
 412:Drivers/STM32F4xx_HAL_Driver/Src/stm32f4xx_ll_usb.c **** 
 848              		.loc 1 412 0
 849 013c 3369     		ldr	r3, [r6, #16]
 850              	.LVL86:
 851 013e 23F48073 		bic	r3, r3, #256
 852 0142 3361     		str	r3, [r6, #16]
 415:Drivers/STM32F4xx_HAL_Driver/Src/stm32f4xx_ll_usb.c **** 
 853              		.loc 1 415 0
 854 0144 0023     		movs	r3, #0
 855 0146 A361     		str	r3, [r4, #24]
 418:Drivers/STM32F4xx_HAL_Driver/Src/stm32f4xx_ll_usb.c **** 
 856              		.loc 1 418 0
 857 0148 6FF08043 		mvn	r3, #1073741824
 858 014c 6361     		str	r3, [r4, #20]
 421:Drivers/STM32F4xx_HAL_Driver/Src/stm32f4xx_ll_usb.c ****   {
 859              		.loc 1 421 0
 860 014e 0A9B     		ldr	r3, [sp, #40]
 861 0150 1BB9     		cbnz	r3, .L76
 423:Drivers/STM32F4xx_HAL_Driver/Src/stm32f4xx_ll_usb.c ****   }
 862              		.loc 1 423 0
 863 0152 A369     		ldr	r3, [r4, #24]
 864 0154 43F01003 		orr	r3, r3, #16
 865 0158 A361     		str	r3, [r4, #24]
 866              	.L76:
 427:Drivers/STM32F4xx_HAL_Driver/Src/stm32f4xx_ll_usb.c ****                    USB_OTG_GINTMSK_ENUMDNEM | USB_OTG_GINTMSK_IEPINT |
 867              		.loc 1 427 0
 868 015a A269     		ldr	r2, [r4, #24]
 869 015c 0B4B     		ldr	r3, .L88
 870 015e 1343     		orrs	r3, r3, r2
 871 0160 A361     		str	r3, [r4, #24]
 432:Drivers/STM32F4xx_HAL_Driver/Src/stm32f4xx_ll_usb.c ****   {
 872              		.loc 1 432 0
 873 0162 0D9B     		ldr	r3, [sp, #52]
 874 0164 1BB1     		cbz	r3, .L77
 434:Drivers/STM32F4xx_HAL_Driver/Src/stm32f4xx_ll_usb.c ****   }
 875              		.loc 1 434 0
 876 0166 A369     		ldr	r3, [r4, #24]
ARM GAS  C:\Users\User\AppData\Local\Temp\ccbub1mW.s 			page 42


 877 0168 43F00803 		orr	r3, r3, #8
 878 016c A361     		str	r3, [r4, #24]
 879              	.L77:
 437:Drivers/STM32F4xx_HAL_Driver/Src/stm32f4xx_ll_usb.c ****   {
 880              		.loc 1 437 0
 881 016e 119B     		ldr	r3, [sp, #68]
 882 0170 012B     		cmp	r3, #1
 883 0172 04D0     		beq	.L87
 884              	.L78:
 443:Drivers/STM32F4xx_HAL_Driver/Src/stm32f4xx_ll_usb.c **** 
 885              		.loc 1 443 0
 886 0174 4046     		mov	r0, r8
 887 0176 BDE8F041 		pop	{r4, r5, r6, r7, r8, lr}
 888              	.LCFI8:
 889              		.cfi_remember_state
 890              		.cfi_restore 14
 891              		.cfi_restore 8
 892              		.cfi_restore 7
 893              		.cfi_restore 6
 894              		.cfi_restore 5
 895              		.cfi_restore 4
 896              		.cfi_def_cfa_offset 16
 897              	.LVL87:
 898 017a 04B0     		add	sp, sp, #16
 899              	.LCFI9:
 900              		.cfi_def_cfa_offset 0
 901 017c 7047     		bx	lr
 902              	.LVL88:
 903              	.L87:
 904              	.LCFI10:
 905              		.cfi_restore_state
 439:Drivers/STM32F4xx_HAL_Driver/Src/stm32f4xx_ll_usb.c ****   }
 906              		.loc 1 439 0
 907 017e A369     		ldr	r3, [r4, #24]
 908 0180 43F08043 		orr	r3, r3, #1073741824
 909 0184 43F00403 		orr	r3, r3, #4
 910 0188 A361     		str	r3, [r4, #24]
 911 018a F3E7     		b	.L78
 912              	.L89:
 913              		.align	2
 914              	.L88:
 915 018c 00383C80 		.word	-2143537152
 916              		.cfi_endproc
 917              	.LFE135:
 919              		.section	.text.USB_GetDevSpeed,"ax",%progbits
 920              		.align	1
 921              		.global	USB_GetDevSpeed
 922              		.syntax unified
 923              		.thumb
 924              		.thumb_func
 925              		.fpu fpv4-sp-d16
 927              	USB_GetDevSpeed:
 928              	.LFB139:
 520:Drivers/STM32F4xx_HAL_Driver/Src/stm32f4xx_ll_usb.c ****   uint32_t USBx_BASE = (uint32_t)USBx;
 929              		.loc 1 520 0
 930              		.cfi_startproc
 931              		@ args = 0, pretend = 0, frame = 0
ARM GAS  C:\Users\User\AppData\Local\Temp\ccbub1mW.s 			page 43


 932              		@ frame_needed = 0, uses_anonymous_args = 0
 933              		@ link register save eliminated.
 934              	.LVL89:
 523:Drivers/STM32F4xx_HAL_Driver/Src/stm32f4xx_ll_usb.c **** 
 935              		.loc 1 523 0
 936 0000 D0F80838 		ldr	r3, [r0, #2056]
 937              	.LVL90:
 525:Drivers/STM32F4xx_HAL_Driver/Src/stm32f4xx_ll_usb.c ****   {
 938              		.loc 1 525 0
 939 0004 13F00603 		ands	r3, r3, #6
 940              	.LVL91:
 941 0008 07D0     		beq	.L92
 529:Drivers/STM32F4xx_HAL_Driver/Src/stm32f4xx_ll_usb.c ****            (DevEnumSpeed == DSTS_ENUMSPD_FS_PHY_48MHZ))
 942              		.loc 1 529 0
 943 000a 022B     		cmp	r3, #2
 944 000c 07D0     		beq	.L93
 529:Drivers/STM32F4xx_HAL_Driver/Src/stm32f4xx_ll_usb.c ****            (DevEnumSpeed == DSTS_ENUMSPD_FS_PHY_48MHZ))
 945              		.loc 1 529 0 is_stmt 0 discriminator 1
 946 000e 062B     		cmp	r3, #6
 947 0010 01D0     		beq	.L95
 536:Drivers/STM32F4xx_HAL_Driver/Src/stm32f4xx_ll_usb.c ****   }
 948              		.loc 1 536 0 is_stmt 1
 949 0012 0F20     		movs	r0, #15
 950              	.LVL92:
 540:Drivers/STM32F4xx_HAL_Driver/Src/stm32f4xx_ll_usb.c **** 
 951              		.loc 1 540 0
 952 0014 7047     		bx	lr
 953              	.LVL93:
 954              	.L95:
 532:Drivers/STM32F4xx_HAL_Driver/Src/stm32f4xx_ll_usb.c ****   }
 955              		.loc 1 532 0
 956 0016 0220     		movs	r0, #2
 957              	.LVL94:
 958 0018 7047     		bx	lr
 959              	.LVL95:
 960              	.L92:
 527:Drivers/STM32F4xx_HAL_Driver/Src/stm32f4xx_ll_usb.c ****   }
 961              		.loc 1 527 0
 962 001a 0020     		movs	r0, #0
 963              	.LVL96:
 964 001c 7047     		bx	lr
 965              	.LVL97:
 966              	.L93:
 532:Drivers/STM32F4xx_HAL_Driver/Src/stm32f4xx_ll_usb.c ****   }
 967              		.loc 1 532 0
 968 001e 0220     		movs	r0, #2
 969              	.LVL98:
 970 0020 7047     		bx	lr
 971              		.cfi_endproc
 972              	.LFE139:
 974              		.section	.text.USB_ActivateEndpoint,"ax",%progbits
 975              		.align	1
 976              		.global	USB_ActivateEndpoint
 977              		.syntax unified
 978              		.thumb
 979              		.thumb_func
 980              		.fpu fpv4-sp-d16
ARM GAS  C:\Users\User\AppData\Local\Temp\ccbub1mW.s 			page 44


 982              	USB_ActivateEndpoint:
 983              	.LFB140:
 549:Drivers/STM32F4xx_HAL_Driver/Src/stm32f4xx_ll_usb.c ****   uint32_t USBx_BASE = (uint32_t)USBx;
 984              		.loc 1 549 0
 985              		.cfi_startproc
 986              		@ args = 0, pretend = 0, frame = 0
 987              		@ frame_needed = 0, uses_anonymous_args = 0
 988              		@ link register save eliminated.
 989              	.LVL99:
 990 0000 70B4     		push	{r4, r5, r6}
 991              	.LCFI11:
 992              		.cfi_def_cfa_offset 12
 993              		.cfi_offset 4, -12
 994              		.cfi_offset 5, -8
 995              		.cfi_offset 6, -4
 996              	.LVL100:
 551:Drivers/STM32F4xx_HAL_Driver/Src/stm32f4xx_ll_usb.c **** 
 997              		.loc 1 551 0
 998 0002 0B78     		ldrb	r3, [r1]	@ zero_extendqisi2
 999              	.LVL101:
 553:Drivers/STM32F4xx_HAL_Driver/Src/stm32f4xx_ll_usb.c ****   {
 1000              		.loc 1 553 0
 1001 0004 4A78     		ldrb	r2, [r1, #1]	@ zero_extendqisi2
 1002 0006 012A     		cmp	r2, #1
 1003 0008 22D0     		beq	.L100
 567:Drivers/STM32F4xx_HAL_Driver/Src/stm32f4xx_ll_usb.c **** 
 1004              		.loc 1 567 0
 1005 000a D0F81C28 		ldr	r2, [r0, #2076]
 1006 000e 03F00F06 		and	r6, r3, #15
 1007 0012 0124     		movs	r4, #1
 1008 0014 B440     		lsls	r4, r4, r6
 1009 0016 42EA0442 		orr	r2, r2, r4, lsl #16
 1010 001a C0F81C28 		str	r2, [r0, #2076]
 569:Drivers/STM32F4xx_HAL_Driver/Src/stm32f4xx_ll_usb.c ****     {
 1011              		.loc 1 569 0
 1012 001e 00EB4310 		add	r0, r0, r3, lsl #5
 1013              	.LVL102:
 1014 0022 D0F8003B 		ldr	r3, [r0, #2816]
 1015              	.LVL103:
 1016 0026 13F4004F 		tst	r3, #32768
 1017 002a 0ED1     		bne	.L98
 571:Drivers/STM32F4xx_HAL_Driver/Src/stm32f4xx_ll_usb.c ****                                     ((uint32_t)ep->type << 18) |
 1018              		.loc 1 571 0
 1019 002c D0F8003B 		ldr	r3, [r0, #2816]
 1020 0030 8A68     		ldr	r2, [r1, #8]
 1021 0032 C2F30A02 		ubfx	r2, r2, #0, #11
 572:Drivers/STM32F4xx_HAL_Driver/Src/stm32f4xx_ll_usb.c ****                                     USB_OTG_DIEPCTL_SD0PID_SEVNFRM |
 1022              		.loc 1 572 0
 1023 0036 C978     		ldrb	r1, [r1, #3]	@ zero_extendqisi2
 1024              	.LVL104:
 571:Drivers/STM32F4xx_HAL_Driver/Src/stm32f4xx_ll_usb.c ****                                     ((uint32_t)ep->type << 18) |
 1025              		.loc 1 571 0
 1026 0038 42EA8142 		orr	r2, r2, r1, lsl #18
 1027 003c 1343     		orrs	r3, r3, r2
 1028 003e 43F08053 		orr	r3, r3, #268435456
 1029 0042 43F40043 		orr	r3, r3, #32768
 1030 0046 C0F8003B 		str	r3, [r0, #2816]
ARM GAS  C:\Users\User\AppData\Local\Temp\ccbub1mW.s 			page 45


 1031              	.L98:
 578:Drivers/STM32F4xx_HAL_Driver/Src/stm32f4xx_ll_usb.c **** 
 1032              		.loc 1 578 0
 1033 004a 0020     		movs	r0, #0
 1034 004c 70BC     		pop	{r4, r5, r6}
 1035              	.LCFI12:
 1036              		.cfi_remember_state
 1037              		.cfi_restore 6
 1038              		.cfi_restore 5
 1039              		.cfi_restore 4
 1040              		.cfi_def_cfa_offset 0
 1041 004e 7047     		bx	lr
 1042              	.LVL105:
 1043              	.L100:
 1044              	.LCFI13:
 1045              		.cfi_restore_state
 555:Drivers/STM32F4xx_HAL_Driver/Src/stm32f4xx_ll_usb.c **** 
 1046              		.loc 1 555 0
 1047 0050 D0F81C48 		ldr	r4, [r0, #2076]
 1048 0054 03F00F06 		and	r6, r3, #15
 1049 0058 B240     		lsls	r2, r2, r6
 1050 005a 92B2     		uxth	r2, r2
 1051 005c 2243     		orrs	r2, r2, r4
 1052 005e C0F81C28 		str	r2, [r0, #2076]
 557:Drivers/STM32F4xx_HAL_Driver/Src/stm32f4xx_ll_usb.c ****     {
 1053              		.loc 1 557 0
 1054 0062 00EB4310 		add	r0, r0, r3, lsl #5
 1055              	.LVL106:
 1056 0066 D0F80029 		ldr	r2, [r0, #2304]
 1057 006a 12F4004F 		tst	r2, #32768
 1058 006e ECD1     		bne	.L98
 559:Drivers/STM32F4xx_HAL_Driver/Src/stm32f4xx_ll_usb.c ****                                    ((uint32_t)ep->type << 18) | (epnum << 22) |
 1059              		.loc 1 559 0
 1060 0070 D0F80029 		ldr	r2, [r0, #2304]
 1061 0074 8C68     		ldr	r4, [r1, #8]
 1062 0076 C4F30A04 		ubfx	r4, r4, #0, #11
 560:Drivers/STM32F4xx_HAL_Driver/Src/stm32f4xx_ll_usb.c ****                                    USB_OTG_DIEPCTL_SD0PID_SEVNFRM |
 1063              		.loc 1 560 0
 1064 007a C978     		ldrb	r1, [r1, #3]	@ zero_extendqisi2
 1065              	.LVL107:
 559:Drivers/STM32F4xx_HAL_Driver/Src/stm32f4xx_ll_usb.c ****                                    ((uint32_t)ep->type << 18) | (epnum << 22) |
 1066              		.loc 1 559 0
 1067 007c 44EA8144 		orr	r4, r4, r1, lsl #18
 560:Drivers/STM32F4xx_HAL_Driver/Src/stm32f4xx_ll_usb.c ****                                    USB_OTG_DIEPCTL_SD0PID_SEVNFRM |
 1068              		.loc 1 560 0
 1069 0080 44EA8353 		orr	r3, r4, r3, lsl #22
 1070              	.LVL108:
 559:Drivers/STM32F4xx_HAL_Driver/Src/stm32f4xx_ll_usb.c ****                                    ((uint32_t)ep->type << 18) | (epnum << 22) |
 1071              		.loc 1 559 0
 1072 0084 1343     		orrs	r3, r3, r2
 1073 0086 43F08053 		orr	r3, r3, #268435456
 1074 008a 43F40043 		orr	r3, r3, #32768
 1075 008e C0F80039 		str	r3, [r0, #2304]
 1076 0092 DAE7     		b	.L98
 1077              		.cfi_endproc
 1078              	.LFE140:
 1080              		.section	.text.USB_ActivateDedicatedEndpoint,"ax",%progbits
ARM GAS  C:\Users\User\AppData\Local\Temp\ccbub1mW.s 			page 46


 1081              		.align	1
 1082              		.global	USB_ActivateDedicatedEndpoint
 1083              		.syntax unified
 1084              		.thumb
 1085              		.thumb_func
 1086              		.fpu fpv4-sp-d16
 1088              	USB_ActivateDedicatedEndpoint:
 1089              	.LFB141:
 587:Drivers/STM32F4xx_HAL_Driver/Src/stm32f4xx_ll_usb.c ****   uint32_t USBx_BASE = (uint32_t)USBx;
 1090              		.loc 1 587 0
 1091              		.cfi_startproc
 1092              		@ args = 0, pretend = 0, frame = 0
 1093              		@ frame_needed = 0, uses_anonymous_args = 0
 1094              		@ link register save eliminated.
 1095              	.LVL109:
 1096 0000 70B4     		push	{r4, r5, r6}
 1097              	.LCFI14:
 1098              		.cfi_def_cfa_offset 12
 1099              		.cfi_offset 4, -12
 1100              		.cfi_offset 5, -8
 1101              		.cfi_offset 6, -4
 1102              	.LVL110:
 589:Drivers/STM32F4xx_HAL_Driver/Src/stm32f4xx_ll_usb.c **** 
 1103              		.loc 1 589 0
 1104 0002 0A78     		ldrb	r2, [r1]	@ zero_extendqisi2
 1105              	.LVL111:
 592:Drivers/STM32F4xx_HAL_Driver/Src/stm32f4xx_ll_usb.c ****   {
 1106              		.loc 1 592 0
 1107 0004 4B78     		ldrb	r3, [r1, #1]	@ zero_extendqisi2
 1108 0006 012B     		cmp	r3, #1
 1109 0008 23D0     		beq	.L107
 606:Drivers/STM32F4xx_HAL_Driver/Src/stm32f4xx_ll_usb.c ****     {
 1110              		.loc 1 606 0
 1111 000a 00EB4214 		add	r4, r0, r2, lsl #5
 1112 000e D4F8003B 		ldr	r3, [r4, #2816]
 1113 0012 13F4004F 		tst	r3, #32768
 1114 0016 0ED1     		bne	.L105
 608:Drivers/STM32F4xx_HAL_Driver/Src/stm32f4xx_ll_usb.c ****                                     ((uint32_t)ep->type << 18) | (epnum << 22) |
 1115              		.loc 1 608 0
 1116 0018 D4F8005B 		ldr	r5, [r4, #2816]
 1117 001c 8B68     		ldr	r3, [r1, #8]
 1118 001e C3F30A03 		ubfx	r3, r3, #0, #11
 609:Drivers/STM32F4xx_HAL_Driver/Src/stm32f4xx_ll_usb.c ****                                     USB_OTG_DOEPCTL_USBAEP;
 1119              		.loc 1 609 0
 1120 0022 CE78     		ldrb	r6, [r1, #3]	@ zero_extendqisi2
 608:Drivers/STM32F4xx_HAL_Driver/Src/stm32f4xx_ll_usb.c ****                                     ((uint32_t)ep->type << 18) | (epnum << 22) |
 1121              		.loc 1 608 0
 1122 0024 43EA8643 		orr	r3, r3, r6, lsl #18
 609:Drivers/STM32F4xx_HAL_Driver/Src/stm32f4xx_ll_usb.c ****                                     USB_OTG_DOEPCTL_USBAEP;
 1123              		.loc 1 609 0
 1124 0028 43EA8253 		orr	r3, r3, r2, lsl #22
 608:Drivers/STM32F4xx_HAL_Driver/Src/stm32f4xx_ll_usb.c ****                                     ((uint32_t)ep->type << 18) | (epnum << 22) |
 1125              		.loc 1 608 0
 1126 002c 2B43     		orrs	r3, r3, r5
 1127 002e 43F40043 		orr	r3, r3, #32768
 1128 0032 C4F8003B 		str	r3, [r4, #2816]
 1129              	.L105:
ARM GAS  C:\Users\User\AppData\Local\Temp\ccbub1mW.s 			page 47


 613:Drivers/STM32F4xx_HAL_Driver/Src/stm32f4xx_ll_usb.c ****   }
 1130              		.loc 1 613 0
 1131 0036 D0F83C38 		ldr	r3, [r0, #2108]
 1132 003a 0A78     		ldrb	r2, [r1]	@ zero_extendqisi2
 1133              	.LVL112:
 1134 003c 02F00F01 		and	r1, r2, #15
 1135              	.LVL113:
 1136 0040 0122     		movs	r2, #1
 1137 0042 8A40     		lsls	r2, r2, r1
 1138 0044 43EA0243 		orr	r3, r3, r2, lsl #16
 1139 0048 C0F83C38 		str	r3, [r0, #2108]
 1140              	.L104:
 617:Drivers/STM32F4xx_HAL_Driver/Src/stm32f4xx_ll_usb.c **** 
 1141              		.loc 1 617 0
 1142 004c 0020     		movs	r0, #0
 1143              	.LVL114:
 1144 004e 70BC     		pop	{r4, r5, r6}
 1145              	.LCFI15:
 1146              		.cfi_remember_state
 1147              		.cfi_restore 6
 1148              		.cfi_restore 5
 1149              		.cfi_restore 4
 1150              		.cfi_def_cfa_offset 0
 1151 0050 7047     		bx	lr
 1152              	.LVL115:
 1153              	.L107:
 1154              	.LCFI16:
 1155              		.cfi_restore_state
 594:Drivers/STM32F4xx_HAL_Driver/Src/stm32f4xx_ll_usb.c ****     {
 1156              		.loc 1 594 0
 1157 0052 00EB4215 		add	r5, r0, r2, lsl #5
 1158 0056 D5F80039 		ldr	r3, [r5, #2304]
 1159 005a 13F4004F 		tst	r3, #32768
 1160 005e 10D1     		bne	.L103
 596:Drivers/STM32F4xx_HAL_Driver/Src/stm32f4xx_ll_usb.c ****                                    ((uint32_t)ep->type << 18) | (epnum << 22) |
 1161              		.loc 1 596 0
 1162 0060 D5F80039 		ldr	r3, [r5, #2304]
 1163 0064 8C68     		ldr	r4, [r1, #8]
 1164 0066 C4F30A04 		ubfx	r4, r4, #0, #11
 597:Drivers/STM32F4xx_HAL_Driver/Src/stm32f4xx_ll_usb.c ****                                    USB_OTG_DIEPCTL_SD0PID_SEVNFRM |
 1165              		.loc 1 597 0
 1166 006a CE78     		ldrb	r6, [r1, #3]	@ zero_extendqisi2
 596:Drivers/STM32F4xx_HAL_Driver/Src/stm32f4xx_ll_usb.c ****                                    ((uint32_t)ep->type << 18) | (epnum << 22) |
 1167              		.loc 1 596 0
 1168 006c 44EA8644 		orr	r4, r4, r6, lsl #18
 597:Drivers/STM32F4xx_HAL_Driver/Src/stm32f4xx_ll_usb.c ****                                    USB_OTG_DIEPCTL_SD0PID_SEVNFRM |
 1169              		.loc 1 597 0
 1170 0070 44EA8252 		orr	r2, r4, r2, lsl #22
 1171              	.LVL116:
 596:Drivers/STM32F4xx_HAL_Driver/Src/stm32f4xx_ll_usb.c ****                                    ((uint32_t)ep->type << 18) | (epnum << 22) |
 1172              		.loc 1 596 0
 1173 0074 1343     		orrs	r3, r3, r2
 1174 0076 43F08053 		orr	r3, r3, #268435456
 1175 007a 43F40043 		orr	r3, r3, #32768
 1176 007e C5F80039 		str	r3, [r5, #2304]
 1177              	.LVL117:
 1178              	.L103:
ARM GAS  C:\Users\User\AppData\Local\Temp\ccbub1mW.s 			page 48


 602:Drivers/STM32F4xx_HAL_Driver/Src/stm32f4xx_ll_usb.c ****   }
 1179              		.loc 1 602 0
 1180 0082 D0F83C28 		ldr	r2, [r0, #2108]
 1181 0086 0B78     		ldrb	r3, [r1]	@ zero_extendqisi2
 1182 0088 03F00F01 		and	r1, r3, #15
 1183              	.LVL118:
 1184 008c 0123     		movs	r3, #1
 1185 008e 8B40     		lsls	r3, r3, r1
 1186 0090 9BB2     		uxth	r3, r3
 1187 0092 1343     		orrs	r3, r3, r2
 1188 0094 C0F83C38 		str	r3, [r0, #2108]
 1189 0098 D8E7     		b	.L104
 1190              		.cfi_endproc
 1191              	.LFE141:
 1193              		.section	.text.USB_DeactivateEndpoint,"ax",%progbits
 1194              		.align	1
 1195              		.global	USB_DeactivateEndpoint
 1196              		.syntax unified
 1197              		.thumb
 1198              		.thumb_func
 1199              		.fpu fpv4-sp-d16
 1201              	USB_DeactivateEndpoint:
 1202              	.LFB142:
 626:Drivers/STM32F4xx_HAL_Driver/Src/stm32f4xx_ll_usb.c ****   uint32_t USBx_BASE = (uint32_t)USBx;
 1203              		.loc 1 626 0
 1204              		.cfi_startproc
 1205              		@ args = 0, pretend = 0, frame = 0
 1206              		@ frame_needed = 0, uses_anonymous_args = 0
 1207              		@ link register save eliminated.
 1208              	.LVL119:
 1209 0000 30B4     		push	{r4, r5}
 1210              	.LCFI17:
 1211              		.cfi_def_cfa_offset 8
 1212              		.cfi_offset 4, -8
 1213              		.cfi_offset 5, -4
 1214              	.LVL120:
 628:Drivers/STM32F4xx_HAL_Driver/Src/stm32f4xx_ll_usb.c **** 
 1215              		.loc 1 628 0
 1216 0002 0B78     		ldrb	r3, [r1]	@ zero_extendqisi2
 1217              	.LVL121:
 631:Drivers/STM32F4xx_HAL_Driver/Src/stm32f4xx_ll_usb.c ****   {
 1218              		.loc 1 631 0
 1219 0004 4A78     		ldrb	r2, [r1, #1]	@ zero_extendqisi2
 1220 0006 012A     		cmp	r2, #1
 1221 0008 24D0     		beq	.L114
 649:Drivers/STM32F4xx_HAL_Driver/Src/stm32f4xx_ll_usb.c ****     {
 1222              		.loc 1 649 0
 1223 000a 00EB4313 		add	r3, r0, r3, lsl #5
 1224              	.LVL122:
 1225 000e D3F8002B 		ldr	r2, [r3, #2816]
 1226 0012 002A     		cmp	r2, #0
 1227 0014 50DB     		blt	.L115
 1228              	.LVL123:
 1229              	.L112:
 655:Drivers/STM32F4xx_HAL_Driver/Src/stm32f4xx_ll_usb.c ****     USBx_DEVICE->DAINTMSK &= ~(USB_OTG_DAINTMSK_OEPM & ((uint32_t)(1UL << (ep->num & EP_ADDR_MSK)) 
 1230              		.loc 1 655 0
 1231 0016 D0F83C58 		ldr	r5, [r0, #2108]
ARM GAS  C:\Users\User\AppData\Local\Temp\ccbub1mW.s 			page 49


 1232 001a 0A78     		ldrb	r2, [r1]	@ zero_extendqisi2
 1233 001c 02F00F02 		and	r2, r2, #15
 1234 0020 0124     		movs	r4, #1
 1235 0022 04FA02F2 		lsl	r2, r4, r2
 1236 0026 25EA0242 		bic	r2, r5, r2, lsl #16
 1237 002a C0F83C28 		str	r2, [r0, #2108]
 656:Drivers/STM32F4xx_HAL_Driver/Src/stm32f4xx_ll_usb.c ****     USBx_OUTEP(epnum)->DOEPCTL &= ~(USB_OTG_DOEPCTL_USBAEP |
 1238              		.loc 1 656 0
 1239 002e D0F81C28 		ldr	r2, [r0, #2076]
 1240 0032 0978     		ldrb	r1, [r1]	@ zero_extendqisi2
 1241              	.LVL124:
 1242 0034 01F00F01 		and	r1, r1, #15
 1243 0038 8C40     		lsls	r4, r4, r1
 1244 003a 22EA0444 		bic	r4, r2, r4, lsl #16
 1245 003e C0F81C48 		str	r4, [r0, #2076]
 657:Drivers/STM32F4xx_HAL_Driver/Src/stm32f4xx_ll_usb.c ****                                     USB_OTG_DOEPCTL_MPSIZ |
 1246              		.loc 1 657 0
 1247 0042 D3F8001B 		ldr	r1, [r3, #2816]
 1248 0046 234A     		ldr	r2, .L117
 1249 0048 0A40     		ands	r2, r2, r1
 1250 004a C3F8002B 		str	r2, [r3, #2816]
 1251              	.L111:
 664:Drivers/STM32F4xx_HAL_Driver/Src/stm32f4xx_ll_usb.c **** 
 1252              		.loc 1 664 0
 1253 004e 0020     		movs	r0, #0
 1254              	.LVL125:
 1255 0050 30BC     		pop	{r4, r5}
 1256              	.LCFI18:
 1257              		.cfi_remember_state
 1258              		.cfi_restore 5
 1259              		.cfi_restore 4
 1260              		.cfi_def_cfa_offset 0
 1261 0052 7047     		bx	lr
 1262              	.LVL126:
 1263              	.L114:
 1264              	.LCFI19:
 1265              		.cfi_restore_state
 633:Drivers/STM32F4xx_HAL_Driver/Src/stm32f4xx_ll_usb.c ****     {
 1266              		.loc 1 633 0
 1267 0054 00EB4313 		add	r3, r0, r3, lsl #5
 1268              	.LVL127:
 1269 0058 D3F80029 		ldr	r2, [r3, #2304]
 1270 005c 002A     		cmp	r2, #0
 1271 005e 1EDB     		blt	.L116
 1272              	.LVL128:
 1273              	.L110:
 639:Drivers/STM32F4xx_HAL_Driver/Src/stm32f4xx_ll_usb.c ****     USBx_DEVICE->DAINTMSK &= ~(USB_OTG_DAINTMSK_IEPM & (uint32_t)(1UL << (ep->num & EP_ADDR_MSK)));
 1274              		.loc 1 639 0
 1275 0060 D0F83C58 		ldr	r5, [r0, #2108]
 1276 0064 0A78     		ldrb	r2, [r1]	@ zero_extendqisi2
 1277 0066 02F00F02 		and	r2, r2, #15
 1278 006a 0124     		movs	r4, #1
 1279 006c 04FA02F2 		lsl	r2, r4, r2
 1280 0070 92B2     		uxth	r2, r2
 1281 0072 25EA0202 		bic	r2, r5, r2
 1282 0076 C0F83C28 		str	r2, [r0, #2108]
 640:Drivers/STM32F4xx_HAL_Driver/Src/stm32f4xx_ll_usb.c ****     USBx_INEP(epnum)->DIEPCTL &= ~(USB_OTG_DIEPCTL_USBAEP |
ARM GAS  C:\Users\User\AppData\Local\Temp\ccbub1mW.s 			page 50


 1283              		.loc 1 640 0
 1284 007a D0F81C28 		ldr	r2, [r0, #2076]
 1285 007e 0978     		ldrb	r1, [r1]	@ zero_extendqisi2
 1286              	.LVL129:
 1287 0080 01F00F01 		and	r1, r1, #15
 1288 0084 8C40     		lsls	r4, r4, r1
 1289 0086 A4B2     		uxth	r4, r4
 1290 0088 22EA0404 		bic	r4, r2, r4
 1291 008c C0F81C48 		str	r4, [r0, #2076]
 641:Drivers/STM32F4xx_HAL_Driver/Src/stm32f4xx_ll_usb.c ****                                    USB_OTG_DIEPCTL_MPSIZ |
 1292              		.loc 1 641 0
 1293 0090 D3F80019 		ldr	r1, [r3, #2304]
 1294 0094 104A     		ldr	r2, .L117+4
 1295 0096 0A40     		ands	r2, r2, r1
 1296 0098 C3F80029 		str	r2, [r3, #2304]
 1297 009c D7E7     		b	.L111
 1298              	.LVL130:
 1299              	.L116:
 635:Drivers/STM32F4xx_HAL_Driver/Src/stm32f4xx_ll_usb.c ****       USBx_INEP(epnum)->DIEPCTL |= USB_OTG_DIEPCTL_EPDIS;
 1300              		.loc 1 635 0
 1301 009e D3F80029 		ldr	r2, [r3, #2304]
 1302 00a2 42F00062 		orr	r2, r2, #134217728
 1303 00a6 C3F80029 		str	r2, [r3, #2304]
 1304              	.LVL131:
 636:Drivers/STM32F4xx_HAL_Driver/Src/stm32f4xx_ll_usb.c ****     }
 1305              		.loc 1 636 0
 1306 00aa D3F80029 		ldr	r2, [r3, #2304]
 1307 00ae 42F08042 		orr	r2, r2, #1073741824
 1308 00b2 C3F80029 		str	r2, [r3, #2304]
 1309 00b6 D3E7     		b	.L110
 1310              	.LVL132:
 1311              	.L115:
 651:Drivers/STM32F4xx_HAL_Driver/Src/stm32f4xx_ll_usb.c ****       USBx_OUTEP(epnum)->DOEPCTL |= USB_OTG_DOEPCTL_EPDIS;
 1312              		.loc 1 651 0
 1313 00b8 D3F8002B 		ldr	r2, [r3, #2816]
 1314 00bc 42F00062 		orr	r2, r2, #134217728
 1315 00c0 C3F8002B 		str	r2, [r3, #2816]
 1316              	.LVL133:
 652:Drivers/STM32F4xx_HAL_Driver/Src/stm32f4xx_ll_usb.c ****     }
 1317              		.loc 1 652 0
 1318 00c4 D3F8002B 		ldr	r2, [r3, #2816]
 1319 00c8 42F08042 		orr	r2, r2, #1073741824
 1320 00cc C3F8002B 		str	r2, [r3, #2816]
 1321 00d0 A1E7     		b	.L112
 1322              	.L118:
 1323 00d2 00BF     		.align	2
 1324              	.L117:
 1325 00d4 0078F3EF 		.word	-269256704
 1326 00d8 007833EC 		.word	-332171264
 1327              		.cfi_endproc
 1328              	.LFE142:
 1330              		.section	.text.USB_DeactivateDedicatedEndpoint,"ax",%progbits
 1331              		.align	1
 1332              		.global	USB_DeactivateDedicatedEndpoint
 1333              		.syntax unified
 1334              		.thumb
 1335              		.thumb_func
ARM GAS  C:\Users\User\AppData\Local\Temp\ccbub1mW.s 			page 51


 1336              		.fpu fpv4-sp-d16
 1338              	USB_DeactivateDedicatedEndpoint:
 1339              	.LFB143:
 673:Drivers/STM32F4xx_HAL_Driver/Src/stm32f4xx_ll_usb.c ****   uint32_t USBx_BASE = (uint32_t)USBx;
 1340              		.loc 1 673 0
 1341              		.cfi_startproc
 1342              		@ args = 0, pretend = 0, frame = 0
 1343              		@ frame_needed = 0, uses_anonymous_args = 0
 1344              		@ link register save eliminated.
 1345              	.LVL134:
 675:Drivers/STM32F4xx_HAL_Driver/Src/stm32f4xx_ll_usb.c **** 
 1346              		.loc 1 675 0
 1347 0000 0B78     		ldrb	r3, [r1]	@ zero_extendqisi2
 1348              	.LVL135:
 678:Drivers/STM32F4xx_HAL_Driver/Src/stm32f4xx_ll_usb.c ****   {
 1349              		.loc 1 678 0
 1350 0002 4A78     		ldrb	r2, [r1, #1]	@ zero_extendqisi2
 1351 0004 012A     		cmp	r2, #1
 1352 0006 18D0     		beq	.L124
 691:Drivers/STM32F4xx_HAL_Driver/Src/stm32f4xx_ll_usb.c ****     {
 1353              		.loc 1 691 0
 1354 0008 00EB4313 		add	r3, r0, r3, lsl #5
 1355              	.LVL136:
 1356 000c D3F8002B 		ldr	r2, [r3, #2816]
 1357 0010 002A     		cmp	r2, #0
 1358 0012 38DB     		blt	.L125
 1359              	.LVL137:
 1360              	.L123:
 697:Drivers/STM32F4xx_HAL_Driver/Src/stm32f4xx_ll_usb.c ****     USBx_DEVICE->DAINTMSK &= ~(USB_OTG_DAINTMSK_OEPM & ((uint32_t)(1UL << (ep->num & EP_ADDR_MSK)) 
 1361              		.loc 1 697 0
 1362 0014 D3F8002B 		ldr	r2, [r3, #2816]
 1363 0018 22F40042 		bic	r2, r2, #32768
 1364 001c C3F8002B 		str	r2, [r3, #2816]
 698:Drivers/STM32F4xx_HAL_Driver/Src/stm32f4xx_ll_usb.c ****   }
 1365              		.loc 1 698 0
 1366 0020 D0F81C38 		ldr	r3, [r0, #2076]
 1367 0024 0A78     		ldrb	r2, [r1]	@ zero_extendqisi2
 1368 0026 02F00F01 		and	r1, r2, #15
 1369              	.LVL138:
 1370 002a 0122     		movs	r2, #1
 1371 002c 8A40     		lsls	r2, r2, r1
 1372 002e 23EA0243 		bic	r3, r3, r2, lsl #16
 1373 0032 C0F81C38 		str	r3, [r0, #2076]
 1374              	.L122:
 702:Drivers/STM32F4xx_HAL_Driver/Src/stm32f4xx_ll_usb.c **** 
 1375              		.loc 1 702 0
 1376 0036 0020     		movs	r0, #0
 1377              	.LVL139:
 1378 0038 7047     		bx	lr
 1379              	.LVL140:
 1380              	.L124:
 680:Drivers/STM32F4xx_HAL_Driver/Src/stm32f4xx_ll_usb.c ****     {
 1381              		.loc 1 680 0
 1382 003a 00EB4313 		add	r3, r0, r3, lsl #5
 1383              	.LVL141:
 1384 003e D3F80029 		ldr	r2, [r3, #2304]
 1385 0042 002A     		cmp	r2, #0
ARM GAS  C:\Users\User\AppData\Local\Temp\ccbub1mW.s 			page 52


 1386 0044 12DB     		blt	.L126
 1387              	.LVL142:
 1388              	.L121:
 686:Drivers/STM32F4xx_HAL_Driver/Src/stm32f4xx_ll_usb.c ****     USBx_DEVICE->DAINTMSK &= ~(USB_OTG_DAINTMSK_IEPM & (uint32_t)(1UL << (ep->num & EP_ADDR_MSK)));
 1389              		.loc 1 686 0
 1390 0046 D3F80029 		ldr	r2, [r3, #2304]
 1391 004a 22F40042 		bic	r2, r2, #32768
 1392 004e C3F80029 		str	r2, [r3, #2304]
 687:Drivers/STM32F4xx_HAL_Driver/Src/stm32f4xx_ll_usb.c ****   }
 1393              		.loc 1 687 0
 1394 0052 D0F81C28 		ldr	r2, [r0, #2076]
 1395 0056 0B78     		ldrb	r3, [r1]	@ zero_extendqisi2
 1396 0058 03F00F01 		and	r1, r3, #15
 1397              	.LVL143:
 1398 005c 0123     		movs	r3, #1
 1399 005e 8B40     		lsls	r3, r3, r1
 1400 0060 9BB2     		uxth	r3, r3
 1401 0062 22EA0303 		bic	r3, r2, r3
 1402 0066 C0F81C38 		str	r3, [r0, #2076]
 1403 006a E4E7     		b	.L122
 1404              	.LVL144:
 1405              	.L126:
 682:Drivers/STM32F4xx_HAL_Driver/Src/stm32f4xx_ll_usb.c ****       USBx_INEP(epnum)->DIEPCTL  |= USB_OTG_DIEPCTL_EPDIS;
 1406              		.loc 1 682 0
 1407 006c D3F80029 		ldr	r2, [r3, #2304]
 1408 0070 42F00062 		orr	r2, r2, #134217728
 1409 0074 C3F80029 		str	r2, [r3, #2304]
 1410              	.LVL145:
 683:Drivers/STM32F4xx_HAL_Driver/Src/stm32f4xx_ll_usb.c ****     }
 1411              		.loc 1 683 0
 1412 0078 D3F80029 		ldr	r2, [r3, #2304]
 1413 007c 42F08042 		orr	r2, r2, #1073741824
 1414 0080 C3F80029 		str	r2, [r3, #2304]
 1415 0084 DFE7     		b	.L121
 1416              	.LVL146:
 1417              	.L125:
 693:Drivers/STM32F4xx_HAL_Driver/Src/stm32f4xx_ll_usb.c ****       USBx_OUTEP(epnum)->DOEPCTL  |= USB_OTG_DOEPCTL_EPDIS;
 1418              		.loc 1 693 0
 1419 0086 D3F8002B 		ldr	r2, [r3, #2816]
 1420 008a 42F00062 		orr	r2, r2, #134217728
 1421 008e C3F8002B 		str	r2, [r3, #2816]
 1422              	.LVL147:
 694:Drivers/STM32F4xx_HAL_Driver/Src/stm32f4xx_ll_usb.c ****     }
 1423              		.loc 1 694 0
 1424 0092 D3F8002B 		ldr	r2, [r3, #2816]
 1425 0096 42F08042 		orr	r2, r2, #1073741824
 1426 009a C3F8002B 		str	r2, [r3, #2816]
 1427 009e B9E7     		b	.L123
 1428              		.cfi_endproc
 1429              	.LFE143:
 1431              		.section	.text.USB_EP0StartXfer,"ax",%progbits
 1432              		.align	1
 1433              		.global	USB_EP0StartXfer
 1434              		.syntax unified
 1435              		.thumb
 1436              		.thumb_func
 1437              		.fpu fpv4-sp-d16
ARM GAS  C:\Users\User\AppData\Local\Temp\ccbub1mW.s 			page 53


 1439              	USB_EP0StartXfer:
 1440              	.LFB145:
 857:Drivers/STM32F4xx_HAL_Driver/Src/stm32f4xx_ll_usb.c ****   uint32_t USBx_BASE = (uint32_t)USBx;
 1441              		.loc 1 857 0
 1442              		.cfi_startproc
 1443              		@ args = 0, pretend = 0, frame = 0
 1444              		@ frame_needed = 0, uses_anonymous_args = 0
 1445              		@ link register save eliminated.
 1446              	.LVL148:
 1447 0000 70B4     		push	{r4, r5, r6}
 1448              	.LCFI20:
 1449              		.cfi_def_cfa_offset 12
 1450              		.cfi_offset 4, -12
 1451              		.cfi_offset 5, -8
 1452              		.cfi_offset 6, -4
 1453              	.LVL149:
 859:Drivers/STM32F4xx_HAL_Driver/Src/stm32f4xx_ll_usb.c **** 
 1454              		.loc 1 859 0
 1455 0002 0B78     		ldrb	r3, [r1]	@ zero_extendqisi2
 1456              	.LVL150:
 862:Drivers/STM32F4xx_HAL_Driver/Src/stm32f4xx_ll_usb.c ****   {
 1457              		.loc 1 862 0
 1458 0004 4C78     		ldrb	r4, [r1, #1]	@ zero_extendqisi2
 1459 0006 012C     		cmp	r4, #1
 1460 0008 26D0     		beq	.L138
 917:Drivers/STM32F4xx_HAL_Driver/Src/stm32f4xx_ll_usb.c ****     USBx_OUTEP(epnum)->DOEPTSIZ &= ~(USB_OTG_DOEPTSIZ_PKTCNT);
 1461              		.loc 1 917 0
 1462 000a 00EB4310 		add	r0, r0, r3, lsl #5
 1463              	.LVL151:
 1464 000e 00F53063 		add	r3, r0, #2816
 1465              	.LVL152:
 1466 0012 1C69     		ldr	r4, [r3, #16]
 1467 0014 E40C     		lsrs	r4, r4, #19
 1468 0016 E404     		lsls	r4, r4, #19
 1469 0018 1C61     		str	r4, [r3, #16]
 1470              	.LVL153:
 918:Drivers/STM32F4xx_HAL_Driver/Src/stm32f4xx_ll_usb.c **** 
 1471              		.loc 1 918 0
 1472 001a 1C69     		ldr	r4, [r3, #16]
 1473 001c 24F0FF54 		bic	r4, r4, #534773760
 1474 0020 24F4C014 		bic	r4, r4, #1572864
 1475 0024 1C61     		str	r4, [r3, #16]
 920:Drivers/STM32F4xx_HAL_Driver/Src/stm32f4xx_ll_usb.c ****     {
 1476              		.loc 1 920 0
 1477 0026 4C69     		ldr	r4, [r1, #20]
 1478 0028 0CB1     		cbz	r4, .L135
 922:Drivers/STM32F4xx_HAL_Driver/Src/stm32f4xx_ll_usb.c ****     }
 1479              		.loc 1 922 0
 1480 002a 8C68     		ldr	r4, [r1, #8]
 1481 002c 4C61     		str	r4, [r1, #20]
 1482              	.L135:
 925:Drivers/STM32F4xx_HAL_Driver/Src/stm32f4xx_ll_usb.c ****     USBx_OUTEP(epnum)->DOEPTSIZ |= (USB_OTG_DOEPTSIZ_XFRSIZ & (ep->maxpacket));
 1483              		.loc 1 925 0
 1484 002e 1C69     		ldr	r4, [r3, #16]
 1485 0030 44F40024 		orr	r4, r4, #524288
 1486 0034 1C61     		str	r4, [r3, #16]
 926:Drivers/STM32F4xx_HAL_Driver/Src/stm32f4xx_ll_usb.c **** 
ARM GAS  C:\Users\User\AppData\Local\Temp\ccbub1mW.s 			page 54


 1487              		.loc 1 926 0
 1488 0036 1C69     		ldr	r4, [r3, #16]
 1489 0038 8D68     		ldr	r5, [r1, #8]
 1490 003a C5F31205 		ubfx	r5, r5, #0, #19
 1491 003e 2C43     		orrs	r4, r4, r5
 1492 0040 1C61     		str	r4, [r3, #16]
 928:Drivers/STM32F4xx_HAL_Driver/Src/stm32f4xx_ll_usb.c ****     {
 1493              		.loc 1 928 0
 1494 0042 012A     		cmp	r2, #1
 1495 0044 65D0     		beq	.L139
 1496              	.LVL154:
 1497              	.L136:
 937:Drivers/STM32F4xx_HAL_Driver/Src/stm32f4xx_ll_usb.c ****   }
 1498              		.loc 1 937 0
 1499 0046 D0F8003B 		ldr	r3, [r0, #2816]
 1500 004a 43F00443 		orr	r3, r3, #-2080374784
 1501 004e C0F8003B 		str	r3, [r0, #2816]
 1502              	.LVL155:
 1503              	.L134:
 941:Drivers/STM32F4xx_HAL_Driver/Src/stm32f4xx_ll_usb.c **** 
 1504              		.loc 1 941 0
 1505 0052 0020     		movs	r0, #0
 1506 0054 70BC     		pop	{r4, r5, r6}
 1507              	.LCFI21:
 1508              		.cfi_remember_state
 1509              		.cfi_restore 6
 1510              		.cfi_restore 5
 1511              		.cfi_restore 4
 1512              		.cfi_def_cfa_offset 0
 1513 0056 7047     		bx	lr
 1514              	.LVL156:
 1515              	.L138:
 1516              	.LCFI22:
 1517              		.cfi_restore_state
 865:Drivers/STM32F4xx_HAL_Driver/Src/stm32f4xx_ll_usb.c ****     {
 1518              		.loc 1 865 0
 1519 0058 4C69     		ldr	r4, [r1, #20]
 1520 005a 6CBB     		cbnz	r4, .L129
 867:Drivers/STM32F4xx_HAL_Driver/Src/stm32f4xx_ll_usb.c ****       USBx_INEP(epnum)->DIEPTSIZ |= (USB_OTG_DIEPTSIZ_PKTCNT & (1U << 19));
 1521              		.loc 1 867 0
 1522 005c 00EB4314 		add	r4, r0, r3, lsl #5
 1523 0060 D4F81059 		ldr	r5, [r4, #2320]
 1524 0064 25F0FF55 		bic	r5, r5, #534773760
 1525 0068 25F4C015 		bic	r5, r5, #1572864
 1526 006c C4F81059 		str	r5, [r4, #2320]
 868:Drivers/STM32F4xx_HAL_Driver/Src/stm32f4xx_ll_usb.c ****       USBx_INEP(epnum)->DIEPTSIZ &= ~(USB_OTG_DIEPTSIZ_XFRSIZ);
 1527              		.loc 1 868 0
 1528 0070 D4F81059 		ldr	r5, [r4, #2320]
 1529 0074 45F40025 		orr	r5, r5, #524288
 1530 0078 C4F81059 		str	r5, [r4, #2320]
 869:Drivers/STM32F4xx_HAL_Driver/Src/stm32f4xx_ll_usb.c ****     }
 1531              		.loc 1 869 0
 1532 007c D4F81059 		ldr	r5, [r4, #2320]
 1533 0080 ED0C     		lsrs	r5, r5, #19
 1534 0082 ED04     		lsls	r5, r5, #19
 1535 0084 C4F81059 		str	r5, [r4, #2320]
 1536              	.L130:
ARM GAS  C:\Users\User\AppData\Local\Temp\ccbub1mW.s 			page 55


 889:Drivers/STM32F4xx_HAL_Driver/Src/stm32f4xx_ll_usb.c ****     {
 1537              		.loc 1 889 0
 1538 0088 012A     		cmp	r2, #1
 1539 008a 33D0     		beq	.L140
 902:Drivers/STM32F4xx_HAL_Driver/Src/stm32f4xx_ll_usb.c **** 
 1540              		.loc 1 902 0
 1541 008c 00EB4313 		add	r3, r0, r3, lsl #5
 1542              	.LVL157:
 1543 0090 D3F80029 		ldr	r2, [r3, #2304]
 1544              	.LVL158:
 1545 0094 42F00442 		orr	r2, r2, #-2080374784
 1546 0098 C3F80029 		str	r2, [r3, #2304]
 905:Drivers/STM32F4xx_HAL_Driver/Src/stm32f4xx_ll_usb.c ****       {
 1547              		.loc 1 905 0
 1548 009c 4B69     		ldr	r3, [r1, #20]
 1549 009e 002B     		cmp	r3, #0
 1550 00a0 D7D0     		beq	.L134
 907:Drivers/STM32F4xx_HAL_Driver/Src/stm32f4xx_ll_usb.c ****       }
 1551              		.loc 1 907 0
 1552 00a2 D0F83428 		ldr	r2, [r0, #2100]
 1553 00a6 0978     		ldrb	r1, [r1]	@ zero_extendqisi2
 1554              	.LVL159:
 1555 00a8 01F00F04 		and	r4, r1, #15
 1556 00ac 0121     		movs	r1, #1
 1557 00ae A140     		lsls	r1, r1, r4
 1558 00b0 0A43     		orrs	r2, r2, r1
 1559 00b2 C0F83428 		str	r2, [r0, #2100]
 1560 00b6 CCE7     		b	.L134
 1561              	.LVL160:
 1562              	.L129:
 878:Drivers/STM32F4xx_HAL_Driver/Src/stm32f4xx_ll_usb.c ****       USBx_INEP(epnum)->DIEPTSIZ &= ~(USB_OTG_DIEPTSIZ_PKTCNT);
 1563              		.loc 1 878 0
 1564 00b8 00EB4314 		add	r4, r0, r3, lsl #5
 1565 00bc 04F51064 		add	r4, r4, #2304
 1566 00c0 2569     		ldr	r5, [r4, #16]
 1567 00c2 ED0C     		lsrs	r5, r5, #19
 1568 00c4 ED04     		lsls	r5, r5, #19
 1569 00c6 2561     		str	r5, [r4, #16]
 879:Drivers/STM32F4xx_HAL_Driver/Src/stm32f4xx_ll_usb.c **** 
 1570              		.loc 1 879 0
 1571 00c8 2569     		ldr	r5, [r4, #16]
 1572 00ca 25F0FF55 		bic	r5, r5, #534773760
 1573 00ce 25F4C015 		bic	r5, r5, #1572864
 1574 00d2 2561     		str	r5, [r4, #16]
 881:Drivers/STM32F4xx_HAL_Driver/Src/stm32f4xx_ll_usb.c ****       {
 1575              		.loc 1 881 0
 1576 00d4 4E69     		ldr	r6, [r1, #20]
 1577 00d6 8D68     		ldr	r5, [r1, #8]
 1578 00d8 AE42     		cmp	r6, r5
 1579 00da 00D9     		bls	.L131
 883:Drivers/STM32F4xx_HAL_Driver/Src/stm32f4xx_ll_usb.c ****       }
 1580              		.loc 1 883 0
 1581 00dc 4D61     		str	r5, [r1, #20]
 1582              	.L131:
 885:Drivers/STM32F4xx_HAL_Driver/Src/stm32f4xx_ll_usb.c ****       USBx_INEP(epnum)->DIEPTSIZ |= (USB_OTG_DIEPTSIZ_XFRSIZ & ep->xfer_len);
 1583              		.loc 1 885 0
 1584 00de 2569     		ldr	r5, [r4, #16]
ARM GAS  C:\Users\User\AppData\Local\Temp\ccbub1mW.s 			page 56


 1585 00e0 45F40025 		orr	r5, r5, #524288
 1586 00e4 2561     		str	r5, [r4, #16]
 886:Drivers/STM32F4xx_HAL_Driver/Src/stm32f4xx_ll_usb.c ****     }
 1587              		.loc 1 886 0
 1588 00e6 2569     		ldr	r5, [r4, #16]
 1589 00e8 4E69     		ldr	r6, [r1, #20]
 1590 00ea C6F31206 		ubfx	r6, r6, #0, #19
 1591 00ee 3543     		orrs	r5, r5, r6
 1592 00f0 2561     		str	r5, [r4, #16]
 1593 00f2 C9E7     		b	.L130
 1594              	.L140:
 891:Drivers/STM32F4xx_HAL_Driver/Src/stm32f4xx_ll_usb.c ****       {
 1595              		.loc 1 891 0
 1596 00f4 0A69     		ldr	r2, [r1, #16]
 1597              	.LVL161:
 1598 00f6 1AB1     		cbz	r2, .L133
 893:Drivers/STM32F4xx_HAL_Driver/Src/stm32f4xx_ll_usb.c ****       }
 1599              		.loc 1 893 0
 1600 00f8 00EB4311 		add	r1, r0, r3, lsl #5
 1601              	.LVL162:
 1602 00fc C1F81429 		str	r2, [r1, #2324]
 1603              	.L133:
 897:Drivers/STM32F4xx_HAL_Driver/Src/stm32f4xx_ll_usb.c ****     }
 1604              		.loc 1 897 0
 1605 0100 00EB4310 		add	r0, r0, r3, lsl #5
 1606              	.LVL163:
 1607 0104 D0F80029 		ldr	r2, [r0, #2304]
 1608 0108 42F00442 		orr	r2, r2, #-2080374784
 1609 010c C0F80029 		str	r2, [r0, #2304]
 1610 0110 9FE7     		b	.L134
 1611              	.LVL164:
 1612              	.L139:
 930:Drivers/STM32F4xx_HAL_Driver/Src/stm32f4xx_ll_usb.c ****       {
 1613              		.loc 1 930 0
 1614 0112 CA68     		ldr	r2, [r1, #12]
 1615              	.LVL165:
 1616 0114 002A     		cmp	r2, #0
 1617 0116 96D0     		beq	.L136
 932:Drivers/STM32F4xx_HAL_Driver/Src/stm32f4xx_ll_usb.c ****       }
 1618              		.loc 1 932 0
 1619 0118 5A61     		str	r2, [r3, #20]
 1620 011a 94E7     		b	.L136
 1621              		.cfi_endproc
 1622              	.LFE145:
 1624              		.section	.text.USB_WritePacket,"ax",%progbits
 1625              		.align	1
 1626              		.global	USB_WritePacket
 1627              		.syntax unified
 1628              		.thumb
 1629              		.thumb_func
 1630              		.fpu fpv4-sp-d16
 1632              	USB_WritePacket:
 1633              	.LFB146:
 958:Drivers/STM32F4xx_HAL_Driver/Src/stm32f4xx_ll_usb.c ****   uint32_t USBx_BASE = (uint32_t)USBx;
 1634              		.loc 1 958 0
 1635              		.cfi_startproc
 1636              		@ args = 4, pretend = 0, frame = 0
ARM GAS  C:\Users\User\AppData\Local\Temp\ccbub1mW.s 			page 57


 1637              		@ frame_needed = 0, uses_anonymous_args = 0
 1638              		@ link register save eliminated.
 1639              	.LVL166:
 1640 0000 70B4     		push	{r4, r5, r6}
 1641              	.LCFI23:
 1642              		.cfi_def_cfa_offset 12
 1643              		.cfi_offset 4, -12
 1644              		.cfi_offset 5, -8
 1645              		.cfi_offset 6, -4
 1646 0002 9DF80C40 		ldrb	r4, [sp, #12]	@ zero_extendqisi2
 1647              	.LVL167:
 963:Drivers/STM32F4xx_HAL_Driver/Src/stm32f4xx_ll_usb.c ****   {
 1648              		.loc 1 963 0
 1649 0006 64B9     		cbnz	r4, .L142
 965:Drivers/STM32F4xx_HAL_Driver/Src/stm32f4xx_ll_usb.c ****     for (i = 0U; i < count32b; i++)
 1650              		.loc 1 965 0
 1651 0008 0333     		adds	r3, r3, #3
 1652              	.LVL168:
 1653 000a 9D08     		lsrs	r5, r3, #2
 1654              	.LVL169:
 966:Drivers/STM32F4xx_HAL_Driver/Src/stm32f4xx_ll_usb.c ****     {
 1655              		.loc 1 966 0
 1656 000c 07E0     		b	.L143
 1657              	.LVL170:
 1658              	.L144:
 968:Drivers/STM32F4xx_HAL_Driver/Src/stm32f4xx_ll_usb.c ****       pSrc++;
 1659              		.loc 1 968 0 discriminator 3
 1660 000e 00EB0233 		add	r3, r0, r2, lsl #12
 1661 0012 03F58053 		add	r3, r3, #4096
 1662 0016 51F8046B 		ldr	r6, [r1], #4	@ unaligned
 1663              	.LVL171:
 1664 001a 1E60     		str	r6, [r3]
 1665              	.LVL172:
 966:Drivers/STM32F4xx_HAL_Driver/Src/stm32f4xx_ll_usb.c ****     {
 1666              		.loc 1 966 0 discriminator 3
 1667 001c 0134     		adds	r4, r4, #1
 1668              	.LVL173:
 1669              	.L143:
 966:Drivers/STM32F4xx_HAL_Driver/Src/stm32f4xx_ll_usb.c ****     {
 1670              		.loc 1 966 0 is_stmt 0 discriminator 1
 1671 001e AC42     		cmp	r4, r5
 1672 0020 F5D3     		bcc	.L144
 1673              	.LVL174:
 1674              	.L142:
 974:Drivers/STM32F4xx_HAL_Driver/Src/stm32f4xx_ll_usb.c **** 
 1675              		.loc 1 974 0 is_stmt 1
 1676 0022 0020     		movs	r0, #0
 1677              	.LVL175:
 1678 0024 70BC     		pop	{r4, r5, r6}
 1679              	.LCFI24:
 1680              		.cfi_restore 6
 1681              		.cfi_restore 5
 1682              		.cfi_restore 4
 1683              		.cfi_def_cfa_offset 0
 1684              	.LVL176:
 1685 0026 7047     		bx	lr
 1686              		.cfi_endproc
ARM GAS  C:\Users\User\AppData\Local\Temp\ccbub1mW.s 			page 58


 1687              	.LFE146:
 1689              		.section	.text.USB_EPStartXfer,"ax",%progbits
 1690              		.align	1
 1691              		.global	USB_EPStartXfer
 1692              		.syntax unified
 1693              		.thumb
 1694              		.thumb_func
 1695              		.fpu fpv4-sp-d16
 1697              	USB_EPStartXfer:
 1698              	.LFB144:
 715:Drivers/STM32F4xx_HAL_Driver/Src/stm32f4xx_ll_usb.c ****   uint32_t USBx_BASE = (uint32_t)USBx;
 1699              		.loc 1 715 0
 1700              		.cfi_startproc
 1701              		@ args = 0, pretend = 0, frame = 0
 1702              		@ frame_needed = 0, uses_anonymous_args = 0
 1703              	.LVL177:
 1704 0000 F0B5     		push	{r4, r5, r6, r7, lr}
 1705              	.LCFI25:
 1706              		.cfi_def_cfa_offset 20
 1707              		.cfi_offset 4, -20
 1708              		.cfi_offset 5, -16
 1709              		.cfi_offset 6, -12
 1710              		.cfi_offset 7, -8
 1711              		.cfi_offset 14, -4
 1712 0002 83B0     		sub	sp, sp, #12
 1713              	.LCFI26:
 1714              		.cfi_def_cfa_offset 32
 1715              	.LVL178:
 717:Drivers/STM32F4xx_HAL_Driver/Src/stm32f4xx_ll_usb.c ****   uint16_t pktcnt;
 1716              		.loc 1 717 0
 1717 0004 0B78     		ldrb	r3, [r1]	@ zero_extendqisi2
 1718              	.LVL179:
 721:Drivers/STM32F4xx_HAL_Driver/Src/stm32f4xx_ll_usb.c ****   {
 1719              		.loc 1 721 0
 1720 0006 4C78     		ldrb	r4, [r1, #1]	@ zero_extendqisi2
 1721 0008 012C     		cmp	r4, #1
 1722 000a 2BD0     		beq	.L164
 805:Drivers/STM32F4xx_HAL_Driver/Src/stm32f4xx_ll_usb.c ****     USBx_OUTEP(epnum)->DOEPTSIZ &= ~(USB_OTG_DOEPTSIZ_PKTCNT);
 1723              		.loc 1 805 0
 1724 000c 00EB4313 		add	r3, r0, r3, lsl #5
 1725              	.LVL180:
 1726 0010 03F53064 		add	r4, r3, #2816
 1727 0014 2569     		ldr	r5, [r4, #16]
 1728 0016 ED0C     		lsrs	r5, r5, #19
 1729 0018 ED04     		lsls	r5, r5, #19
 1730 001a 2561     		str	r5, [r4, #16]
 1731              	.LVL181:
 806:Drivers/STM32F4xx_HAL_Driver/Src/stm32f4xx_ll_usb.c **** 
 1732              		.loc 1 806 0
 1733 001c 2569     		ldr	r5, [r4, #16]
 1734 001e 25F0FF55 		bic	r5, r5, #534773760
 1735 0022 25F4C015 		bic	r5, r5, #1572864
 1736 0026 2561     		str	r5, [r4, #16]
 808:Drivers/STM32F4xx_HAL_Driver/Src/stm32f4xx_ll_usb.c ****     {
 1737              		.loc 1 808 0
 1738 0028 4D69     		ldr	r5, [r1, #20]
 1739 002a 002D     		cmp	r5, #0
ARM GAS  C:\Users\User\AppData\Local\Temp\ccbub1mW.s 			page 59


 1740 002c 40F0C580 		bne	.L158
 810:Drivers/STM32F4xx_HAL_Driver/Src/stm32f4xx_ll_usb.c ****       USBx_OUTEP(epnum)->DOEPTSIZ |= (USB_OTG_DOEPTSIZ_PKTCNT & (1U << 19));
 1741              		.loc 1 810 0
 1742 0030 2569     		ldr	r5, [r4, #16]
 1743 0032 8E68     		ldr	r6, [r1, #8]
 1744 0034 C6F31206 		ubfx	r6, r6, #0, #19
 1745 0038 3543     		orrs	r5, r5, r6
 1746 003a 2561     		str	r5, [r4, #16]
 811:Drivers/STM32F4xx_HAL_Driver/Src/stm32f4xx_ll_usb.c ****     }
 1747              		.loc 1 811 0
 1748 003c 2569     		ldr	r5, [r4, #16]
 1749 003e 45F40025 		orr	r5, r5, #524288
 1750 0042 2561     		str	r5, [r4, #16]
 1751              	.L159:
 820:Drivers/STM32F4xx_HAL_Driver/Src/stm32f4xx_ll_usb.c ****     {
 1752              		.loc 1 820 0
 1753 0044 012A     		cmp	r2, #1
 1754 0046 00F0CD80 		beq	.L165
 1755              	.LVL182:
 1756              	.L160:
 828:Drivers/STM32F4xx_HAL_Driver/Src/stm32f4xx_ll_usb.c ****     {
 1757              		.loc 1 828 0
 1758 004a CA78     		ldrb	r2, [r1, #3]	@ zero_extendqisi2
 1759 004c 012A     		cmp	r2, #1
 1760 004e 00F0CF80 		beq	.L166
 1761              	.L161:
 840:Drivers/STM32F4xx_HAL_Driver/Src/stm32f4xx_ll_usb.c ****   }
 1762              		.loc 1 840 0
 1763 0052 D3F8002B 		ldr	r2, [r3, #2816]
 1764 0056 42F00442 		orr	r2, r2, #-2080374784
 1765 005a C3F8002B 		str	r2, [r3, #2816]
 1766              	.LVL183:
 1767              	.L154:
 844:Drivers/STM32F4xx_HAL_Driver/Src/stm32f4xx_ll_usb.c **** 
 1768              		.loc 1 844 0
 1769 005e 0020     		movs	r0, #0
 1770 0060 03B0     		add	sp, sp, #12
 1771              	.LCFI27:
 1772              		.cfi_remember_state
 1773              		.cfi_def_cfa_offset 20
 1774              		@ sp needed
 1775 0062 F0BD     		pop	{r4, r5, r6, r7, pc}
 1776              	.LVL184:
 1777              	.L164:
 1778              	.LCFI28:
 1779              		.cfi_restore_state
 724:Drivers/STM32F4xx_HAL_Driver/Src/stm32f4xx_ll_usb.c ****     {
 1780              		.loc 1 724 0
 1781 0064 4C69     		ldr	r4, [r1, #20]
 1782 0066 84BB     		cbnz	r4, .L148
 726:Drivers/STM32F4xx_HAL_Driver/Src/stm32f4xx_ll_usb.c ****       USBx_INEP(epnum)->DIEPTSIZ |= (USB_OTG_DIEPTSIZ_PKTCNT & (1U << 19));
 1783              		.loc 1 726 0
 1784 0068 00EB4314 		add	r4, r0, r3, lsl #5
 1785 006c D4F81059 		ldr	r5, [r4, #2320]
 1786 0070 25F0FF55 		bic	r5, r5, #534773760
 1787 0074 25F4C015 		bic	r5, r5, #1572864
 1788 0078 C4F81059 		str	r5, [r4, #2320]
ARM GAS  C:\Users\User\AppData\Local\Temp\ccbub1mW.s 			page 60


 727:Drivers/STM32F4xx_HAL_Driver/Src/stm32f4xx_ll_usb.c ****       USBx_INEP(epnum)->DIEPTSIZ &= ~(USB_OTG_DIEPTSIZ_XFRSIZ);
 1789              		.loc 1 727 0
 1790 007c D4F81059 		ldr	r5, [r4, #2320]
 1791 0080 45F40025 		orr	r5, r5, #524288
 1792 0084 C4F81059 		str	r5, [r4, #2320]
 728:Drivers/STM32F4xx_HAL_Driver/Src/stm32f4xx_ll_usb.c ****     }
 1793              		.loc 1 728 0
 1794 0088 D4F81059 		ldr	r5, [r4, #2320]
 1795 008c ED0C     		lsrs	r5, r5, #19
 1796 008e ED04     		lsls	r5, r5, #19
 1797 0090 C4F81059 		str	r5, [r4, #2320]
 1798              	.L149:
 749:Drivers/STM32F4xx_HAL_Driver/Src/stm32f4xx_ll_usb.c ****     {
 1799              		.loc 1 749 0
 1800 0094 012A     		cmp	r2, #1
 1801 0096 4CD0     		beq	.L167
 774:Drivers/STM32F4xx_HAL_Driver/Src/stm32f4xx_ll_usb.c **** 
 1802              		.loc 1 774 0
 1803 0098 00EB4313 		add	r3, r0, r3, lsl #5
 1804              	.LVL185:
 1805 009c D3F80049 		ldr	r4, [r3, #2304]
 1806 00a0 44F00444 		orr	r4, r4, #-2080374784
 1807 00a4 C3F80049 		str	r4, [r3, #2304]
 776:Drivers/STM32F4xx_HAL_Driver/Src/stm32f4xx_ll_usb.c ****       {
 1808              		.loc 1 776 0
 1809 00a8 CC78     		ldrb	r4, [r1, #3]	@ zero_extendqisi2
 1810 00aa 012C     		cmp	r4, #1
 1811 00ac 6AD0     		beq	.L155
 779:Drivers/STM32F4xx_HAL_Driver/Src/stm32f4xx_ll_usb.c ****         {
 1812              		.loc 1 779 0
 1813 00ae 4B69     		ldr	r3, [r1, #20]
 1814 00b0 002B     		cmp	r3, #0
 1815 00b2 D4D0     		beq	.L154
 781:Drivers/STM32F4xx_HAL_Driver/Src/stm32f4xx_ll_usb.c ****         }
 1816              		.loc 1 781 0
 1817 00b4 D0F83428 		ldr	r2, [r0, #2100]
 1818              	.LVL186:
 1819 00b8 0978     		ldrb	r1, [r1]	@ zero_extendqisi2
 1820              	.LVL187:
 1821 00ba 01F00F04 		and	r4, r1, #15
 1822 00be 0121     		movs	r1, #1
 1823 00c0 A140     		lsls	r1, r1, r4
 1824 00c2 0A43     		orrs	r2, r2, r1
 1825 00c4 C0F83428 		str	r2, [r0, #2100]
 1826 00c8 C9E7     		b	.L154
 1827              	.LVL188:
 1828              	.L148:
 737:Drivers/STM32F4xx_HAL_Driver/Src/stm32f4xx_ll_usb.c ****       USBx_INEP(epnum)->DIEPTSIZ &= ~(USB_OTG_DIEPTSIZ_PKTCNT);
 1829              		.loc 1 737 0
 1830 00ca 00EB4314 		add	r4, r0, r3, lsl #5
 1831 00ce D4F81059 		ldr	r5, [r4, #2320]
 1832 00d2 ED0C     		lsrs	r5, r5, #19
 1833 00d4 ED04     		lsls	r5, r5, #19
 1834 00d6 C4F81059 		str	r5, [r4, #2320]
 738:Drivers/STM32F4xx_HAL_Driver/Src/stm32f4xx_ll_usb.c ****       USBx_INEP(epnum)->DIEPTSIZ |= (USB_OTG_DIEPTSIZ_PKTCNT & (((ep->xfer_len + ep->maxpacket - 1U
 1835              		.loc 1 738 0
 1836 00da D4F81059 		ldr	r5, [r4, #2320]
ARM GAS  C:\Users\User\AppData\Local\Temp\ccbub1mW.s 			page 61


 1837 00de 25F0FF55 		bic	r5, r5, #534773760
 1838 00e2 25F4C015 		bic	r5, r5, #1572864
 1839 00e6 C4F81059 		str	r5, [r4, #2320]
 739:Drivers/STM32F4xx_HAL_Driver/Src/stm32f4xx_ll_usb.c ****       USBx_INEP(epnum)->DIEPTSIZ |= (USB_OTG_DIEPTSIZ_XFRSIZ & ep->xfer_len);
 1840              		.loc 1 739 0
 1841 00ea D4F81069 		ldr	r6, [r4, #2320]
 1842 00ee 4D69     		ldr	r5, [r1, #20]
 1843 00f0 8F68     		ldr	r7, [r1, #8]
 1844 00f2 3D44     		add	r5, r5, r7
 1845 00f4 013D     		subs	r5, r5, #1
 1846 00f6 B5FBF7F5 		udiv	r5, r5, r7
 1847 00fa 474F     		ldr	r7, .L169
 1848 00fc 07EAC545 		and	r5, r7, r5, lsl #19
 1849 0100 3543     		orrs	r5, r5, r6
 1850 0102 C4F81059 		str	r5, [r4, #2320]
 740:Drivers/STM32F4xx_HAL_Driver/Src/stm32f4xx_ll_usb.c **** 
 1851              		.loc 1 740 0
 1852 0106 D4F81059 		ldr	r5, [r4, #2320]
 1853 010a 4E69     		ldr	r6, [r1, #20]
 1854 010c C6F31206 		ubfx	r6, r6, #0, #19
 1855 0110 3543     		orrs	r5, r5, r6
 1856 0112 C4F81059 		str	r5, [r4, #2320]
 737:Drivers/STM32F4xx_HAL_Driver/Src/stm32f4xx_ll_usb.c ****       USBx_INEP(epnum)->DIEPTSIZ &= ~(USB_OTG_DIEPTSIZ_PKTCNT);
 1857              		.loc 1 737 0
 1858 0116 04F51064 		add	r4, r4, #2304
 742:Drivers/STM32F4xx_HAL_Driver/Src/stm32f4xx_ll_usb.c ****       {
 1859              		.loc 1 742 0
 1860 011a CD78     		ldrb	r5, [r1, #3]	@ zero_extendqisi2
 1861 011c 012D     		cmp	r5, #1
 1862 011e B9D1     		bne	.L149
 744:Drivers/STM32F4xx_HAL_Driver/Src/stm32f4xx_ll_usb.c ****         USBx_INEP(epnum)->DIEPTSIZ |= (USB_OTG_DIEPTSIZ_MULCNT & (1U << 29));
 1863              		.loc 1 744 0
 1864 0120 2569     		ldr	r5, [r4, #16]
 1865 0122 25F0C045 		bic	r5, r5, #1610612736
 1866 0126 2561     		str	r5, [r4, #16]
 745:Drivers/STM32F4xx_HAL_Driver/Src/stm32f4xx_ll_usb.c ****       }
 1867              		.loc 1 745 0
 1868 0128 2569     		ldr	r5, [r4, #16]
 1869 012a 45F00055 		orr	r5, r5, #536870912
 1870 012e 2561     		str	r5, [r4, #16]
 1871 0130 B0E7     		b	.L149
 1872              	.L167:
 751:Drivers/STM32F4xx_HAL_Driver/Src/stm32f4xx_ll_usb.c ****       {
 1873              		.loc 1 751 0
 1874 0132 0A69     		ldr	r2, [r1, #16]
 1875              	.LVL189:
 1876 0134 1AB1     		cbz	r2, .L151
 753:Drivers/STM32F4xx_HAL_Driver/Src/stm32f4xx_ll_usb.c ****       }
 1877              		.loc 1 753 0
 1878 0136 00EB4314 		add	r4, r0, r3, lsl #5
 1879 013a C4F81429 		str	r2, [r4, #2324]
 1880              	.L151:
 756:Drivers/STM32F4xx_HAL_Driver/Src/stm32f4xx_ll_usb.c ****       {
 1881              		.loc 1 756 0
 1882 013e CA78     		ldrb	r2, [r1, #3]	@ zero_extendqisi2
 1883 0140 012A     		cmp	r2, #1
 1884 0142 08D0     		beq	.L168
ARM GAS  C:\Users\User\AppData\Local\Temp\ccbub1mW.s 			page 62


 1885              	.LVL190:
 1886              	.L152:
 769:Drivers/STM32F4xx_HAL_Driver/Src/stm32f4xx_ll_usb.c ****     }
 1887              		.loc 1 769 0
 1888 0144 00EB4313 		add	r3, r0, r3, lsl #5
 1889              	.LVL191:
 1890 0148 D3F80029 		ldr	r2, [r3, #2304]
 1891 014c 42F00442 		orr	r2, r2, #-2080374784
 1892 0150 C3F80029 		str	r2, [r3, #2304]
 1893 0154 83E7     		b	.L154
 1894              	.LVL192:
 1895              	.L168:
 758:Drivers/STM32F4xx_HAL_Driver/Src/stm32f4xx_ll_usb.c ****         {
 1896              		.loc 1 758 0
 1897 0156 D0F80828 		ldr	r2, [r0, #2056]
 1898 015a 12F4807F 		tst	r2, #256
 1899 015e 08D1     		bne	.L153
 760:Drivers/STM32F4xx_HAL_Driver/Src/stm32f4xx_ll_usb.c ****         }
 1900              		.loc 1 760 0
 1901 0160 00EB4311 		add	r1, r0, r3, lsl #5
 1902              	.LVL193:
 1903 0164 D1F80029 		ldr	r2, [r1, #2304]
 1904 0168 42F00052 		orr	r2, r2, #536870912
 1905 016c C1F80029 		str	r2, [r1, #2304]
 1906 0170 E8E7     		b	.L152
 1907              	.LVL194:
 1908              	.L153:
 764:Drivers/STM32F4xx_HAL_Driver/Src/stm32f4xx_ll_usb.c ****         }
 1909              		.loc 1 764 0
 1910 0172 00EB4311 		add	r1, r0, r3, lsl #5
 1911              	.LVL195:
 1912 0176 D1F80029 		ldr	r2, [r1, #2304]
 1913 017a 42F08052 		orr	r2, r2, #268435456
 1914 017e C1F80029 		str	r2, [r1, #2304]
 1915 0182 DFE7     		b	.L152
 1916              	.LVL196:
 1917              	.L155:
 786:Drivers/STM32F4xx_HAL_Driver/Src/stm32f4xx_ll_usb.c ****         {
 1918              		.loc 1 786 0
 1919 0184 D0F80848 		ldr	r4, [r0, #2056]
 1920 0188 14F4807F 		tst	r4, #256
 1921 018c 0ED1     		bne	.L156
 788:Drivers/STM32F4xx_HAL_Driver/Src/stm32f4xx_ll_usb.c ****         }
 1922              		.loc 1 788 0
 1923 018e D3F80049 		ldr	r4, [r3, #2304]
 1924 0192 44F00054 		orr	r4, r4, #536870912
 1925 0196 C3F80049 		str	r4, [r3, #2304]
 1926              	.L157:
 1927 019a 1446     		mov	r4, r2
 1928 019c 0B46     		mov	r3, r1
 795:Drivers/STM32F4xx_HAL_Driver/Src/stm32f4xx_ll_usb.c ****       }
 1929              		.loc 1 795 0
 1930 019e C968     		ldr	r1, [r1, #12]
 1931              	.LVL197:
 1932 01a0 1A78     		ldrb	r2, [r3]	@ zero_extendqisi2
 1933              	.LVL198:
 1934 01a2 9B8A     		ldrh	r3, [r3, #20]
ARM GAS  C:\Users\User\AppData\Local\Temp\ccbub1mW.s 			page 63


 1935              	.LVL199:
 1936 01a4 0094     		str	r4, [sp]
 1937 01a6 FFF7FEFF 		bl	USB_WritePacket
 1938              	.LVL200:
 1939 01aa 58E7     		b	.L154
 1940              	.LVL201:
 1941              	.L156:
 792:Drivers/STM32F4xx_HAL_Driver/Src/stm32f4xx_ll_usb.c ****         }
 1942              		.loc 1 792 0
 1943 01ac D3F80049 		ldr	r4, [r3, #2304]
 1944 01b0 44F08054 		orr	r4, r4, #268435456
 1945 01b4 C3F80049 		str	r4, [r3, #2304]
 1946 01b8 EFE7     		b	.L157
 1947              	.L158:
 815:Drivers/STM32F4xx_HAL_Driver/Src/stm32f4xx_ll_usb.c ****       USBx_OUTEP(epnum)->DOEPTSIZ |= USB_OTG_DOEPTSIZ_PKTCNT & ((uint32_t)pktcnt << 19);
 1948              		.loc 1 815 0
 1949 01ba 8E68     		ldr	r6, [r1, #8]
 1950 01bc 3544     		add	r5, r5, r6
 1951 01be 013D     		subs	r5, r5, #1
 1952 01c0 B5FBF6F5 		udiv	r5, r5, r6
 1953              	.LVL202:
 816:Drivers/STM32F4xx_HAL_Driver/Src/stm32f4xx_ll_usb.c ****       USBx_OUTEP(epnum)->DOEPTSIZ |= USB_OTG_DOEPTSIZ_XFRSIZ & (ep->maxpacket * pktcnt);
 1954              		.loc 1 816 0
 1955 01c4 2669     		ldr	r6, [r4, #16]
 1956 01c6 144F     		ldr	r7, .L169
 1957 01c8 07EAC547 		and	r7, r7, r5, lsl #19
 1958 01cc 3E43     		orrs	r6, r6, r7
 1959 01ce 2661     		str	r6, [r4, #16]
 817:Drivers/STM32F4xx_HAL_Driver/Src/stm32f4xx_ll_usb.c ****     }
 1960              		.loc 1 817 0
 1961 01d0 2769     		ldr	r7, [r4, #16]
 1962 01d2 8E68     		ldr	r6, [r1, #8]
 1963 01d4 ADB2     		uxth	r5, r5
 1964 01d6 06FB05F5 		mul	r5, r6, r5
 1965              	.LVL203:
 1966 01da C5F31205 		ubfx	r5, r5, #0, #19
 1967 01de 3D43     		orrs	r5, r5, r7
 1968 01e0 2561     		str	r5, [r4, #16]
 1969 01e2 2FE7     		b	.L159
 1970              	.L165:
 822:Drivers/STM32F4xx_HAL_Driver/Src/stm32f4xx_ll_usb.c ****       {
 1971              		.loc 1 822 0
 1972 01e4 CA68     		ldr	r2, [r1, #12]
 1973              	.LVL204:
 1974 01e6 002A     		cmp	r2, #0
 1975 01e8 3FF42FAF 		beq	.L160
 824:Drivers/STM32F4xx_HAL_Driver/Src/stm32f4xx_ll_usb.c ****       }
 1976              		.loc 1 824 0
 1977 01ec 6261     		str	r2, [r4, #20]
 1978 01ee 2CE7     		b	.L160
 1979              	.L166:
 830:Drivers/STM32F4xx_HAL_Driver/Src/stm32f4xx_ll_usb.c ****       {
 1980              		.loc 1 830 0
 1981 01f0 D0F80828 		ldr	r2, [r0, #2056]
 1982 01f4 12F4807F 		tst	r2, #256
 1983 01f8 06D1     		bne	.L162
 832:Drivers/STM32F4xx_HAL_Driver/Src/stm32f4xx_ll_usb.c ****       }
ARM GAS  C:\Users\User\AppData\Local\Temp\ccbub1mW.s 			page 64


 1984              		.loc 1 832 0
 1985 01fa D3F8002B 		ldr	r2, [r3, #2816]
 1986 01fe 42F00052 		orr	r2, r2, #536870912
 1987 0202 C3F8002B 		str	r2, [r3, #2816]
 1988 0206 24E7     		b	.L161
 1989              	.L162:
 836:Drivers/STM32F4xx_HAL_Driver/Src/stm32f4xx_ll_usb.c ****       }
 1990              		.loc 1 836 0
 1991 0208 D3F8002B 		ldr	r2, [r3, #2816]
 1992 020c 42F08052 		orr	r2, r2, #268435456
 1993 0210 C3F8002B 		str	r2, [r3, #2816]
 1994 0214 1DE7     		b	.L161
 1995              	.L170:
 1996 0216 00BF     		.align	2
 1997              	.L169:
 1998 0218 0000F81F 		.word	536346624
 1999              		.cfi_endproc
 2000              	.LFE144:
 2002              		.section	.text.USB_ReadPacket,"ax",%progbits
 2003              		.align	1
 2004              		.global	USB_ReadPacket
 2005              		.syntax unified
 2006              		.thumb
 2007              		.thumb_func
 2008              		.fpu fpv4-sp-d16
 2010              	USB_ReadPacket:
 2011              	.LFB147:
 984:Drivers/STM32F4xx_HAL_Driver/Src/stm32f4xx_ll_usb.c ****   uint32_t USBx_BASE = (uint32_t)USBx;
 2012              		.loc 1 984 0
 2013              		.cfi_startproc
 2014              		@ args = 0, pretend = 0, frame = 0
 2015              		@ frame_needed = 0, uses_anonymous_args = 0
 2016              		@ link register save eliminated.
 2017              	.LVL205:
 988:Drivers/STM32F4xx_HAL_Driver/Src/stm32f4xx_ll_usb.c **** 
 2018              		.loc 1 988 0
 2019 0000 0332     		adds	r2, r2, #3
 2020              	.LVL206:
 2021 0002 9208     		lsrs	r2, r2, #2
 2022              	.LVL207:
 990:Drivers/STM32F4xx_HAL_Driver/Src/stm32f4xx_ll_usb.c ****   {
 2023              		.loc 1 990 0
 2024 0004 0023     		movs	r3, #0
 2025              	.LVL208:
 2026 0006 9342     		cmp	r3, r2
 2027 0008 0CD2     		bcs	.L178
 984:Drivers/STM32F4xx_HAL_Driver/Src/stm32f4xx_ll_usb.c ****   uint32_t USBx_BASE = (uint32_t)USBx;
 2028              		.loc 1 984 0
 2029 000a 10B4     		push	{r4}
 2030              	.LCFI29:
 2031              		.cfi_def_cfa_offset 4
 2032              		.cfi_offset 4, -4
 2033              	.LVL209:
 2034              	.L173:
 992:Drivers/STM32F4xx_HAL_Driver/Src/stm32f4xx_ll_usb.c ****     pDest++;
 2035              		.loc 1 992 0 discriminator 3
 2036 000c 00F58054 		add	r4, r0, #4096
ARM GAS  C:\Users\User\AppData\Local\Temp\ccbub1mW.s 			page 65


 2037 0010 2468     		ldr	r4, [r4]
 2038 0012 41F8044B 		str	r4, [r1], #4	@ unaligned
 2039              	.LVL210:
 990:Drivers/STM32F4xx_HAL_Driver/Src/stm32f4xx_ll_usb.c ****   {
 2040              		.loc 1 990 0 discriminator 3
 2041 0016 0133     		adds	r3, r3, #1
 2042              	.LVL211:
 2043 0018 9342     		cmp	r3, r2
 2044 001a F7D3     		bcc	.L173
 997:Drivers/STM32F4xx_HAL_Driver/Src/stm32f4xx_ll_usb.c **** 
 2045              		.loc 1 997 0
 2046 001c 0846     		mov	r0, r1
 2047              	.LVL212:
 2048 001e 5DF8044B 		ldr	r4, [sp], #4
 2049              	.LCFI30:
 2050              		.cfi_restore 4
 2051              		.cfi_def_cfa_offset 0
 2052 0022 7047     		bx	lr
 2053              	.LVL213:
 2054              	.L178:
 2055 0024 0846     		mov	r0, r1
 2056              	.LVL214:
 2057 0026 7047     		bx	lr
 2058              		.cfi_endproc
 2059              	.LFE147:
 2061              		.section	.text.USB_EPSetStall,"ax",%progbits
 2062              		.align	1
 2063              		.global	USB_EPSetStall
 2064              		.syntax unified
 2065              		.thumb
 2066              		.thumb_func
 2067              		.fpu fpv4-sp-d16
 2069              	USB_EPSetStall:
 2070              	.LFB148:
1006:Drivers/STM32F4xx_HAL_Driver/Src/stm32f4xx_ll_usb.c ****   uint32_t USBx_BASE = (uint32_t)USBx;
 2071              		.loc 1 1006 0
 2072              		.cfi_startproc
 2073              		@ args = 0, pretend = 0, frame = 0
 2074              		@ frame_needed = 0, uses_anonymous_args = 0
 2075              		@ link register save eliminated.
 2076              	.LVL215:
1008:Drivers/STM32F4xx_HAL_Driver/Src/stm32f4xx_ll_usb.c **** 
 2077              		.loc 1 1008 0
 2078 0000 0B78     		ldrb	r3, [r1]	@ zero_extendqisi2
 2079              	.LVL216:
1010:Drivers/STM32F4xx_HAL_Driver/Src/stm32f4xx_ll_usb.c ****   {
 2080              		.loc 1 1010 0
 2081 0002 4A78     		ldrb	r2, [r1, #1]	@ zero_extendqisi2
 2082 0004 012A     		cmp	r2, #1
 2083 0006 14D0     		beq	.L184
1020:Drivers/STM32F4xx_HAL_Driver/Src/stm32f4xx_ll_usb.c ****     {
 2084              		.loc 1 1020 0
 2085 0008 00EB4310 		add	r0, r0, r3, lsl #5
 2086              	.LVL217:
 2087 000c D0F8002B 		ldr	r2, [r0, #2816]
 2088 0010 002A     		cmp	r2, #0
 2089 0012 06DB     		blt	.L183
ARM GAS  C:\Users\User\AppData\Local\Temp\ccbub1mW.s 			page 66


1020:Drivers/STM32F4xx_HAL_Driver/Src/stm32f4xx_ll_usb.c ****     {
 2090              		.loc 1 1020 0 is_stmt 0 discriminator 1
 2091 0014 2BB1     		cbz	r3, .L183
1022:Drivers/STM32F4xx_HAL_Driver/Src/stm32f4xx_ll_usb.c ****     }
 2092              		.loc 1 1022 0 is_stmt 1
 2093 0016 D0F8003B 		ldr	r3, [r0, #2816]
 2094              	.LVL218:
 2095 001a 23F08043 		bic	r3, r3, #1073741824
 2096 001e C0F8003B 		str	r3, [r0, #2816]
 2097              	.LVL219:
 2098              	.L183:
1024:Drivers/STM32F4xx_HAL_Driver/Src/stm32f4xx_ll_usb.c ****   }
 2099              		.loc 1 1024 0
 2100 0022 D0F8003B 		ldr	r3, [r0, #2816]
 2101 0026 43F40013 		orr	r3, r3, #2097152
 2102 002a C0F8003B 		str	r3, [r0, #2816]
 2103              	.L182:
1028:Drivers/STM32F4xx_HAL_Driver/Src/stm32f4xx_ll_usb.c **** 
 2104              		.loc 1 1028 0
 2105 002e 0020     		movs	r0, #0
 2106 0030 7047     		bx	lr
 2107              	.LVL220:
 2108              	.L184:
1012:Drivers/STM32F4xx_HAL_Driver/Src/stm32f4xx_ll_usb.c ****     {
 2109              		.loc 1 1012 0
 2110 0032 00EB4310 		add	r0, r0, r3, lsl #5
 2111              	.LVL221:
 2112 0036 D0F80029 		ldr	r2, [r0, #2304]
 2113 003a 002A     		cmp	r2, #0
 2114 003c 06DB     		blt	.L181
1012:Drivers/STM32F4xx_HAL_Driver/Src/stm32f4xx_ll_usb.c ****     {
 2115              		.loc 1 1012 0 is_stmt 0 discriminator 1
 2116 003e 2BB1     		cbz	r3, .L181
1014:Drivers/STM32F4xx_HAL_Driver/Src/stm32f4xx_ll_usb.c ****     }
 2117              		.loc 1 1014 0 is_stmt 1
 2118 0040 D0F80039 		ldr	r3, [r0, #2304]
 2119              	.LVL222:
 2120 0044 23F08043 		bic	r3, r3, #1073741824
 2121 0048 C0F80039 		str	r3, [r0, #2304]
 2122              	.LVL223:
 2123              	.L181:
1016:Drivers/STM32F4xx_HAL_Driver/Src/stm32f4xx_ll_usb.c ****   }
 2124              		.loc 1 1016 0
 2125 004c D0F80039 		ldr	r3, [r0, #2304]
 2126 0050 43F40013 		orr	r3, r3, #2097152
 2127 0054 C0F80039 		str	r3, [r0, #2304]
 2128 0058 E9E7     		b	.L182
 2129              		.cfi_endproc
 2130              	.LFE148:
 2132              		.section	.text.USB_EPClearStall,"ax",%progbits
 2133              		.align	1
 2134              		.global	USB_EPClearStall
 2135              		.syntax unified
 2136              		.thumb
 2137              		.thumb_func
 2138              		.fpu fpv4-sp-d16
 2140              	USB_EPClearStall:
ARM GAS  C:\Users\User\AppData\Local\Temp\ccbub1mW.s 			page 67


 2141              	.LFB149:
1037:Drivers/STM32F4xx_HAL_Driver/Src/stm32f4xx_ll_usb.c ****   uint32_t USBx_BASE = (uint32_t)USBx;
 2142              		.loc 1 1037 0
 2143              		.cfi_startproc
 2144              		@ args = 0, pretend = 0, frame = 0
 2145              		@ frame_needed = 0, uses_anonymous_args = 0
 2146              		@ link register save eliminated.
 2147              	.LVL224:
1039:Drivers/STM32F4xx_HAL_Driver/Src/stm32f4xx_ll_usb.c **** 
 2148              		.loc 1 1039 0
 2149 0000 0B78     		ldrb	r3, [r1]	@ zero_extendqisi2
 2150              	.LVL225:
1041:Drivers/STM32F4xx_HAL_Driver/Src/stm32f4xx_ll_usb.c ****   {
 2151              		.loc 1 1041 0
 2152 0002 4A78     		ldrb	r2, [r1, #1]	@ zero_extendqisi2
 2153 0004 012A     		cmp	r2, #1
 2154 0006 0ED0     		beq	.L188
1051:Drivers/STM32F4xx_HAL_Driver/Src/stm32f4xx_ll_usb.c ****     if ((ep->type == EP_TYPE_INTR) || (ep->type == EP_TYPE_BULK))
 2155              		.loc 1 1051 0
 2156 0008 00EB4310 		add	r0, r0, r3, lsl #5
 2157              	.LVL226:
 2158 000c D0F8003B 		ldr	r3, [r0, #2816]
 2159              	.LVL227:
 2160 0010 23F40013 		bic	r3, r3, #2097152
 2161 0014 C0F8003B 		str	r3, [r0, #2816]
 2162              	.LVL228:
1052:Drivers/STM32F4xx_HAL_Driver/Src/stm32f4xx_ll_usb.c ****     {
 2163              		.loc 1 1052 0
 2164 0018 CB78     		ldrb	r3, [r1, #3]	@ zero_extendqisi2
 2165 001a 023B     		subs	r3, r3, #2
 2166 001c DBB2     		uxtb	r3, r3
 2167 001e 012B     		cmp	r3, #1
 2168 0020 15D9     		bls	.L189
 2169              	.L187:
1058:Drivers/STM32F4xx_HAL_Driver/Src/stm32f4xx_ll_usb.c **** 
 2170              		.loc 1 1058 0
 2171 0022 0020     		movs	r0, #0
 2172 0024 7047     		bx	lr
 2173              	.LVL229:
 2174              	.L188:
1043:Drivers/STM32F4xx_HAL_Driver/Src/stm32f4xx_ll_usb.c ****     if ((ep->type == EP_TYPE_INTR) || (ep->type == EP_TYPE_BULK))
 2175              		.loc 1 1043 0
 2176 0026 00EB4310 		add	r0, r0, r3, lsl #5
 2177              	.LVL230:
 2178 002a D0F80039 		ldr	r3, [r0, #2304]
 2179              	.LVL231:
 2180 002e 23F40013 		bic	r3, r3, #2097152
 2181 0032 C0F80039 		str	r3, [r0, #2304]
 2182              	.LVL232:
1044:Drivers/STM32F4xx_HAL_Driver/Src/stm32f4xx_ll_usb.c ****     {
 2183              		.loc 1 1044 0
 2184 0036 CB78     		ldrb	r3, [r1, #3]	@ zero_extendqisi2
 2185 0038 023B     		subs	r3, r3, #2
 2186 003a DBB2     		uxtb	r3, r3
 2187 003c 012B     		cmp	r3, #1
 2188 003e F0D8     		bhi	.L187
1046:Drivers/STM32F4xx_HAL_Driver/Src/stm32f4xx_ll_usb.c ****     }
ARM GAS  C:\Users\User\AppData\Local\Temp\ccbub1mW.s 			page 68


 2189              		.loc 1 1046 0
 2190 0040 D0F80039 		ldr	r3, [r0, #2304]
 2191 0044 43F08053 		orr	r3, r3, #268435456
 2192 0048 C0F80039 		str	r3, [r0, #2304]
 2193 004c E9E7     		b	.L187
 2194              	.L189:
1054:Drivers/STM32F4xx_HAL_Driver/Src/stm32f4xx_ll_usb.c ****     }
 2195              		.loc 1 1054 0
 2196 004e D0F8003B 		ldr	r3, [r0, #2816]
 2197 0052 43F08053 		orr	r3, r3, #268435456
 2198 0056 C0F8003B 		str	r3, [r0, #2816]
 2199 005a E2E7     		b	.L187
 2200              		.cfi_endproc
 2201              	.LFE149:
 2203              		.section	.text.USB_StopDevice,"ax",%progbits
 2204              		.align	1
 2205              		.global	USB_StopDevice
 2206              		.syntax unified
 2207              		.thumb
 2208              		.thumb_func
 2209              		.fpu fpv4-sp-d16
 2211              	USB_StopDevice:
 2212              	.LFB150:
1066:Drivers/STM32F4xx_HAL_Driver/Src/stm32f4xx_ll_usb.c ****   HAL_StatusTypeDef ret;
 2213              		.loc 1 1066 0
 2214              		.cfi_startproc
 2215              		@ args = 0, pretend = 0, frame = 0
 2216              		@ frame_needed = 0, uses_anonymous_args = 0
 2217              	.LVL233:
 2218 0000 38B5     		push	{r3, r4, r5, lr}
 2219              	.LCFI31:
 2220              		.cfi_def_cfa_offset 16
 2221              		.cfi_offset 3, -16
 2222              		.cfi_offset 4, -12
 2223              		.cfi_offset 5, -8
 2224              		.cfi_offset 14, -4
 2225 0002 0546     		mov	r5, r0
1068:Drivers/STM32F4xx_HAL_Driver/Src/stm32f4xx_ll_usb.c ****   uint32_t i;
 2226              		.loc 1 1068 0
 2227 0004 0446     		mov	r4, r0
 2228              	.LVL234:
1072:Drivers/STM32F4xx_HAL_Driver/Src/stm32f4xx_ll_usb.c ****   {
 2229              		.loc 1 1072 0
 2230 0006 0022     		movs	r2, #0
 2231 0008 08E0     		b	.L191
 2232              	.LVL235:
 2233              	.L192:
1074:Drivers/STM32F4xx_HAL_Driver/Src/stm32f4xx_ll_usb.c ****     USBx_OUTEP(i)->DOEPINT = 0xFB7FU;
 2234              		.loc 1 1074 0 discriminator 3
 2235 000a 04EB4213 		add	r3, r4, r2, lsl #5
 2236 000e 4FF67F31 		movw	r1, #64383
 2237 0012 C3F80819 		str	r1, [r3, #2312]
1075:Drivers/STM32F4xx_HAL_Driver/Src/stm32f4xx_ll_usb.c ****   }
 2238              		.loc 1 1075 0 discriminator 3
 2239 0016 C3F8081B 		str	r1, [r3, #2824]
1072:Drivers/STM32F4xx_HAL_Driver/Src/stm32f4xx_ll_usb.c ****   {
 2240              		.loc 1 1072 0 discriminator 3
ARM GAS  C:\Users\User\AppData\Local\Temp\ccbub1mW.s 			page 69


 2241 001a 0132     		adds	r2, r2, #1
 2242              	.LVL236:
 2243              	.L191:
1072:Drivers/STM32F4xx_HAL_Driver/Src/stm32f4xx_ll_usb.c ****   {
 2244              		.loc 1 1072 0 is_stmt 0 discriminator 1
 2245 001c 0E2A     		cmp	r2, #14
 2246 001e F4D9     		bls	.L192
1079:Drivers/STM32F4xx_HAL_Driver/Src/stm32f4xx_ll_usb.c ****   USBx_DEVICE->DOEPMSK  = 0U;
 2247              		.loc 1 1079 0 is_stmt 1
 2248 0020 0022     		movs	r2, #0
 2249              	.LVL237:
 2250 0022 C5F81028 		str	r2, [r5, #2064]
1080:Drivers/STM32F4xx_HAL_Driver/Src/stm32f4xx_ll_usb.c ****   USBx_DEVICE->DAINTMSK = 0U;
 2251              		.loc 1 1080 0
 2252 0026 C5F81428 		str	r2, [r5, #2068]
1081:Drivers/STM32F4xx_HAL_Driver/Src/stm32f4xx_ll_usb.c **** 
 2253              		.loc 1 1081 0
 2254 002a C5F81C28 		str	r2, [r5, #2076]
1084:Drivers/STM32F4xx_HAL_Driver/Src/stm32f4xx_ll_usb.c ****   if (ret != HAL_OK)
 2255              		.loc 1 1084 0
 2256 002e 2846     		mov	r0, r5
 2257              	.LVL238:
 2258 0030 FFF7FEFF 		bl	USB_FlushRxFifo
 2259              	.LVL239:
1085:Drivers/STM32F4xx_HAL_Driver/Src/stm32f4xx_ll_usb.c ****   {
 2260              		.loc 1 1085 0
 2261 0034 0346     		mov	r3, r0
 2262 0036 08B1     		cbz	r0, .L195
 2263              	.LVL240:
 2264              	.L193:
1097:Drivers/STM32F4xx_HAL_Driver/Src/stm32f4xx_ll_usb.c **** 
 2265              		.loc 1 1097 0
 2266 0038 1846     		mov	r0, r3
 2267 003a 38BD     		pop	{r3, r4, r5, pc}
 2268              	.LVL241:
 2269              	.L195:
1090:Drivers/STM32F4xx_HAL_Driver/Src/stm32f4xx_ll_usb.c ****   if (ret != HAL_OK)
 2270              		.loc 1 1090 0
 2271 003c 1021     		movs	r1, #16
 2272 003e 2846     		mov	r0, r5
 2273              	.LVL242:
 2274 0040 FFF7FEFF 		bl	USB_FlushTxFifo
 2275              	.LVL243:
 2276 0044 0346     		mov	r3, r0
 2277              	.LVL244:
 2278 0046 F7E7     		b	.L193
 2279              		.cfi_endproc
 2280              	.LFE150:
 2282              		.section	.text.USB_SetDevAddress,"ax",%progbits
 2283              		.align	1
 2284              		.global	USB_SetDevAddress
 2285              		.syntax unified
 2286              		.thumb
 2287              		.thumb_func
 2288              		.fpu fpv4-sp-d16
 2290              	USB_SetDevAddress:
 2291              	.LFB151:
ARM GAS  C:\Users\User\AppData\Local\Temp\ccbub1mW.s 			page 70


1107:Drivers/STM32F4xx_HAL_Driver/Src/stm32f4xx_ll_usb.c ****   uint32_t USBx_BASE = (uint32_t)USBx;
 2292              		.loc 1 1107 0
 2293              		.cfi_startproc
 2294              		@ args = 0, pretend = 0, frame = 0
 2295              		@ frame_needed = 0, uses_anonymous_args = 0
 2296              		@ link register save eliminated.
 2297              	.LVL245:
1110:Drivers/STM32F4xx_HAL_Driver/Src/stm32f4xx_ll_usb.c ****   USBx_DEVICE->DCFG |= ((uint32_t)address << 4) & USB_OTG_DCFG_DAD;
 2298              		.loc 1 1110 0
 2299 0000 D0F80038 		ldr	r3, [r0, #2048]
 2300 0004 23F4FE63 		bic	r3, r3, #2032
 2301 0008 C0F80038 		str	r3, [r0, #2048]
1111:Drivers/STM32F4xx_HAL_Driver/Src/stm32f4xx_ll_usb.c **** 
 2302              		.loc 1 1111 0
 2303 000c D0F80038 		ldr	r3, [r0, #2048]
 2304 0010 0901     		lsls	r1, r1, #4
 2305              	.LVL246:
 2306 0012 01F4FE61 		and	r1, r1, #2032
 2307 0016 0B43     		orrs	r3, r3, r1
 2308 0018 C0F80038 		str	r3, [r0, #2048]
1114:Drivers/STM32F4xx_HAL_Driver/Src/stm32f4xx_ll_usb.c **** 
 2309              		.loc 1 1114 0
 2310 001c 0020     		movs	r0, #0
 2311              	.LVL247:
 2312 001e 7047     		bx	lr
 2313              		.cfi_endproc
 2314              	.LFE151:
 2316              		.section	.text.USB_DevConnect,"ax",%progbits
 2317              		.align	1
 2318              		.global	USB_DevConnect
 2319              		.syntax unified
 2320              		.thumb
 2321              		.thumb_func
 2322              		.fpu fpv4-sp-d16
 2324              	USB_DevConnect:
 2325              	.LFB152:
1122:Drivers/STM32F4xx_HAL_Driver/Src/stm32f4xx_ll_usb.c ****   uint32_t USBx_BASE = (uint32_t)USBx;
 2326              		.loc 1 1122 0
 2327              		.cfi_startproc
 2328              		@ args = 0, pretend = 0, frame = 0
 2329              		@ frame_needed = 0, uses_anonymous_args = 0
 2330              		@ link register save eliminated.
 2331              	.LVL248:
1126:Drivers/STM32F4xx_HAL_Driver/Src/stm32f4xx_ll_usb.c **** 
 2332              		.loc 1 1126 0
 2333 0000 D0F8003E 		ldr	r3, [r0, #3584]
 2334 0004 23F00303 		bic	r3, r3, #3
 2335 0008 C0F8003E 		str	r3, [r0, #3584]
1128:Drivers/STM32F4xx_HAL_Driver/Src/stm32f4xx_ll_usb.c **** 
 2336              		.loc 1 1128 0
 2337 000c D0F80438 		ldr	r3, [r0, #2052]
 2338 0010 23F00203 		bic	r3, r3, #2
 2339 0014 C0F80438 		str	r3, [r0, #2052]
1131:Drivers/STM32F4xx_HAL_Driver/Src/stm32f4xx_ll_usb.c **** 
 2340              		.loc 1 1131 0
 2341 0018 0020     		movs	r0, #0
 2342              	.LVL249:
ARM GAS  C:\Users\User\AppData\Local\Temp\ccbub1mW.s 			page 71


 2343 001a 7047     		bx	lr
 2344              		.cfi_endproc
 2345              	.LFE152:
 2347              		.section	.text.USB_DevDisconnect,"ax",%progbits
 2348              		.align	1
 2349              		.global	USB_DevDisconnect
 2350              		.syntax unified
 2351              		.thumb
 2352              		.thumb_func
 2353              		.fpu fpv4-sp-d16
 2355              	USB_DevDisconnect:
 2356              	.LFB153:
1139:Drivers/STM32F4xx_HAL_Driver/Src/stm32f4xx_ll_usb.c ****   uint32_t USBx_BASE = (uint32_t)USBx;
 2357              		.loc 1 1139 0
 2358              		.cfi_startproc
 2359              		@ args = 0, pretend = 0, frame = 0
 2360              		@ frame_needed = 0, uses_anonymous_args = 0
 2361              		@ link register save eliminated.
 2362              	.LVL250:
1143:Drivers/STM32F4xx_HAL_Driver/Src/stm32f4xx_ll_usb.c **** 
 2363              		.loc 1 1143 0
 2364 0000 D0F8003E 		ldr	r3, [r0, #3584]
 2365 0004 23F00303 		bic	r3, r3, #3
 2366 0008 C0F8003E 		str	r3, [r0, #3584]
1145:Drivers/STM32F4xx_HAL_Driver/Src/stm32f4xx_ll_usb.c **** 
 2367              		.loc 1 1145 0
 2368 000c D0F80438 		ldr	r3, [r0, #2052]
 2369 0010 43F00203 		orr	r3, r3, #2
 2370 0014 C0F80438 		str	r3, [r0, #2052]
1148:Drivers/STM32F4xx_HAL_Driver/Src/stm32f4xx_ll_usb.c **** 
 2371              		.loc 1 1148 0
 2372 0018 0020     		movs	r0, #0
 2373              	.LVL251:
 2374 001a 7047     		bx	lr
 2375              		.cfi_endproc
 2376              	.LFE153:
 2378              		.section	.text.USB_ReadInterrupts,"ax",%progbits
 2379              		.align	1
 2380              		.global	USB_ReadInterrupts
 2381              		.syntax unified
 2382              		.thumb
 2383              		.thumb_func
 2384              		.fpu fpv4-sp-d16
 2386              	USB_ReadInterrupts:
 2387              	.LFB154:
1156:Drivers/STM32F4xx_HAL_Driver/Src/stm32f4xx_ll_usb.c ****   uint32_t tmpreg;
 2388              		.loc 1 1156 0
 2389              		.cfi_startproc
 2390              		@ args = 0, pretend = 0, frame = 0
 2391              		@ frame_needed = 0, uses_anonymous_args = 0
 2392              		@ link register save eliminated.
 2393              	.LVL252:
1159:Drivers/STM32F4xx_HAL_Driver/Src/stm32f4xx_ll_usb.c ****   tmpreg &= USBx->GINTMSK;
 2394              		.loc 1 1159 0
 2395 0000 4269     		ldr	r2, [r0, #20]
 2396              	.LVL253:
1160:Drivers/STM32F4xx_HAL_Driver/Src/stm32f4xx_ll_usb.c **** 
ARM GAS  C:\Users\User\AppData\Local\Temp\ccbub1mW.s 			page 72


 2397              		.loc 1 1160 0
 2398 0002 8069     		ldr	r0, [r0, #24]
 2399              	.LVL254:
1163:Drivers/STM32F4xx_HAL_Driver/Src/stm32f4xx_ll_usb.c **** 
 2400              		.loc 1 1163 0
 2401 0004 1040     		ands	r0, r0, r2
 2402              	.LVL255:
 2403 0006 7047     		bx	lr
 2404              		.cfi_endproc
 2405              	.LFE154:
 2407              		.section	.text.USB_ReadDevAllOutEpInterrupt,"ax",%progbits
 2408              		.align	1
 2409              		.global	USB_ReadDevAllOutEpInterrupt
 2410              		.syntax unified
 2411              		.thumb
 2412              		.thumb_func
 2413              		.fpu fpv4-sp-d16
 2415              	USB_ReadDevAllOutEpInterrupt:
 2416              	.LFB155:
1171:Drivers/STM32F4xx_HAL_Driver/Src/stm32f4xx_ll_usb.c ****   uint32_t USBx_BASE = (uint32_t)USBx;
 2417              		.loc 1 1171 0
 2418              		.cfi_startproc
 2419              		@ args = 0, pretend = 0, frame = 0
 2420              		@ frame_needed = 0, uses_anonymous_args = 0
 2421              		@ link register save eliminated.
 2422              	.LVL256:
1175:Drivers/STM32F4xx_HAL_Driver/Src/stm32f4xx_ll_usb.c ****   tmpreg &= USBx_DEVICE->DAINTMSK;
 2423              		.loc 1 1175 0
 2424 0000 D0F81838 		ldr	r3, [r0, #2072]
 2425 0004 00F50060 		add	r0, r0, #2048
 2426              	.LVL257:
1176:Drivers/STM32F4xx_HAL_Driver/Src/stm32f4xx_ll_usb.c **** 
 2427              		.loc 1 1176 0
 2428 0008 C069     		ldr	r0, [r0, #28]
 2429              	.LVL258:
 2430 000a 1840     		ands	r0, r0, r3
 2431              	.LVL259:
1179:Drivers/STM32F4xx_HAL_Driver/Src/stm32f4xx_ll_usb.c **** 
 2432              		.loc 1 1179 0
 2433 000c 000C     		lsrs	r0, r0, #16
 2434              	.LVL260:
 2435 000e 7047     		bx	lr
 2436              		.cfi_endproc
 2437              	.LFE155:
 2439              		.section	.text.USB_ReadDevAllInEpInterrupt,"ax",%progbits
 2440              		.align	1
 2441              		.global	USB_ReadDevAllInEpInterrupt
 2442              		.syntax unified
 2443              		.thumb
 2444              		.thumb_func
 2445              		.fpu fpv4-sp-d16
 2447              	USB_ReadDevAllInEpInterrupt:
 2448              	.LFB156:
1187:Drivers/STM32F4xx_HAL_Driver/Src/stm32f4xx_ll_usb.c ****   uint32_t USBx_BASE = (uint32_t)USBx;
 2449              		.loc 1 1187 0
 2450              		.cfi_startproc
 2451              		@ args = 0, pretend = 0, frame = 0
ARM GAS  C:\Users\User\AppData\Local\Temp\ccbub1mW.s 			page 73


 2452              		@ frame_needed = 0, uses_anonymous_args = 0
 2453              		@ link register save eliminated.
 2454              	.LVL261:
1191:Drivers/STM32F4xx_HAL_Driver/Src/stm32f4xx_ll_usb.c ****   tmpreg &= USBx_DEVICE->DAINTMSK;
 2455              		.loc 1 1191 0
 2456 0000 D0F81838 		ldr	r3, [r0, #2072]
 2457 0004 00F50060 		add	r0, r0, #2048
 2458              	.LVL262:
1192:Drivers/STM32F4xx_HAL_Driver/Src/stm32f4xx_ll_usb.c **** 
 2459              		.loc 1 1192 0
 2460 0008 C069     		ldr	r0, [r0, #28]
 2461              	.LVL263:
 2462 000a 1840     		ands	r0, r0, r3
 2463              	.LVL264:
1195:Drivers/STM32F4xx_HAL_Driver/Src/stm32f4xx_ll_usb.c **** 
 2464              		.loc 1 1195 0
 2465 000c 80B2     		uxth	r0, r0
 2466              	.LVL265:
 2467 000e 7047     		bx	lr
 2468              		.cfi_endproc
 2469              	.LFE156:
 2471              		.section	.text.USB_ReadDevOutEPInterrupt,"ax",%progbits
 2472              		.align	1
 2473              		.global	USB_ReadDevOutEPInterrupt
 2474              		.syntax unified
 2475              		.thumb
 2476              		.thumb_func
 2477              		.fpu fpv4-sp-d16
 2479              	USB_ReadDevOutEPInterrupt:
 2480              	.LFB157:
1205:Drivers/STM32F4xx_HAL_Driver/Src/stm32f4xx_ll_usb.c ****   uint32_t USBx_BASE = (uint32_t)USBx;
 2481              		.loc 1 1205 0
 2482              		.cfi_startproc
 2483              		@ args = 0, pretend = 0, frame = 0
 2484              		@ frame_needed = 0, uses_anonymous_args = 0
 2485              		@ link register save eliminated.
 2486              	.LVL266:
1209:Drivers/STM32F4xx_HAL_Driver/Src/stm32f4xx_ll_usb.c ****   tmpreg &= USBx_DEVICE->DOEPMSK;
 2487              		.loc 1 1209 0
 2488 0000 00EB4111 		add	r1, r0, r1, lsl #5
 2489              	.LVL267:
 2490 0004 D1F8082B 		ldr	r2, [r1, #2824]
 2491              	.LVL268:
1210:Drivers/STM32F4xx_HAL_Driver/Src/stm32f4xx_ll_usb.c **** 
 2492              		.loc 1 1210 0
 2493 0008 00F50060 		add	r0, r0, #2048
 2494              	.LVL269:
 2495 000c 4069     		ldr	r0, [r0, #20]
 2496              	.LVL270:
1213:Drivers/STM32F4xx_HAL_Driver/Src/stm32f4xx_ll_usb.c **** 
 2497              		.loc 1 1213 0
 2498 000e 1040     		ands	r0, r0, r2
 2499              	.LVL271:
 2500 0010 7047     		bx	lr
 2501              		.cfi_endproc
 2502              	.LFE157:
 2504              		.section	.text.USB_ReadDevInEPInterrupt,"ax",%progbits
ARM GAS  C:\Users\User\AppData\Local\Temp\ccbub1mW.s 			page 74


 2505              		.align	1
 2506              		.global	USB_ReadDevInEPInterrupt
 2507              		.syntax unified
 2508              		.thumb
 2509              		.thumb_func
 2510              		.fpu fpv4-sp-d16
 2512              	USB_ReadDevInEPInterrupt:
 2513              	.LFB158:
1223:Drivers/STM32F4xx_HAL_Driver/Src/stm32f4xx_ll_usb.c ****   uint32_t USBx_BASE = (uint32_t)USBx;
 2514              		.loc 1 1223 0
 2515              		.cfi_startproc
 2516              		@ args = 0, pretend = 0, frame = 0
 2517              		@ frame_needed = 0, uses_anonymous_args = 0
 2518              		@ link register save eliminated.
 2519              	.LVL272:
 2520 0000 10B4     		push	{r4}
 2521              	.LCFI32:
 2522              		.cfi_def_cfa_offset 4
 2523              		.cfi_offset 4, -4
 2524              	.LVL273:
1227:Drivers/STM32F4xx_HAL_Driver/Src/stm32f4xx_ll_usb.c ****   emp = USBx_DEVICE->DIEPEMPMSK;
 2525              		.loc 1 1227 0
 2526 0002 D0F81048 		ldr	r4, [r0, #2064]
 2527              	.LVL274:
1228:Drivers/STM32F4xx_HAL_Driver/Src/stm32f4xx_ll_usb.c ****   msk |= ((emp >> (epnum & EP_ADDR_MSK)) & 0x1U) << 7;
 2528              		.loc 1 1228 0
 2529 0006 D0F83438 		ldr	r3, [r0, #2100]
 2530              	.LVL275:
1229:Drivers/STM32F4xx_HAL_Driver/Src/stm32f4xx_ll_usb.c ****   tmpreg = USBx_INEP((uint32_t)epnum)->DIEPINT & msk;
 2531              		.loc 1 1229 0
 2532 000a 01F00F02 		and	r2, r1, #15
 2533 000e D340     		lsrs	r3, r3, r2
 2534              	.LVL276:
 2535 0010 DB01     		lsls	r3, r3, #7
 2536 0012 DBB2     		uxtb	r3, r3
 2537 0014 2343     		orrs	r3, r3, r4
 2538              	.LVL277:
1230:Drivers/STM32F4xx_HAL_Driver/Src/stm32f4xx_ll_usb.c **** 
 2539              		.loc 1 1230 0
 2540 0016 00EB4110 		add	r0, r0, r1, lsl #5
 2541              	.LVL278:
 2542 001a 00F51060 		add	r0, r0, #2304
 2543 001e 8068     		ldr	r0, [r0, #8]
 2544              	.LVL279:
1233:Drivers/STM32F4xx_HAL_Driver/Src/stm32f4xx_ll_usb.c **** 
 2545              		.loc 1 1233 0
 2546 0020 1840     		ands	r0, r0, r3
 2547              	.LVL280:
 2548 0022 5DF8044B 		ldr	r4, [sp], #4
 2549              	.LCFI33:
 2550              		.cfi_restore 4
 2551              		.cfi_def_cfa_offset 0
 2552 0026 7047     		bx	lr
 2553              		.cfi_endproc
 2554              	.LFE158:
 2556              		.section	.text.USB_ClearInterrupts,"ax",%progbits
 2557              		.align	1
ARM GAS  C:\Users\User\AppData\Local\Temp\ccbub1mW.s 			page 75


 2558              		.global	USB_ClearInterrupts
 2559              		.syntax unified
 2560              		.thumb
 2561              		.thumb_func
 2562              		.fpu fpv4-sp-d16
 2564              	USB_ClearInterrupts:
 2565              	.LFB159:
1242:Drivers/STM32F4xx_HAL_Driver/Src/stm32f4xx_ll_usb.c ****   USBx->GINTSTS |= interrupt;
 2566              		.loc 1 1242 0
 2567              		.cfi_startproc
 2568              		@ args = 0, pretend = 0, frame = 0
 2569              		@ frame_needed = 0, uses_anonymous_args = 0
 2570              		@ link register save eliminated.
 2571              	.LVL281:
1243:Drivers/STM32F4xx_HAL_Driver/Src/stm32f4xx_ll_usb.c **** }
 2572              		.loc 1 1243 0
 2573 0000 4369     		ldr	r3, [r0, #20]
 2574 0002 1943     		orrs	r1, r1, r3
 2575              	.LVL282:
 2576 0004 4161     		str	r1, [r0, #20]
1244:Drivers/STM32F4xx_HAL_Driver/Src/stm32f4xx_ll_usb.c **** 
 2577              		.loc 1 1244 0
 2578 0006 7047     		bx	lr
 2579              		.cfi_endproc
 2580              	.LFE159:
 2582              		.section	.text.USB_GetMode,"ax",%progbits
 2583              		.align	1
 2584              		.global	USB_GetMode
 2585              		.syntax unified
 2586              		.thumb
 2587              		.thumb_func
 2588              		.fpu fpv4-sp-d16
 2590              	USB_GetMode:
 2591              	.LFB160:
1255:Drivers/STM32F4xx_HAL_Driver/Src/stm32f4xx_ll_usb.c ****   return ((USBx->GINTSTS) & 0x1U);
 2592              		.loc 1 1255 0
 2593              		.cfi_startproc
 2594              		@ args = 0, pretend = 0, frame = 0
 2595              		@ frame_needed = 0, uses_anonymous_args = 0
 2596              		@ link register save eliminated.
 2597              	.LVL283:
1256:Drivers/STM32F4xx_HAL_Driver/Src/stm32f4xx_ll_usb.c **** }
 2598              		.loc 1 1256 0
 2599 0000 4069     		ldr	r0, [r0, #20]
 2600              	.LVL284:
1257:Drivers/STM32F4xx_HAL_Driver/Src/stm32f4xx_ll_usb.c **** 
 2601              		.loc 1 1257 0
 2602 0002 00F00100 		and	r0, r0, #1
 2603 0006 7047     		bx	lr
 2604              		.cfi_endproc
 2605              	.LFE160:
 2607              		.section	.text.USB_ActivateSetup,"ax",%progbits
 2608              		.align	1
 2609              		.global	USB_ActivateSetup
 2610              		.syntax unified
 2611              		.thumb
 2612              		.thumb_func
ARM GAS  C:\Users\User\AppData\Local\Temp\ccbub1mW.s 			page 76


 2613              		.fpu fpv4-sp-d16
 2615              	USB_ActivateSetup:
 2616              	.LFB161:
1265:Drivers/STM32F4xx_HAL_Driver/Src/stm32f4xx_ll_usb.c ****   uint32_t USBx_BASE = (uint32_t)USBx;
 2617              		.loc 1 1265 0
 2618              		.cfi_startproc
 2619              		@ args = 0, pretend = 0, frame = 0
 2620              		@ frame_needed = 0, uses_anonymous_args = 0
 2621              		@ link register save eliminated.
 2622              	.LVL285:
1269:Drivers/STM32F4xx_HAL_Driver/Src/stm32f4xx_ll_usb.c **** 
 2623              		.loc 1 1269 0
 2624 0000 D0F80039 		ldr	r3, [r0, #2304]
 2625 0004 23F4FF63 		bic	r3, r3, #2040
 2626 0008 23F00703 		bic	r3, r3, #7
 2627 000c C0F80039 		str	r3, [r0, #2304]
1271:Drivers/STM32F4xx_HAL_Driver/Src/stm32f4xx_ll_usb.c **** 
 2628              		.loc 1 1271 0
 2629 0010 D0F80438 		ldr	r3, [r0, #2052]
 2630 0014 43F48073 		orr	r3, r3, #256
 2631 0018 C0F80438 		str	r3, [r0, #2052]
1274:Drivers/STM32F4xx_HAL_Driver/Src/stm32f4xx_ll_usb.c **** 
 2632              		.loc 1 1274 0
 2633 001c 0020     		movs	r0, #0
 2634              	.LVL286:
 2635 001e 7047     		bx	lr
 2636              		.cfi_endproc
 2637              	.LFE161:
 2639              		.section	.text.USB_EP0_OutStart,"ax",%progbits
 2640              		.align	1
 2641              		.global	USB_EP0_OutStart
 2642              		.syntax unified
 2643              		.thumb
 2644              		.thumb_func
 2645              		.fpu fpv4-sp-d16
 2647              	USB_EP0_OutStart:
 2648              	.LFB162:
1287:Drivers/STM32F4xx_HAL_Driver/Src/stm32f4xx_ll_usb.c ****   uint32_t USBx_BASE = (uint32_t)USBx;
 2649              		.loc 1 1287 0
 2650              		.cfi_startproc
 2651              		@ args = 0, pretend = 0, frame = 0
 2652              		@ frame_needed = 0, uses_anonymous_args = 0
 2653              		@ link register save eliminated.
 2654              	.LVL287:
 2655 0000 10B4     		push	{r4}
 2656              	.LCFI34:
 2657              		.cfi_def_cfa_offset 4
 2658              		.cfi_offset 4, -4
 2659              	.LVL288:
1289:Drivers/STM32F4xx_HAL_Driver/Src/stm32f4xx_ll_usb.c **** 
 2660              		.loc 1 1289 0
 2661 0002 046C     		ldr	r4, [r0, #64]
 2662              	.LVL289:
1291:Drivers/STM32F4xx_HAL_Driver/Src/stm32f4xx_ll_usb.c ****   {
 2663              		.loc 1 1291 0
 2664 0004 154B     		ldr	r3, .L213
 2665 0006 9C42     		cmp	r4, r3
ARM GAS  C:\Users\User\AppData\Local\Temp\ccbub1mW.s 			page 77


 2666 0008 03D9     		bls	.L209
1293:Drivers/STM32F4xx_HAL_Driver/Src/stm32f4xx_ll_usb.c ****     {
 2667              		.loc 1 1293 0
 2668 000a D0F8003B 		ldr	r3, [r0, #2816]
 2669 000e 002B     		cmp	r3, #0
 2670 0010 16DB     		blt	.L210
 2671              	.L209:
1299:Drivers/STM32F4xx_HAL_Driver/Src/stm32f4xx_ll_usb.c ****   USBx_OUTEP(0U)->DOEPTSIZ |= (USB_OTG_DOEPTSIZ_PKTCNT & (1U << 19));
 2672              		.loc 1 1299 0
 2673 0012 0024     		movs	r4, #0
 2674              	.LVL290:
 2675 0014 C0F8104B 		str	r4, [r0, #2832]
1300:Drivers/STM32F4xx_HAL_Driver/Src/stm32f4xx_ll_usb.c ****   USBx_OUTEP(0U)->DOEPTSIZ |= (3U * 8U);
 2676              		.loc 1 1300 0
 2677 0018 D0F8104B 		ldr	r4, [r0, #2832]
 2678 001c 44F40024 		orr	r4, r4, #524288
 2679 0020 C0F8104B 		str	r4, [r0, #2832]
1301:Drivers/STM32F4xx_HAL_Driver/Src/stm32f4xx_ll_usb.c ****   USBx_OUTEP(0U)->DOEPTSIZ |=  USB_OTG_DOEPTSIZ_STUPCNT;
 2680              		.loc 1 1301 0
 2681 0024 D0F8104B 		ldr	r4, [r0, #2832]
 2682 0028 44F01804 		orr	r4, r4, #24
 2683 002c C0F8104B 		str	r4, [r0, #2832]
1302:Drivers/STM32F4xx_HAL_Driver/Src/stm32f4xx_ll_usb.c **** 
 2684              		.loc 1 1302 0
 2685 0030 D0F8104B 		ldr	r4, [r0, #2832]
 2686 0034 44F0C044 		orr	r4, r4, #1610612736
 2687 0038 C0F8104B 		str	r4, [r0, #2832]
1304:Drivers/STM32F4xx_HAL_Driver/Src/stm32f4xx_ll_usb.c ****   {
 2688              		.loc 1 1304 0
 2689 003c 0129     		cmp	r1, #1
 2690 003e 03D0     		beq	.L212
 2691              	.L210:
1312:Drivers/STM32F4xx_HAL_Driver/Src/stm32f4xx_ll_usb.c **** 
 2692              		.loc 1 1312 0
 2693 0040 0020     		movs	r0, #0
 2694              	.LVL291:
 2695 0042 5DF8044B 		ldr	r4, [sp], #4
 2696              	.LCFI35:
 2697              		.cfi_remember_state
 2698              		.cfi_restore 4
 2699              		.cfi_def_cfa_offset 0
 2700 0046 7047     		bx	lr
 2701              	.LVL292:
 2702              	.L212:
 2703              	.LCFI36:
 2704              		.cfi_restore_state
1306:Drivers/STM32F4xx_HAL_Driver/Src/stm32f4xx_ll_usb.c ****     /* EP enable */
 2705              		.loc 1 1306 0
 2706 0048 C0F8142B 		str	r2, [r0, #2836]
1308:Drivers/STM32F4xx_HAL_Driver/Src/stm32f4xx_ll_usb.c ****   }
 2707              		.loc 1 1308 0
 2708 004c D0F8003B 		ldr	r3, [r0, #2816]
 2709 0050 43F08023 		orr	r3, r3, #-2147450880
 2710 0054 C0F8003B 		str	r3, [r0, #2816]
 2711 0058 F2E7     		b	.L210
 2712              	.L214:
 2713 005a 00BF     		.align	2
ARM GAS  C:\Users\User\AppData\Local\Temp\ccbub1mW.s 			page 78


 2714              	.L213:
 2715 005c 0A30544F 		.word	1330917386
 2716              		.cfi_endproc
 2717              	.LFE162:
 2719              		.section	.text.USB_InitFSLSPClkSel,"ax",%progbits
 2720              		.align	1
 2721              		.global	USB_InitFSLSPClkSel
 2722              		.syntax unified
 2723              		.thumb
 2724              		.thumb_func
 2725              		.fpu fpv4-sp-d16
 2727              	USB_InitFSLSPClkSel:
 2728              	.LFB165:
1346:Drivers/STM32F4xx_HAL_Driver/Src/stm32f4xx_ll_usb.c **** 
1347:Drivers/STM32F4xx_HAL_Driver/Src/stm32f4xx_ll_usb.c **** /**
1348:Drivers/STM32F4xx_HAL_Driver/Src/stm32f4xx_ll_usb.c ****   * @brief  USB_HostInit : Initializes the USB OTG controller registers
1349:Drivers/STM32F4xx_HAL_Driver/Src/stm32f4xx_ll_usb.c ****   *         for Host mode
1350:Drivers/STM32F4xx_HAL_Driver/Src/stm32f4xx_ll_usb.c ****   * @param  USBx  Selected device
1351:Drivers/STM32F4xx_HAL_Driver/Src/stm32f4xx_ll_usb.c ****   * @param  cfg   pointer to a USB_OTG_CfgTypeDef structure that contains
1352:Drivers/STM32F4xx_HAL_Driver/Src/stm32f4xx_ll_usb.c ****   *         the configuration information for the specified USBx peripheral.
1353:Drivers/STM32F4xx_HAL_Driver/Src/stm32f4xx_ll_usb.c ****   * @retval HAL status
1354:Drivers/STM32F4xx_HAL_Driver/Src/stm32f4xx_ll_usb.c ****   */
1355:Drivers/STM32F4xx_HAL_Driver/Src/stm32f4xx_ll_usb.c **** HAL_StatusTypeDef USB_HostInit(USB_OTG_GlobalTypeDef *USBx, USB_OTG_CfgTypeDef cfg)
1356:Drivers/STM32F4xx_HAL_Driver/Src/stm32f4xx_ll_usb.c **** {
1357:Drivers/STM32F4xx_HAL_Driver/Src/stm32f4xx_ll_usb.c ****   uint32_t USBx_BASE = (uint32_t)USBx;
1358:Drivers/STM32F4xx_HAL_Driver/Src/stm32f4xx_ll_usb.c ****   uint32_t i;
1359:Drivers/STM32F4xx_HAL_Driver/Src/stm32f4xx_ll_usb.c **** 
1360:Drivers/STM32F4xx_HAL_Driver/Src/stm32f4xx_ll_usb.c ****   /* Restart the Phy Clock */
1361:Drivers/STM32F4xx_HAL_Driver/Src/stm32f4xx_ll_usb.c ****   USBx_PCGCCTL = 0U;
1362:Drivers/STM32F4xx_HAL_Driver/Src/stm32f4xx_ll_usb.c **** 
1363:Drivers/STM32F4xx_HAL_Driver/Src/stm32f4xx_ll_usb.c **** #if defined(STM32F446xx) || defined(STM32F469xx) || defined(STM32F479xx) || defined(STM32F412Zx) ||
1364:Drivers/STM32F4xx_HAL_Driver/Src/stm32f4xx_ll_usb.c ****   /* Disable HW VBUS sensing */
1365:Drivers/STM32F4xx_HAL_Driver/Src/stm32f4xx_ll_usb.c ****   USBx->GCCFG &= ~(USB_OTG_GCCFG_VBDEN);
1366:Drivers/STM32F4xx_HAL_Driver/Src/stm32f4xx_ll_usb.c **** #else
1367:Drivers/STM32F4xx_HAL_Driver/Src/stm32f4xx_ll_usb.c ****   /*
1368:Drivers/STM32F4xx_HAL_Driver/Src/stm32f4xx_ll_usb.c ****   * Disable HW VBUS sensing. VBUS is internally considered to be always
1369:Drivers/STM32F4xx_HAL_Driver/Src/stm32f4xx_ll_usb.c ****   * at VBUS-Valid level (5V).
1370:Drivers/STM32F4xx_HAL_Driver/Src/stm32f4xx_ll_usb.c ****   */
1371:Drivers/STM32F4xx_HAL_Driver/Src/stm32f4xx_ll_usb.c ****   USBx->GCCFG |= USB_OTG_GCCFG_NOVBUSSENS;
1372:Drivers/STM32F4xx_HAL_Driver/Src/stm32f4xx_ll_usb.c ****   USBx->GCCFG &= ~USB_OTG_GCCFG_VBUSBSEN;
1373:Drivers/STM32F4xx_HAL_Driver/Src/stm32f4xx_ll_usb.c ****   USBx->GCCFG &= ~USB_OTG_GCCFG_VBUSASEN;
1374:Drivers/STM32F4xx_HAL_Driver/Src/stm32f4xx_ll_usb.c **** #endif /* defined(STM32F446xx) || defined(STM32F469xx) || defined(STM32F479xx) || defined(STM32F412
1375:Drivers/STM32F4xx_HAL_Driver/Src/stm32f4xx_ll_usb.c **** #if defined(STM32F412Zx) || defined(STM32F412Vx) || defined(STM32F412Rx) || defined(STM32F412Cx) ||
1376:Drivers/STM32F4xx_HAL_Driver/Src/stm32f4xx_ll_usb.c ****   /* Disable Battery chargin detector */
1377:Drivers/STM32F4xx_HAL_Driver/Src/stm32f4xx_ll_usb.c ****   USBx->GCCFG &= ~(USB_OTG_GCCFG_BCDEN);
1378:Drivers/STM32F4xx_HAL_Driver/Src/stm32f4xx_ll_usb.c **** #endif /* defined(STM32F412Zx) || defined(STM32F412Vx) || defined(STM32F412Rx) || defined(STM32F412
1379:Drivers/STM32F4xx_HAL_Driver/Src/stm32f4xx_ll_usb.c **** 
1380:Drivers/STM32F4xx_HAL_Driver/Src/stm32f4xx_ll_usb.c ****   if ((USBx->CID & (0x1U << 8)) != 0U)
1381:Drivers/STM32F4xx_HAL_Driver/Src/stm32f4xx_ll_usb.c ****   {
1382:Drivers/STM32F4xx_HAL_Driver/Src/stm32f4xx_ll_usb.c ****     if (cfg.speed == USBH_FSLS_SPEED)
1383:Drivers/STM32F4xx_HAL_Driver/Src/stm32f4xx_ll_usb.c ****     {
1384:Drivers/STM32F4xx_HAL_Driver/Src/stm32f4xx_ll_usb.c ****       /* Force Device Enumeration to FS/LS mode only */
1385:Drivers/STM32F4xx_HAL_Driver/Src/stm32f4xx_ll_usb.c ****       USBx_HOST->HCFG |= USB_OTG_HCFG_FSLSS;
1386:Drivers/STM32F4xx_HAL_Driver/Src/stm32f4xx_ll_usb.c ****     }
1387:Drivers/STM32F4xx_HAL_Driver/Src/stm32f4xx_ll_usb.c ****     else
1388:Drivers/STM32F4xx_HAL_Driver/Src/stm32f4xx_ll_usb.c ****     {
1389:Drivers/STM32F4xx_HAL_Driver/Src/stm32f4xx_ll_usb.c ****       /* Set default Max speed support */
ARM GAS  C:\Users\User\AppData\Local\Temp\ccbub1mW.s 			page 79


1390:Drivers/STM32F4xx_HAL_Driver/Src/stm32f4xx_ll_usb.c ****       USBx_HOST->HCFG &= ~(USB_OTG_HCFG_FSLSS);
1391:Drivers/STM32F4xx_HAL_Driver/Src/stm32f4xx_ll_usb.c ****     }
1392:Drivers/STM32F4xx_HAL_Driver/Src/stm32f4xx_ll_usb.c ****   }
1393:Drivers/STM32F4xx_HAL_Driver/Src/stm32f4xx_ll_usb.c ****   else
1394:Drivers/STM32F4xx_HAL_Driver/Src/stm32f4xx_ll_usb.c ****   {
1395:Drivers/STM32F4xx_HAL_Driver/Src/stm32f4xx_ll_usb.c ****     /* Set default Max speed support */
1396:Drivers/STM32F4xx_HAL_Driver/Src/stm32f4xx_ll_usb.c ****     USBx_HOST->HCFG &= ~(USB_OTG_HCFG_FSLSS);
1397:Drivers/STM32F4xx_HAL_Driver/Src/stm32f4xx_ll_usb.c ****   }
1398:Drivers/STM32F4xx_HAL_Driver/Src/stm32f4xx_ll_usb.c **** 
1399:Drivers/STM32F4xx_HAL_Driver/Src/stm32f4xx_ll_usb.c ****   /* Make sure the FIFOs are flushed. */
1400:Drivers/STM32F4xx_HAL_Driver/Src/stm32f4xx_ll_usb.c ****   (void)USB_FlushTxFifo(USBx, 0x10U); /* all Tx FIFOs */
1401:Drivers/STM32F4xx_HAL_Driver/Src/stm32f4xx_ll_usb.c ****   (void)USB_FlushRxFifo(USBx);
1402:Drivers/STM32F4xx_HAL_Driver/Src/stm32f4xx_ll_usb.c **** 
1403:Drivers/STM32F4xx_HAL_Driver/Src/stm32f4xx_ll_usb.c ****   /* Clear all pending HC Interrupts */
1404:Drivers/STM32F4xx_HAL_Driver/Src/stm32f4xx_ll_usb.c ****   for (i = 0U; i < cfg.Host_channels; i++)
1405:Drivers/STM32F4xx_HAL_Driver/Src/stm32f4xx_ll_usb.c ****   {
1406:Drivers/STM32F4xx_HAL_Driver/Src/stm32f4xx_ll_usb.c ****     USBx_HC(i)->HCINT = 0xFFFFFFFFU;
1407:Drivers/STM32F4xx_HAL_Driver/Src/stm32f4xx_ll_usb.c ****     USBx_HC(i)->HCINTMSK = 0U;
1408:Drivers/STM32F4xx_HAL_Driver/Src/stm32f4xx_ll_usb.c ****   }
1409:Drivers/STM32F4xx_HAL_Driver/Src/stm32f4xx_ll_usb.c **** 
1410:Drivers/STM32F4xx_HAL_Driver/Src/stm32f4xx_ll_usb.c ****   /* Enable VBUS driving */
1411:Drivers/STM32F4xx_HAL_Driver/Src/stm32f4xx_ll_usb.c ****   (void)USB_DriveVbus(USBx, 1U);
1412:Drivers/STM32F4xx_HAL_Driver/Src/stm32f4xx_ll_usb.c **** 
1413:Drivers/STM32F4xx_HAL_Driver/Src/stm32f4xx_ll_usb.c ****   HAL_Delay(200U);
1414:Drivers/STM32F4xx_HAL_Driver/Src/stm32f4xx_ll_usb.c **** 
1415:Drivers/STM32F4xx_HAL_Driver/Src/stm32f4xx_ll_usb.c ****   /* Disable all interrupts. */
1416:Drivers/STM32F4xx_HAL_Driver/Src/stm32f4xx_ll_usb.c ****   USBx->GINTMSK = 0U;
1417:Drivers/STM32F4xx_HAL_Driver/Src/stm32f4xx_ll_usb.c **** 
1418:Drivers/STM32F4xx_HAL_Driver/Src/stm32f4xx_ll_usb.c ****   /* Clear any pending interrupts */
1419:Drivers/STM32F4xx_HAL_Driver/Src/stm32f4xx_ll_usb.c ****   USBx->GINTSTS = 0xFFFFFFFFU;
1420:Drivers/STM32F4xx_HAL_Driver/Src/stm32f4xx_ll_usb.c **** 
1421:Drivers/STM32F4xx_HAL_Driver/Src/stm32f4xx_ll_usb.c ****   if ((USBx->CID & (0x1U << 8)) != 0U)
1422:Drivers/STM32F4xx_HAL_Driver/Src/stm32f4xx_ll_usb.c ****   {
1423:Drivers/STM32F4xx_HAL_Driver/Src/stm32f4xx_ll_usb.c ****     /* set Rx FIFO size */
1424:Drivers/STM32F4xx_HAL_Driver/Src/stm32f4xx_ll_usb.c ****     USBx->GRXFSIZ  = 0x200U;
1425:Drivers/STM32F4xx_HAL_Driver/Src/stm32f4xx_ll_usb.c ****     USBx->DIEPTXF0_HNPTXFSIZ = (uint32_t)(((0x100U << 16) & USB_OTG_NPTXFD) | 0x200U);
1426:Drivers/STM32F4xx_HAL_Driver/Src/stm32f4xx_ll_usb.c ****     USBx->HPTXFSIZ = (uint32_t)(((0xE0U << 16) & USB_OTG_HPTXFSIZ_PTXFD) | 0x300U);
1427:Drivers/STM32F4xx_HAL_Driver/Src/stm32f4xx_ll_usb.c ****   }
1428:Drivers/STM32F4xx_HAL_Driver/Src/stm32f4xx_ll_usb.c ****   else
1429:Drivers/STM32F4xx_HAL_Driver/Src/stm32f4xx_ll_usb.c ****   {
1430:Drivers/STM32F4xx_HAL_Driver/Src/stm32f4xx_ll_usb.c ****     /* set Rx FIFO size */
1431:Drivers/STM32F4xx_HAL_Driver/Src/stm32f4xx_ll_usb.c ****     USBx->GRXFSIZ  = 0x80U;
1432:Drivers/STM32F4xx_HAL_Driver/Src/stm32f4xx_ll_usb.c ****     USBx->DIEPTXF0_HNPTXFSIZ = (uint32_t)(((0x60U << 16) & USB_OTG_NPTXFD) | 0x80U);
1433:Drivers/STM32F4xx_HAL_Driver/Src/stm32f4xx_ll_usb.c ****     USBx->HPTXFSIZ = (uint32_t)(((0x40U << 16)& USB_OTG_HPTXFSIZ_PTXFD) | 0xE0U);
1434:Drivers/STM32F4xx_HAL_Driver/Src/stm32f4xx_ll_usb.c ****   }
1435:Drivers/STM32F4xx_HAL_Driver/Src/stm32f4xx_ll_usb.c **** 
1436:Drivers/STM32F4xx_HAL_Driver/Src/stm32f4xx_ll_usb.c ****   /* Enable the common interrupts */
1437:Drivers/STM32F4xx_HAL_Driver/Src/stm32f4xx_ll_usb.c ****   if (cfg.dma_enable == 0U)
1438:Drivers/STM32F4xx_HAL_Driver/Src/stm32f4xx_ll_usb.c ****   {
1439:Drivers/STM32F4xx_HAL_Driver/Src/stm32f4xx_ll_usb.c ****     USBx->GINTMSK |= USB_OTG_GINTMSK_RXFLVLM;
1440:Drivers/STM32F4xx_HAL_Driver/Src/stm32f4xx_ll_usb.c ****   }
1441:Drivers/STM32F4xx_HAL_Driver/Src/stm32f4xx_ll_usb.c **** 
1442:Drivers/STM32F4xx_HAL_Driver/Src/stm32f4xx_ll_usb.c ****   /* Enable interrupts matching to the Host mode ONLY */
1443:Drivers/STM32F4xx_HAL_Driver/Src/stm32f4xx_ll_usb.c ****   USBx->GINTMSK |= (USB_OTG_GINTMSK_PRTIM            | USB_OTG_GINTMSK_HCIM | \
1444:Drivers/STM32F4xx_HAL_Driver/Src/stm32f4xx_ll_usb.c ****                     USB_OTG_GINTMSK_SOFM             | USB_OTG_GINTSTS_DISCINT | \
1445:Drivers/STM32F4xx_HAL_Driver/Src/stm32f4xx_ll_usb.c ****                     USB_OTG_GINTMSK_PXFRM_IISOOXFRM  | USB_OTG_GINTMSK_WUIM);
1446:Drivers/STM32F4xx_HAL_Driver/Src/stm32f4xx_ll_usb.c **** 
ARM GAS  C:\Users\User\AppData\Local\Temp\ccbub1mW.s 			page 80


1447:Drivers/STM32F4xx_HAL_Driver/Src/stm32f4xx_ll_usb.c ****   return HAL_OK;
1448:Drivers/STM32F4xx_HAL_Driver/Src/stm32f4xx_ll_usb.c **** }
1449:Drivers/STM32F4xx_HAL_Driver/Src/stm32f4xx_ll_usb.c **** 
1450:Drivers/STM32F4xx_HAL_Driver/Src/stm32f4xx_ll_usb.c **** /**
1451:Drivers/STM32F4xx_HAL_Driver/Src/stm32f4xx_ll_usb.c ****   * @brief  USB_InitFSLSPClkSel : Initializes the FSLSPClkSel field of the
1452:Drivers/STM32F4xx_HAL_Driver/Src/stm32f4xx_ll_usb.c ****   *         HCFG register on the PHY type and set the right frame interval
1453:Drivers/STM32F4xx_HAL_Driver/Src/stm32f4xx_ll_usb.c ****   * @param  USBx  Selected device
1454:Drivers/STM32F4xx_HAL_Driver/Src/stm32f4xx_ll_usb.c ****   * @param  freq  clock frequency
1455:Drivers/STM32F4xx_HAL_Driver/Src/stm32f4xx_ll_usb.c ****   *          This parameter can be one of these values:
1456:Drivers/STM32F4xx_HAL_Driver/Src/stm32f4xx_ll_usb.c ****   *           HCFG_48_MHZ : Full Speed 48 MHz Clock
1457:Drivers/STM32F4xx_HAL_Driver/Src/stm32f4xx_ll_usb.c ****   *           HCFG_6_MHZ : Low Speed 6 MHz Clock
1458:Drivers/STM32F4xx_HAL_Driver/Src/stm32f4xx_ll_usb.c ****   * @retval HAL status
1459:Drivers/STM32F4xx_HAL_Driver/Src/stm32f4xx_ll_usb.c ****   */
1460:Drivers/STM32F4xx_HAL_Driver/Src/stm32f4xx_ll_usb.c **** HAL_StatusTypeDef USB_InitFSLSPClkSel(USB_OTG_GlobalTypeDef *USBx, uint8_t freq)
1461:Drivers/STM32F4xx_HAL_Driver/Src/stm32f4xx_ll_usb.c **** {
 2729              		.loc 1 1461 0
 2730              		.cfi_startproc
 2731              		@ args = 0, pretend = 0, frame = 0
 2732              		@ frame_needed = 0, uses_anonymous_args = 0
 2733              		@ link register save eliminated.
 2734              	.LVL293:
 2735 0000 10B4     		push	{r4}
 2736              	.LCFI37:
 2737              		.cfi_def_cfa_offset 4
 2738              		.cfi_offset 4, -4
 2739              	.LVL294:
1462:Drivers/STM32F4xx_HAL_Driver/Src/stm32f4xx_ll_usb.c ****   uint32_t USBx_BASE = (uint32_t)USBx;
1463:Drivers/STM32F4xx_HAL_Driver/Src/stm32f4xx_ll_usb.c **** 
1464:Drivers/STM32F4xx_HAL_Driver/Src/stm32f4xx_ll_usb.c ****   USBx_HOST->HCFG &= ~(USB_OTG_HCFG_FSLSPCS);
 2740              		.loc 1 1464 0
 2741 0002 00F58064 		add	r4, r0, #1024
 2742 0006 D0F80034 		ldr	r3, [r0, #1024]
 2743 000a 23F00303 		bic	r3, r3, #3
 2744 000e C0F80034 		str	r3, [r0, #1024]
1465:Drivers/STM32F4xx_HAL_Driver/Src/stm32f4xx_ll_usb.c ****   USBx_HOST->HCFG |= (uint32_t)freq & USB_OTG_HCFG_FSLSPCS;
 2745              		.loc 1 1465 0
 2746 0012 D0F80034 		ldr	r3, [r0, #1024]
 2747 0016 01F00302 		and	r2, r1, #3
 2748 001a 1343     		orrs	r3, r3, r2
 2749 001c C0F80034 		str	r3, [r0, #1024]
1466:Drivers/STM32F4xx_HAL_Driver/Src/stm32f4xx_ll_usb.c **** 
1467:Drivers/STM32F4xx_HAL_Driver/Src/stm32f4xx_ll_usb.c ****   if (freq == HCFG_48_MHZ)
 2750              		.loc 1 1467 0
 2751 0020 0129     		cmp	r1, #1
 2752 0022 05D0     		beq	.L219
1468:Drivers/STM32F4xx_HAL_Driver/Src/stm32f4xx_ll_usb.c ****   {
1469:Drivers/STM32F4xx_HAL_Driver/Src/stm32f4xx_ll_usb.c ****     USBx_HOST->HFIR = 48000U;
1470:Drivers/STM32F4xx_HAL_Driver/Src/stm32f4xx_ll_usb.c ****   }
1471:Drivers/STM32F4xx_HAL_Driver/Src/stm32f4xx_ll_usb.c ****   else if (freq == HCFG_6_MHZ)
 2753              		.loc 1 1471 0
 2754 0024 0229     		cmp	r1, #2
 2755 0026 07D0     		beq	.L220
 2756              	.L217:
1472:Drivers/STM32F4xx_HAL_Driver/Src/stm32f4xx_ll_usb.c ****   {
1473:Drivers/STM32F4xx_HAL_Driver/Src/stm32f4xx_ll_usb.c ****     USBx_HOST->HFIR = 6000U;
1474:Drivers/STM32F4xx_HAL_Driver/Src/stm32f4xx_ll_usb.c ****   }
1475:Drivers/STM32F4xx_HAL_Driver/Src/stm32f4xx_ll_usb.c ****   else
ARM GAS  C:\Users\User\AppData\Local\Temp\ccbub1mW.s 			page 81


1476:Drivers/STM32F4xx_HAL_Driver/Src/stm32f4xx_ll_usb.c ****   {
1477:Drivers/STM32F4xx_HAL_Driver/Src/stm32f4xx_ll_usb.c ****     /* ... */
1478:Drivers/STM32F4xx_HAL_Driver/Src/stm32f4xx_ll_usb.c ****   }
1479:Drivers/STM32F4xx_HAL_Driver/Src/stm32f4xx_ll_usb.c **** 
1480:Drivers/STM32F4xx_HAL_Driver/Src/stm32f4xx_ll_usb.c ****   return HAL_OK;
1481:Drivers/STM32F4xx_HAL_Driver/Src/stm32f4xx_ll_usb.c **** }
 2757              		.loc 1 1481 0
 2758 0028 0020     		movs	r0, #0
 2759              	.LVL295:
 2760 002a 5DF8044B 		ldr	r4, [sp], #4
 2761              	.LCFI38:
 2762              		.cfi_remember_state
 2763              		.cfi_restore 4
 2764              		.cfi_def_cfa_offset 0
 2765              	.LVL296:
 2766 002e 7047     		bx	lr
 2767              	.LVL297:
 2768              	.L219:
 2769              	.LCFI39:
 2770              		.cfi_restore_state
1469:Drivers/STM32F4xx_HAL_Driver/Src/stm32f4xx_ll_usb.c ****   }
 2771              		.loc 1 1469 0
 2772 0030 4BF68033 		movw	r3, #48000
 2773 0034 6360     		str	r3, [r4, #4]
 2774 0036 F7E7     		b	.L217
 2775              	.L220:
1473:Drivers/STM32F4xx_HAL_Driver/Src/stm32f4xx_ll_usb.c ****   }
 2776              		.loc 1 1473 0
 2777 0038 41F27073 		movw	r3, #6000
 2778 003c 6360     		str	r3, [r4, #4]
 2779 003e F3E7     		b	.L217
 2780              		.cfi_endproc
 2781              	.LFE165:
 2783              		.section	.text.USB_ResetPort,"ax",%progbits
 2784              		.align	1
 2785              		.global	USB_ResetPort
 2786              		.syntax unified
 2787              		.thumb
 2788              		.thumb_func
 2789              		.fpu fpv4-sp-d16
 2791              	USB_ResetPort:
 2792              	.LFB166:
1482:Drivers/STM32F4xx_HAL_Driver/Src/stm32f4xx_ll_usb.c **** 
1483:Drivers/STM32F4xx_HAL_Driver/Src/stm32f4xx_ll_usb.c **** /**
1484:Drivers/STM32F4xx_HAL_Driver/Src/stm32f4xx_ll_usb.c ****   * @brief  USB_OTG_ResetPort : Reset Host Port
1485:Drivers/STM32F4xx_HAL_Driver/Src/stm32f4xx_ll_usb.c ****   * @param  USBx  Selected device
1486:Drivers/STM32F4xx_HAL_Driver/Src/stm32f4xx_ll_usb.c ****   * @retval HAL status
1487:Drivers/STM32F4xx_HAL_Driver/Src/stm32f4xx_ll_usb.c ****   * @note (1)The application must wait at least 10 ms
1488:Drivers/STM32F4xx_HAL_Driver/Src/stm32f4xx_ll_usb.c ****   *   before clearing the reset bit.
1489:Drivers/STM32F4xx_HAL_Driver/Src/stm32f4xx_ll_usb.c ****   */
1490:Drivers/STM32F4xx_HAL_Driver/Src/stm32f4xx_ll_usb.c **** HAL_StatusTypeDef USB_ResetPort(USB_OTG_GlobalTypeDef *USBx)
1491:Drivers/STM32F4xx_HAL_Driver/Src/stm32f4xx_ll_usb.c **** {
 2793              		.loc 1 1491 0
 2794              		.cfi_startproc
 2795              		@ args = 0, pretend = 0, frame = 8
 2796              		@ frame_needed = 0, uses_anonymous_args = 0
 2797              	.LVL298:
ARM GAS  C:\Users\User\AppData\Local\Temp\ccbub1mW.s 			page 82


 2798 0000 30B5     		push	{r4, r5, lr}
 2799              	.LCFI40:
 2800              		.cfi_def_cfa_offset 12
 2801              		.cfi_offset 4, -12
 2802              		.cfi_offset 5, -8
 2803              		.cfi_offset 14, -4
 2804 0002 83B0     		sub	sp, sp, #12
 2805              	.LCFI41:
 2806              		.cfi_def_cfa_offset 24
 2807 0004 0446     		mov	r4, r0
 2808              	.LVL299:
1492:Drivers/STM32F4xx_HAL_Driver/Src/stm32f4xx_ll_usb.c ****   uint32_t USBx_BASE = (uint32_t)USBx;
1493:Drivers/STM32F4xx_HAL_Driver/Src/stm32f4xx_ll_usb.c **** 
1494:Drivers/STM32F4xx_HAL_Driver/Src/stm32f4xx_ll_usb.c ****   __IO uint32_t hprt0 = 0U;
 2809              		.loc 1 1494 0
 2810 0006 0025     		movs	r5, #0
 2811 0008 0195     		str	r5, [sp, #4]
1495:Drivers/STM32F4xx_HAL_Driver/Src/stm32f4xx_ll_usb.c **** 
1496:Drivers/STM32F4xx_HAL_Driver/Src/stm32f4xx_ll_usb.c ****   hprt0 = USBx_HPRT0;
 2812              		.loc 1 1496 0
 2813 000a D0F84034 		ldr	r3, [r0, #1088]
 2814 000e 0193     		str	r3, [sp, #4]
1497:Drivers/STM32F4xx_HAL_Driver/Src/stm32f4xx_ll_usb.c **** 
1498:Drivers/STM32F4xx_HAL_Driver/Src/stm32f4xx_ll_usb.c ****   hprt0 &= ~(USB_OTG_HPRT_PENA | USB_OTG_HPRT_PCDET |
 2815              		.loc 1 1498 0
 2816 0010 019B     		ldr	r3, [sp, #4]
 2817 0012 23F02E03 		bic	r3, r3, #46
 2818 0016 0193     		str	r3, [sp, #4]
1499:Drivers/STM32F4xx_HAL_Driver/Src/stm32f4xx_ll_usb.c ****              USB_OTG_HPRT_PENCHNG | USB_OTG_HPRT_POCCHNG);
1500:Drivers/STM32F4xx_HAL_Driver/Src/stm32f4xx_ll_usb.c **** 
1501:Drivers/STM32F4xx_HAL_Driver/Src/stm32f4xx_ll_usb.c ****   USBx_HPRT0 = (USB_OTG_HPRT_PRST | hprt0);
 2819              		.loc 1 1501 0
 2820 0018 019B     		ldr	r3, [sp, #4]
 2821 001a 43F48073 		orr	r3, r3, #256
 2822 001e C0F84034 		str	r3, [r0, #1088]
1502:Drivers/STM32F4xx_HAL_Driver/Src/stm32f4xx_ll_usb.c ****   HAL_Delay(100U);                                 /* See Note #1 */
 2823              		.loc 1 1502 0
 2824 0022 6420     		movs	r0, #100
 2825              	.LVL300:
 2826 0024 FFF7FEFF 		bl	HAL_Delay
 2827              	.LVL301:
1503:Drivers/STM32F4xx_HAL_Driver/Src/stm32f4xx_ll_usb.c ****   USBx_HPRT0 = ((~USB_OTG_HPRT_PRST) & hprt0);
 2828              		.loc 1 1503 0
 2829 0028 019B     		ldr	r3, [sp, #4]
 2830 002a 23F48073 		bic	r3, r3, #256
 2831 002e C4F84034 		str	r3, [r4, #1088]
1504:Drivers/STM32F4xx_HAL_Driver/Src/stm32f4xx_ll_usb.c ****   HAL_Delay(10U);
 2832              		.loc 1 1504 0
 2833 0032 0A20     		movs	r0, #10
 2834 0034 FFF7FEFF 		bl	HAL_Delay
 2835              	.LVL302:
1505:Drivers/STM32F4xx_HAL_Driver/Src/stm32f4xx_ll_usb.c **** 
1506:Drivers/STM32F4xx_HAL_Driver/Src/stm32f4xx_ll_usb.c ****   return HAL_OK;
1507:Drivers/STM32F4xx_HAL_Driver/Src/stm32f4xx_ll_usb.c **** }
 2836              		.loc 1 1507 0
 2837 0038 2846     		mov	r0, r5
 2838 003a 03B0     		add	sp, sp, #12
ARM GAS  C:\Users\User\AppData\Local\Temp\ccbub1mW.s 			page 83


 2839              	.LCFI42:
 2840              		.cfi_def_cfa_offset 12
 2841              		@ sp needed
 2842 003c 30BD     		pop	{r4, r5, pc}
 2843              		.cfi_endproc
 2844              	.LFE166:
 2846              		.section	.text.USB_DriveVbus,"ax",%progbits
 2847              		.align	1
 2848              		.global	USB_DriveVbus
 2849              		.syntax unified
 2850              		.thumb
 2851              		.thumb_func
 2852              		.fpu fpv4-sp-d16
 2854              	USB_DriveVbus:
 2855              	.LFB167:
1508:Drivers/STM32F4xx_HAL_Driver/Src/stm32f4xx_ll_usb.c **** 
1509:Drivers/STM32F4xx_HAL_Driver/Src/stm32f4xx_ll_usb.c **** /**
1510:Drivers/STM32F4xx_HAL_Driver/Src/stm32f4xx_ll_usb.c ****   * @brief  USB_DriveVbus : activate or de-activate vbus
1511:Drivers/STM32F4xx_HAL_Driver/Src/stm32f4xx_ll_usb.c ****   * @param  state  VBUS state
1512:Drivers/STM32F4xx_HAL_Driver/Src/stm32f4xx_ll_usb.c ****   *          This parameter can be one of these values:
1513:Drivers/STM32F4xx_HAL_Driver/Src/stm32f4xx_ll_usb.c ****   *           0 : Deactivate VBUS
1514:Drivers/STM32F4xx_HAL_Driver/Src/stm32f4xx_ll_usb.c ****   *           1 : Activate VBUS
1515:Drivers/STM32F4xx_HAL_Driver/Src/stm32f4xx_ll_usb.c ****   * @retval HAL status
1516:Drivers/STM32F4xx_HAL_Driver/Src/stm32f4xx_ll_usb.c ****   */
1517:Drivers/STM32F4xx_HAL_Driver/Src/stm32f4xx_ll_usb.c **** HAL_StatusTypeDef USB_DriveVbus(USB_OTG_GlobalTypeDef *USBx, uint8_t state)
1518:Drivers/STM32F4xx_HAL_Driver/Src/stm32f4xx_ll_usb.c **** {
 2856              		.loc 1 1518 0
 2857              		.cfi_startproc
 2858              		@ args = 0, pretend = 0, frame = 8
 2859              		@ frame_needed = 0, uses_anonymous_args = 0
 2860              		@ link register save eliminated.
 2861              	.LVL303:
 2862 0000 82B0     		sub	sp, sp, #8
 2863              	.LCFI43:
 2864              		.cfi_def_cfa_offset 8
 2865              	.LVL304:
1519:Drivers/STM32F4xx_HAL_Driver/Src/stm32f4xx_ll_usb.c ****   uint32_t USBx_BASE = (uint32_t)USBx;
1520:Drivers/STM32F4xx_HAL_Driver/Src/stm32f4xx_ll_usb.c ****   __IO uint32_t hprt0 = 0U;
 2866              		.loc 1 1520 0
 2867 0002 0023     		movs	r3, #0
 2868 0004 0193     		str	r3, [sp, #4]
1521:Drivers/STM32F4xx_HAL_Driver/Src/stm32f4xx_ll_usb.c **** 
1522:Drivers/STM32F4xx_HAL_Driver/Src/stm32f4xx_ll_usb.c ****   hprt0 = USBx_HPRT0;
 2869              		.loc 1 1522 0
 2870 0006 D0F84034 		ldr	r3, [r0, #1088]
 2871 000a 0193     		str	r3, [sp, #4]
1523:Drivers/STM32F4xx_HAL_Driver/Src/stm32f4xx_ll_usb.c **** 
1524:Drivers/STM32F4xx_HAL_Driver/Src/stm32f4xx_ll_usb.c ****   hprt0 &= ~(USB_OTG_HPRT_PENA | USB_OTG_HPRT_PCDET |
 2872              		.loc 1 1524 0
 2873 000c 019B     		ldr	r3, [sp, #4]
 2874 000e 23F02E03 		bic	r3, r3, #46
 2875 0012 0193     		str	r3, [sp, #4]
1525:Drivers/STM32F4xx_HAL_Driver/Src/stm32f4xx_ll_usb.c ****              USB_OTG_HPRT_PENCHNG | USB_OTG_HPRT_POCCHNG);
1526:Drivers/STM32F4xx_HAL_Driver/Src/stm32f4xx_ll_usb.c **** 
1527:Drivers/STM32F4xx_HAL_Driver/Src/stm32f4xx_ll_usb.c ****   if (((hprt0 & USB_OTG_HPRT_PPWR) == 0U) && (state == 1U))
 2876              		.loc 1 1527 0
 2877 0014 019B     		ldr	r3, [sp, #4]
ARM GAS  C:\Users\User\AppData\Local\Temp\ccbub1mW.s 			page 84


 2878 0016 13F4805F 		tst	r3, #4096
 2879 001a 01D1     		bne	.L224
 2880              		.loc 1 1527 0 is_stmt 0 discriminator 1
 2881 001c 0129     		cmp	r1, #1
 2882 001e 0CD0     		beq	.L227
 2883              	.L224:
1528:Drivers/STM32F4xx_HAL_Driver/Src/stm32f4xx_ll_usb.c ****   {
1529:Drivers/STM32F4xx_HAL_Driver/Src/stm32f4xx_ll_usb.c ****     USBx_HPRT0 = (USB_OTG_HPRT_PPWR | hprt0);
1530:Drivers/STM32F4xx_HAL_Driver/Src/stm32f4xx_ll_usb.c ****   }
1531:Drivers/STM32F4xx_HAL_Driver/Src/stm32f4xx_ll_usb.c ****   if (((hprt0 & USB_OTG_HPRT_PPWR) == USB_OTG_HPRT_PPWR) && (state == 0U))
 2884              		.loc 1 1531 0 is_stmt 1
 2885 0020 019B     		ldr	r3, [sp, #4]
 2886 0022 13F4805F 		tst	r3, #4096
 2887 0026 05D0     		beq	.L225
 2888              		.loc 1 1531 0 is_stmt 0 discriminator 1
 2889 0028 21B9     		cbnz	r1, .L225
1532:Drivers/STM32F4xx_HAL_Driver/Src/stm32f4xx_ll_usb.c ****   {
1533:Drivers/STM32F4xx_HAL_Driver/Src/stm32f4xx_ll_usb.c ****     USBx_HPRT0 = ((~USB_OTG_HPRT_PPWR) & hprt0);
 2890              		.loc 1 1533 0 is_stmt 1
 2891 002a 019B     		ldr	r3, [sp, #4]
 2892 002c 23F48053 		bic	r3, r3, #4096
 2893 0030 C0F84034 		str	r3, [r0, #1088]
 2894              	.L225:
1534:Drivers/STM32F4xx_HAL_Driver/Src/stm32f4xx_ll_usb.c ****   }
1535:Drivers/STM32F4xx_HAL_Driver/Src/stm32f4xx_ll_usb.c ****   return HAL_OK;
1536:Drivers/STM32F4xx_HAL_Driver/Src/stm32f4xx_ll_usb.c **** }
 2895              		.loc 1 1536 0
 2896 0034 0020     		movs	r0, #0
 2897              	.LVL305:
 2898 0036 02B0     		add	sp, sp, #8
 2899              	.LCFI44:
 2900              		.cfi_remember_state
 2901              		.cfi_def_cfa_offset 0
 2902              		@ sp needed
 2903 0038 7047     		bx	lr
 2904              	.LVL306:
 2905              	.L227:
 2906              	.LCFI45:
 2907              		.cfi_restore_state
1529:Drivers/STM32F4xx_HAL_Driver/Src/stm32f4xx_ll_usb.c ****   }
 2908              		.loc 1 1529 0
 2909 003a 019B     		ldr	r3, [sp, #4]
 2910 003c 43F48053 		orr	r3, r3, #4096
 2911 0040 C0F84034 		str	r3, [r0, #1088]
 2912 0044 ECE7     		b	.L224
 2913              		.cfi_endproc
 2914              	.LFE167:
 2916              		.section	.text.USB_HostInit,"ax",%progbits
 2917              		.align	1
 2918              		.global	USB_HostInit
 2919              		.syntax unified
 2920              		.thumb
 2921              		.thumb_func
 2922              		.fpu fpv4-sp-d16
 2924              	USB_HostInit:
 2925              	.LFB164:
1356:Drivers/STM32F4xx_HAL_Driver/Src/stm32f4xx_ll_usb.c ****   uint32_t USBx_BASE = (uint32_t)USBx;
ARM GAS  C:\Users\User\AppData\Local\Temp\ccbub1mW.s 			page 85


 2926              		.loc 1 1356 0
 2927              		.cfi_startproc
 2928              		@ args = 56, pretend = 16, frame = 0
 2929              		@ frame_needed = 0, uses_anonymous_args = 0
 2930              	.LVL307:
 2931 0000 84B0     		sub	sp, sp, #16
 2932              	.LCFI46:
 2933              		.cfi_def_cfa_offset 16
 2934 0002 38B5     		push	{r3, r4, r5, lr}
 2935              	.LCFI47:
 2936              		.cfi_def_cfa_offset 32
 2937              		.cfi_offset 3, -32
 2938              		.cfi_offset 4, -28
 2939              		.cfi_offset 5, -24
 2940              		.cfi_offset 14, -20
 2941 0004 0446     		mov	r4, r0
 2942 0006 05A8     		add	r0, sp, #20
 2943              	.LVL308:
 2944 0008 80E80E00 		stm	r0, {r1, r2, r3}
1357:Drivers/STM32F4xx_HAL_Driver/Src/stm32f4xx_ll_usb.c ****   uint32_t i;
 2945              		.loc 1 1357 0
 2946 000c 2546     		mov	r5, r4
 2947              	.LVL309:
1361:Drivers/STM32F4xx_HAL_Driver/Src/stm32f4xx_ll_usb.c **** 
 2948              		.loc 1 1361 0
 2949 000e 0023     		movs	r3, #0
 2950 0010 C4F8003E 		str	r3, [r4, #3584]
1371:Drivers/STM32F4xx_HAL_Driver/Src/stm32f4xx_ll_usb.c ****   USBx->GCCFG &= ~USB_OTG_GCCFG_VBUSBSEN;
 2951              		.loc 1 1371 0
 2952 0014 A36B     		ldr	r3, [r4, #56]
 2953 0016 43F40013 		orr	r3, r3, #2097152
 2954 001a A363     		str	r3, [r4, #56]
1372:Drivers/STM32F4xx_HAL_Driver/Src/stm32f4xx_ll_usb.c ****   USBx->GCCFG &= ~USB_OTG_GCCFG_VBUSASEN;
 2955              		.loc 1 1372 0
 2956 001c A36B     		ldr	r3, [r4, #56]
 2957 001e 23F40023 		bic	r3, r3, #524288
 2958 0022 A363     		str	r3, [r4, #56]
1373:Drivers/STM32F4xx_HAL_Driver/Src/stm32f4xx_ll_usb.c **** #endif /* defined(STM32F446xx) || defined(STM32F469xx) || defined(STM32F479xx) || defined(STM32F412
 2959              		.loc 1 1373 0
 2960 0024 A36B     		ldr	r3, [r4, #56]
 2961 0026 23F48023 		bic	r3, r3, #262144
 2962 002a A363     		str	r3, [r4, #56]
1380:Drivers/STM32F4xx_HAL_Driver/Src/stm32f4xx_ll_usb.c ****   {
 2963              		.loc 1 1380 0
 2964 002c E36B     		ldr	r3, [r4, #60]
 2965 002e 13F4807F 		tst	r3, #256
 2966 0032 10D0     		beq	.L229
1382:Drivers/STM32F4xx_HAL_Driver/Src/stm32f4xx_ll_usb.c ****     {
 2967              		.loc 1 1382 0
 2968 0034 079B     		ldr	r3, [sp, #28]
 2969 0036 012B     		cmp	r3, #1
 2970 0038 06D0     		beq	.L238
1390:Drivers/STM32F4xx_HAL_Driver/Src/stm32f4xx_ll_usb.c ****     }
 2971              		.loc 1 1390 0
 2972 003a D4F80034 		ldr	r3, [r4, #1024]
 2973 003e 23F00403 		bic	r3, r3, #4
 2974 0042 C4F80034 		str	r3, [r4, #1024]
ARM GAS  C:\Users\User\AppData\Local\Temp\ccbub1mW.s 			page 86


 2975 0046 0CE0     		b	.L231
 2976              	.L238:
1385:Drivers/STM32F4xx_HAL_Driver/Src/stm32f4xx_ll_usb.c ****     }
 2977              		.loc 1 1385 0
 2978 0048 D4F80034 		ldr	r3, [r4, #1024]
 2979 004c 43F00403 		orr	r3, r3, #4
 2980 0050 C4F80034 		str	r3, [r4, #1024]
 2981 0054 05E0     		b	.L231
 2982              	.L229:
1396:Drivers/STM32F4xx_HAL_Driver/Src/stm32f4xx_ll_usb.c ****   }
 2983              		.loc 1 1396 0
 2984 0056 D4F80034 		ldr	r3, [r4, #1024]
 2985 005a 23F00403 		bic	r3, r3, #4
 2986 005e C4F80034 		str	r3, [r4, #1024]
 2987              	.L231:
1400:Drivers/STM32F4xx_HAL_Driver/Src/stm32f4xx_ll_usb.c ****   (void)USB_FlushRxFifo(USBx);
 2988              		.loc 1 1400 0
 2989 0062 1021     		movs	r1, #16
 2990 0064 2046     		mov	r0, r4
 2991 0066 FFF7FEFF 		bl	USB_FlushTxFifo
 2992              	.LVL310:
1401:Drivers/STM32F4xx_HAL_Driver/Src/stm32f4xx_ll_usb.c **** 
 2993              		.loc 1 1401 0
 2994 006a 2046     		mov	r0, r4
 2995 006c FFF7FEFF 		bl	USB_FlushRxFifo
 2996              	.LVL311:
1404:Drivers/STM32F4xx_HAL_Driver/Src/stm32f4xx_ll_usb.c ****   {
 2997              		.loc 1 1404 0
 2998 0070 0022     		movs	r2, #0
 2999 0072 09E0     		b	.L232
 3000              	.LVL312:
 3001              	.L233:
1406:Drivers/STM32F4xx_HAL_Driver/Src/stm32f4xx_ll_usb.c ****     USBx_HC(i)->HCINTMSK = 0U;
 3002              		.loc 1 1406 0 discriminator 3
 3003 0074 05EB4213 		add	r3, r5, r2, lsl #5
 3004 0078 4FF0FF31 		mov	r1, #-1
 3005 007c C3F80815 		str	r1, [r3, #1288]
1407:Drivers/STM32F4xx_HAL_Driver/Src/stm32f4xx_ll_usb.c ****   }
 3006              		.loc 1 1407 0 discriminator 3
 3007 0080 0021     		movs	r1, #0
 3008 0082 C3F80C15 		str	r1, [r3, #1292]
1404:Drivers/STM32F4xx_HAL_Driver/Src/stm32f4xx_ll_usb.c ****   {
 3009              		.loc 1 1404 0 discriminator 3
 3010 0086 0132     		adds	r2, r2, #1
 3011              	.LVL313:
 3012              	.L232:
1404:Drivers/STM32F4xx_HAL_Driver/Src/stm32f4xx_ll_usb.c ****   {
 3013              		.loc 1 1404 0 is_stmt 0 discriminator 1
 3014 0088 069B     		ldr	r3, [sp, #24]
 3015 008a 9342     		cmp	r3, r2
 3016 008c F2D8     		bhi	.L233
1411:Drivers/STM32F4xx_HAL_Driver/Src/stm32f4xx_ll_usb.c **** 
 3017              		.loc 1 1411 0 is_stmt 1
 3018 008e 0121     		movs	r1, #1
 3019 0090 2046     		mov	r0, r4
 3020 0092 FFF7FEFF 		bl	USB_DriveVbus
 3021              	.LVL314:
ARM GAS  C:\Users\User\AppData\Local\Temp\ccbub1mW.s 			page 87


1413:Drivers/STM32F4xx_HAL_Driver/Src/stm32f4xx_ll_usb.c **** 
 3022              		.loc 1 1413 0
 3023 0096 C820     		movs	r0, #200
 3024 0098 FFF7FEFF 		bl	HAL_Delay
 3025              	.LVL315:
1416:Drivers/STM32F4xx_HAL_Driver/Src/stm32f4xx_ll_usb.c **** 
 3026              		.loc 1 1416 0
 3027 009c 0023     		movs	r3, #0
 3028 009e A361     		str	r3, [r4, #24]
1419:Drivers/STM32F4xx_HAL_Driver/Src/stm32f4xx_ll_usb.c **** 
 3029              		.loc 1 1419 0
 3030 00a0 4FF0FF33 		mov	r3, #-1
 3031 00a4 6361     		str	r3, [r4, #20]
1421:Drivers/STM32F4xx_HAL_Driver/Src/stm32f4xx_ll_usb.c ****   {
 3032              		.loc 1 1421 0
 3033 00a6 E36B     		ldr	r3, [r4, #60]
 3034 00a8 13F4807F 		tst	r3, #256
 3035 00ac 17D0     		beq	.L234
1424:Drivers/STM32F4xx_HAL_Driver/Src/stm32f4xx_ll_usb.c ****     USBx->DIEPTXF0_HNPTXFSIZ = (uint32_t)(((0x100U << 16) & USB_OTG_NPTXFD) | 0x200U);
 3036              		.loc 1 1424 0
 3037 00ae 4FF40073 		mov	r3, #512
 3038 00b2 6362     		str	r3, [r4, #36]
1425:Drivers/STM32F4xx_HAL_Driver/Src/stm32f4xx_ll_usb.c ****     USBx->HPTXFSIZ = (uint32_t)(((0xE0U << 16) & USB_OTG_HPTXFSIZ_PTXFD) | 0x300U);
 3039              		.loc 1 1425 0
 3040 00b4 03F18073 		add	r3, r3, #16777216
 3041 00b8 A362     		str	r3, [r4, #40]
1426:Drivers/STM32F4xx_HAL_Driver/Src/stm32f4xx_ll_usb.c ****   }
 3042              		.loc 1 1426 0
 3043 00ba 0D4B     		ldr	r3, .L239
 3044 00bc C4F80031 		str	r3, [r4, #256]
 3045              	.L235:
1437:Drivers/STM32F4xx_HAL_Driver/Src/stm32f4xx_ll_usb.c ****   {
 3046              		.loc 1 1437 0
 3047 00c0 089B     		ldr	r3, [sp, #32]
 3048 00c2 1BB9     		cbnz	r3, .L236
1439:Drivers/STM32F4xx_HAL_Driver/Src/stm32f4xx_ll_usb.c ****   }
 3049              		.loc 1 1439 0
 3050 00c4 A369     		ldr	r3, [r4, #24]
 3051 00c6 43F01003 		orr	r3, r3, #16
 3052 00ca A361     		str	r3, [r4, #24]
 3053              	.L236:
1443:Drivers/STM32F4xx_HAL_Driver/Src/stm32f4xx_ll_usb.c ****                     USB_OTG_GINTMSK_SOFM             | USB_OTG_GINTSTS_DISCINT | \
 3054              		.loc 1 1443 0
 3055 00cc A269     		ldr	r2, [r4, #24]
 3056 00ce 094B     		ldr	r3, .L239+4
 3057 00d0 1343     		orrs	r3, r3, r2
 3058 00d2 A361     		str	r3, [r4, #24]
1448:Drivers/STM32F4xx_HAL_Driver/Src/stm32f4xx_ll_usb.c **** 
 3059              		.loc 1 1448 0
 3060 00d4 0020     		movs	r0, #0
 3061 00d6 BDE83840 		pop	{r3, r4, r5, lr}
 3062              	.LCFI48:
 3063              		.cfi_remember_state
 3064              		.cfi_restore 14
 3065              		.cfi_restore 5
 3066              		.cfi_restore 4
 3067              		.cfi_restore 3
ARM GAS  C:\Users\User\AppData\Local\Temp\ccbub1mW.s 			page 88


 3068              		.cfi_def_cfa_offset 16
 3069              	.LVL316:
 3070 00da 04B0     		add	sp, sp, #16
 3071              	.LCFI49:
 3072              		.cfi_def_cfa_offset 0
 3073 00dc 7047     		bx	lr
 3074              	.LVL317:
 3075              	.L234:
 3076              	.LCFI50:
 3077              		.cfi_restore_state
1431:Drivers/STM32F4xx_HAL_Driver/Src/stm32f4xx_ll_usb.c ****     USBx->DIEPTXF0_HNPTXFSIZ = (uint32_t)(((0x60U << 16) & USB_OTG_NPTXFD) | 0x80U);
 3078              		.loc 1 1431 0
 3079 00de 8023     		movs	r3, #128
 3080 00e0 6362     		str	r3, [r4, #36]
1432:Drivers/STM32F4xx_HAL_Driver/Src/stm32f4xx_ll_usb.c ****     USBx->HPTXFSIZ = (uint32_t)(((0x40U << 16)& USB_OTG_HPTXFSIZ_PTXFD) | 0xE0U);
 3081              		.loc 1 1432 0
 3082 00e2 03F5C003 		add	r3, r3, #6291456
 3083 00e6 A362     		str	r3, [r4, #40]
1433:Drivers/STM32F4xx_HAL_Driver/Src/stm32f4xx_ll_usb.c ****   }
 3084              		.loc 1 1433 0
 3085 00e8 034B     		ldr	r3, .L239+8
 3086 00ea C4F80031 		str	r3, [r4, #256]
 3087 00ee E7E7     		b	.L235
 3088              	.L240:
 3089              		.align	2
 3090              	.L239:
 3091 00f0 0003E000 		.word	14680832
 3092 00f4 080020A3 		.word	-1558183928
 3093 00f8 E0004000 		.word	4194528
 3094              		.cfi_endproc
 3095              	.LFE164:
 3097              		.section	.text.USB_GetHostSpeed,"ax",%progbits
 3098              		.align	1
 3099              		.global	USB_GetHostSpeed
 3100              		.syntax unified
 3101              		.thumb
 3102              		.thumb_func
 3103              		.fpu fpv4-sp-d16
 3105              	USB_GetHostSpeed:
 3106              	.LFB168:
1537:Drivers/STM32F4xx_HAL_Driver/Src/stm32f4xx_ll_usb.c **** 
1538:Drivers/STM32F4xx_HAL_Driver/Src/stm32f4xx_ll_usb.c **** /**
1539:Drivers/STM32F4xx_HAL_Driver/Src/stm32f4xx_ll_usb.c ****   * @brief  Return Host Core speed
1540:Drivers/STM32F4xx_HAL_Driver/Src/stm32f4xx_ll_usb.c ****   * @param  USBx  Selected device
1541:Drivers/STM32F4xx_HAL_Driver/Src/stm32f4xx_ll_usb.c ****   * @retval speed : Host speed
1542:Drivers/STM32F4xx_HAL_Driver/Src/stm32f4xx_ll_usb.c ****   *          This parameter can be one of these values:
1543:Drivers/STM32F4xx_HAL_Driver/Src/stm32f4xx_ll_usb.c ****   *            @arg HCD_SPEED_HIGH: High speed mode
1544:Drivers/STM32F4xx_HAL_Driver/Src/stm32f4xx_ll_usb.c ****   *            @arg HCD_SPEED_FULL: Full speed mode
1545:Drivers/STM32F4xx_HAL_Driver/Src/stm32f4xx_ll_usb.c ****   *            @arg HCD_SPEED_LOW: Low speed mode
1546:Drivers/STM32F4xx_HAL_Driver/Src/stm32f4xx_ll_usb.c ****   */
1547:Drivers/STM32F4xx_HAL_Driver/Src/stm32f4xx_ll_usb.c **** uint32_t USB_GetHostSpeed(USB_OTG_GlobalTypeDef *USBx)
1548:Drivers/STM32F4xx_HAL_Driver/Src/stm32f4xx_ll_usb.c **** {
 3107              		.loc 1 1548 0
 3108              		.cfi_startproc
 3109              		@ args = 0, pretend = 0, frame = 8
 3110              		@ frame_needed = 0, uses_anonymous_args = 0
 3111              		@ link register save eliminated.
ARM GAS  C:\Users\User\AppData\Local\Temp\ccbub1mW.s 			page 89


 3112              	.LVL318:
 3113 0000 82B0     		sub	sp, sp, #8
 3114              	.LCFI51:
 3115              		.cfi_def_cfa_offset 8
 3116              	.LVL319:
1549:Drivers/STM32F4xx_HAL_Driver/Src/stm32f4xx_ll_usb.c ****   uint32_t USBx_BASE = (uint32_t)USBx;
1550:Drivers/STM32F4xx_HAL_Driver/Src/stm32f4xx_ll_usb.c ****   __IO uint32_t hprt0 = 0U;
 3117              		.loc 1 1550 0
 3118 0002 0023     		movs	r3, #0
 3119 0004 0193     		str	r3, [sp, #4]
1551:Drivers/STM32F4xx_HAL_Driver/Src/stm32f4xx_ll_usb.c **** 
1552:Drivers/STM32F4xx_HAL_Driver/Src/stm32f4xx_ll_usb.c ****   hprt0 = USBx_HPRT0;
 3120              		.loc 1 1552 0
 3121 0006 D0F84034 		ldr	r3, [r0, #1088]
 3122 000a 0193     		str	r3, [sp, #4]
1553:Drivers/STM32F4xx_HAL_Driver/Src/stm32f4xx_ll_usb.c ****   return ((hprt0 & USB_OTG_HPRT_PSPD) >> 17);
 3123              		.loc 1 1553 0
 3124 000c 0198     		ldr	r0, [sp, #4]
 3125              	.LVL320:
1554:Drivers/STM32F4xx_HAL_Driver/Src/stm32f4xx_ll_usb.c **** }
 3126              		.loc 1 1554 0
 3127 000e C0F34140 		ubfx	r0, r0, #17, #2
 3128 0012 02B0     		add	sp, sp, #8
 3129              	.LCFI52:
 3130              		.cfi_def_cfa_offset 0
 3131              		@ sp needed
 3132 0014 7047     		bx	lr
 3133              		.cfi_endproc
 3134              	.LFE168:
 3136              		.section	.text.USB_GetCurrentFrame,"ax",%progbits
 3137              		.align	1
 3138              		.global	USB_GetCurrentFrame
 3139              		.syntax unified
 3140              		.thumb
 3141              		.thumb_func
 3142              		.fpu fpv4-sp-d16
 3144              	USB_GetCurrentFrame:
 3145              	.LFB169:
1555:Drivers/STM32F4xx_HAL_Driver/Src/stm32f4xx_ll_usb.c **** 
1556:Drivers/STM32F4xx_HAL_Driver/Src/stm32f4xx_ll_usb.c **** /**
1557:Drivers/STM32F4xx_HAL_Driver/Src/stm32f4xx_ll_usb.c ****   * @brief  Return Host Current Frame number
1558:Drivers/STM32F4xx_HAL_Driver/Src/stm32f4xx_ll_usb.c ****   * @param  USBx  Selected device
1559:Drivers/STM32F4xx_HAL_Driver/Src/stm32f4xx_ll_usb.c ****   * @retval current frame number
1560:Drivers/STM32F4xx_HAL_Driver/Src/stm32f4xx_ll_usb.c ****   */
1561:Drivers/STM32F4xx_HAL_Driver/Src/stm32f4xx_ll_usb.c **** uint32_t USB_GetCurrentFrame(USB_OTG_GlobalTypeDef *USBx)
1562:Drivers/STM32F4xx_HAL_Driver/Src/stm32f4xx_ll_usb.c **** {
 3146              		.loc 1 1562 0
 3147              		.cfi_startproc
 3148              		@ args = 0, pretend = 0, frame = 0
 3149              		@ frame_needed = 0, uses_anonymous_args = 0
 3150              		@ link register save eliminated.
 3151              	.LVL321:
1563:Drivers/STM32F4xx_HAL_Driver/Src/stm32f4xx_ll_usb.c ****   uint32_t USBx_BASE = (uint32_t)USBx;
1564:Drivers/STM32F4xx_HAL_Driver/Src/stm32f4xx_ll_usb.c **** 
1565:Drivers/STM32F4xx_HAL_Driver/Src/stm32f4xx_ll_usb.c ****   return (USBx_HOST->HFNUM & USB_OTG_HFNUM_FRNUM);
 3152              		.loc 1 1565 0
 3153 0000 00F58060 		add	r0, r0, #1024
ARM GAS  C:\Users\User\AppData\Local\Temp\ccbub1mW.s 			page 90


 3154              	.LVL322:
 3155 0004 8068     		ldr	r0, [r0, #8]
 3156              	.LVL323:
1566:Drivers/STM32F4xx_HAL_Driver/Src/stm32f4xx_ll_usb.c **** }
 3157              		.loc 1 1566 0
 3158 0006 80B2     		uxth	r0, r0
 3159 0008 7047     		bx	lr
 3160              		.cfi_endproc
 3161              	.LFE169:
 3163              		.section	.text.USB_HC_Init,"ax",%progbits
 3164              		.align	1
 3165              		.global	USB_HC_Init
 3166              		.syntax unified
 3167              		.thumb
 3168              		.thumb_func
 3169              		.fpu fpv4-sp-d16
 3171              	USB_HC_Init:
 3172              	.LFB170:
1567:Drivers/STM32F4xx_HAL_Driver/Src/stm32f4xx_ll_usb.c **** 
1568:Drivers/STM32F4xx_HAL_Driver/Src/stm32f4xx_ll_usb.c **** /**
1569:Drivers/STM32F4xx_HAL_Driver/Src/stm32f4xx_ll_usb.c ****   * @brief  Initialize a host channel
1570:Drivers/STM32F4xx_HAL_Driver/Src/stm32f4xx_ll_usb.c ****   * @param  USBx  Selected device
1571:Drivers/STM32F4xx_HAL_Driver/Src/stm32f4xx_ll_usb.c ****   * @param  ch_num  Channel number
1572:Drivers/STM32F4xx_HAL_Driver/Src/stm32f4xx_ll_usb.c ****   *         This parameter can be a value from 1 to 15
1573:Drivers/STM32F4xx_HAL_Driver/Src/stm32f4xx_ll_usb.c ****   * @param  epnum  Endpoint number
1574:Drivers/STM32F4xx_HAL_Driver/Src/stm32f4xx_ll_usb.c ****   *          This parameter can be a value from 1 to 15
1575:Drivers/STM32F4xx_HAL_Driver/Src/stm32f4xx_ll_usb.c ****   * @param  dev_address  Current device address
1576:Drivers/STM32F4xx_HAL_Driver/Src/stm32f4xx_ll_usb.c ****   *          This parameter can be a value from 0 to 255
1577:Drivers/STM32F4xx_HAL_Driver/Src/stm32f4xx_ll_usb.c ****   * @param  speed  Current device speed
1578:Drivers/STM32F4xx_HAL_Driver/Src/stm32f4xx_ll_usb.c ****   *          This parameter can be one of these values:
1579:Drivers/STM32F4xx_HAL_Driver/Src/stm32f4xx_ll_usb.c ****   *            @arg USB_OTG_SPEED_HIGH: High speed mode
1580:Drivers/STM32F4xx_HAL_Driver/Src/stm32f4xx_ll_usb.c ****   *            @arg USB_OTG_SPEED_FULL: Full speed mode
1581:Drivers/STM32F4xx_HAL_Driver/Src/stm32f4xx_ll_usb.c ****   *            @arg USB_OTG_SPEED_LOW: Low speed mode
1582:Drivers/STM32F4xx_HAL_Driver/Src/stm32f4xx_ll_usb.c ****   * @param  ep_type  Endpoint Type
1583:Drivers/STM32F4xx_HAL_Driver/Src/stm32f4xx_ll_usb.c ****   *          This parameter can be one of these values:
1584:Drivers/STM32F4xx_HAL_Driver/Src/stm32f4xx_ll_usb.c ****   *            @arg EP_TYPE_CTRL: Control type
1585:Drivers/STM32F4xx_HAL_Driver/Src/stm32f4xx_ll_usb.c ****   *            @arg EP_TYPE_ISOC: Isochronous type
1586:Drivers/STM32F4xx_HAL_Driver/Src/stm32f4xx_ll_usb.c ****   *            @arg EP_TYPE_BULK: Bulk type
1587:Drivers/STM32F4xx_HAL_Driver/Src/stm32f4xx_ll_usb.c ****   *            @arg EP_TYPE_INTR: Interrupt type
1588:Drivers/STM32F4xx_HAL_Driver/Src/stm32f4xx_ll_usb.c ****   * @param  mps  Max Packet Size
1589:Drivers/STM32F4xx_HAL_Driver/Src/stm32f4xx_ll_usb.c ****   *          This parameter can be a value from 0 to32K
1590:Drivers/STM32F4xx_HAL_Driver/Src/stm32f4xx_ll_usb.c ****   * @retval HAL state
1591:Drivers/STM32F4xx_HAL_Driver/Src/stm32f4xx_ll_usb.c ****   */
1592:Drivers/STM32F4xx_HAL_Driver/Src/stm32f4xx_ll_usb.c **** HAL_StatusTypeDef USB_HC_Init(USB_OTG_GlobalTypeDef *USBx, uint8_t ch_num,
1593:Drivers/STM32F4xx_HAL_Driver/Src/stm32f4xx_ll_usb.c ****                               uint8_t epnum, uint8_t dev_address, uint8_t speed,
1594:Drivers/STM32F4xx_HAL_Driver/Src/stm32f4xx_ll_usb.c ****                               uint8_t ep_type, uint16_t mps)
1595:Drivers/STM32F4xx_HAL_Driver/Src/stm32f4xx_ll_usb.c **** {
 3173              		.loc 1 1595 0
 3174              		.cfi_startproc
 3175              		@ args = 12, pretend = 0, frame = 0
 3176              		@ frame_needed = 0, uses_anonymous_args = 0
 3177              	.LVL324:
 3178 0000 F0B5     		push	{r4, r5, r6, r7, lr}
 3179              	.LCFI53:
 3180              		.cfi_def_cfa_offset 20
 3181              		.cfi_offset 4, -20
 3182              		.cfi_offset 5, -16
ARM GAS  C:\Users\User\AppData\Local\Temp\ccbub1mW.s 			page 91


 3183              		.cfi_offset 6, -12
 3184              		.cfi_offset 7, -8
 3185              		.cfi_offset 14, -4
 3186 0002 0646     		mov	r6, r0
 3187 0004 9DF81840 		ldrb	r4, [sp, #24]	@ zero_extendqisi2
 3188              	.LVL325:
1596:Drivers/STM32F4xx_HAL_Driver/Src/stm32f4xx_ll_usb.c ****   HAL_StatusTypeDef ret = HAL_OK;
1597:Drivers/STM32F4xx_HAL_Driver/Src/stm32f4xx_ll_usb.c ****   uint32_t USBx_BASE = (uint32_t)USBx;
1598:Drivers/STM32F4xx_HAL_Driver/Src/stm32f4xx_ll_usb.c ****   uint32_t HCcharEpDir, HCcharLowSpeed;
1599:Drivers/STM32F4xx_HAL_Driver/Src/stm32f4xx_ll_usb.c **** 
1600:Drivers/STM32F4xx_HAL_Driver/Src/stm32f4xx_ll_usb.c ****   /* Clear old interrupt conditions for this host channel. */
1601:Drivers/STM32F4xx_HAL_Driver/Src/stm32f4xx_ll_usb.c ****   USBx_HC((uint32_t)ch_num)->HCINT = 0xFFFFFFFFU;
 3189              		.loc 1 1601 0
 3190 0008 00EB4115 		add	r5, r0, r1, lsl #5
 3191 000c 05F5A060 		add	r0, r5, #1280
 3192              	.LVL326:
 3193 0010 4FF0FF37 		mov	r7, #-1
 3194 0014 8760     		str	r7, [r0, #8]
1602:Drivers/STM32F4xx_HAL_Driver/Src/stm32f4xx_ll_usb.c **** 
1603:Drivers/STM32F4xx_HAL_Driver/Src/stm32f4xx_ll_usb.c ****   /* Enable channel interrupts required for this transfer. */
1604:Drivers/STM32F4xx_HAL_Driver/Src/stm32f4xx_ll_usb.c ****   switch (ep_type)
 3195              		.loc 1 1604 0
 3196 0016 032C     		cmp	r4, #3
 3197 0018 65D8     		bhi	.L254
 3198 001a DFE804F0 		tbb	[pc, r4]
 3199              	.L247:
 3200 001e 02       		.byte	(.L246-.L247)/2
 3201 001f 56       		.byte	(.L248-.L247)/2
 3202 0020 02       		.byte	(.L246-.L247)/2
 3203 0021 18       		.byte	(.L249-.L247)/2
 3204              		.p2align 1
 3205              	.L246:
1605:Drivers/STM32F4xx_HAL_Driver/Src/stm32f4xx_ll_usb.c ****   {
1606:Drivers/STM32F4xx_HAL_Driver/Src/stm32f4xx_ll_usb.c ****     case EP_TYPE_CTRL:
1607:Drivers/STM32F4xx_HAL_Driver/Src/stm32f4xx_ll_usb.c ****     case EP_TYPE_BULK:
1608:Drivers/STM32F4xx_HAL_Driver/Src/stm32f4xx_ll_usb.c ****       USBx_HC((uint32_t)ch_num)->HCINTMSK = USB_OTG_HCINTMSK_XFRCM  |
 3206              		.loc 1 1608 0
 3207 0022 40F29D47 		movw	r7, #1181
 3208 0026 C760     		str	r7, [r0, #12]
1609:Drivers/STM32F4xx_HAL_Driver/Src/stm32f4xx_ll_usb.c ****                                             USB_OTG_HCINTMSK_STALLM |
1610:Drivers/STM32F4xx_HAL_Driver/Src/stm32f4xx_ll_usb.c ****                                             USB_OTG_HCINTMSK_TXERRM |
1611:Drivers/STM32F4xx_HAL_Driver/Src/stm32f4xx_ll_usb.c ****                                             USB_OTG_HCINTMSK_DTERRM |
1612:Drivers/STM32F4xx_HAL_Driver/Src/stm32f4xx_ll_usb.c ****                                             USB_OTG_HCINTMSK_AHBERR |
1613:Drivers/STM32F4xx_HAL_Driver/Src/stm32f4xx_ll_usb.c ****                                             USB_OTG_HCINTMSK_NAKM;
1614:Drivers/STM32F4xx_HAL_Driver/Src/stm32f4xx_ll_usb.c **** 
1615:Drivers/STM32F4xx_HAL_Driver/Src/stm32f4xx_ll_usb.c ****       if ((epnum & 0x80U) == 0x80U)
 3209              		.loc 1 1615 0
 3210 0028 12F0800F 		tst	r2, #128
 3211 002c 09D1     		bne	.L261
1616:Drivers/STM32F4xx_HAL_Driver/Src/stm32f4xx_ll_usb.c ****       {
1617:Drivers/STM32F4xx_HAL_Driver/Src/stm32f4xx_ll_usb.c ****         USBx_HC((uint32_t)ch_num)->HCINTMSK |= USB_OTG_HCINTMSK_BBERRM;
1618:Drivers/STM32F4xx_HAL_Driver/Src/stm32f4xx_ll_usb.c ****       }
1619:Drivers/STM32F4xx_HAL_Driver/Src/stm32f4xx_ll_usb.c ****       else
1620:Drivers/STM32F4xx_HAL_Driver/Src/stm32f4xx_ll_usb.c ****       {
1621:Drivers/STM32F4xx_HAL_Driver/Src/stm32f4xx_ll_usb.c ****         if ((USBx->CID & (0x1U << 8)) != 0U)
 3212              		.loc 1 1621 0
 3213 002e F76B     		ldr	r7, [r6, #60]
ARM GAS  C:\Users\User\AppData\Local\Temp\ccbub1mW.s 			page 92


 3214 0030 17F4807F 		tst	r7, #256
 3215 0034 59D0     		beq	.L255
1622:Drivers/STM32F4xx_HAL_Driver/Src/stm32f4xx_ll_usb.c ****         {
1623:Drivers/STM32F4xx_HAL_Driver/Src/stm32f4xx_ll_usb.c ****           USBx_HC((uint32_t)ch_num)->HCINTMSK |= (USB_OTG_HCINTMSK_NYET | USB_OTG_HCINTMSK_ACKM);
 3216              		.loc 1 1623 0
 3217 0036 C768     		ldr	r7, [r0, #12]
 3218 0038 47F06007 		orr	r7, r7, #96
 3219 003c C760     		str	r7, [r0, #12]
1596:Drivers/STM32F4xx_HAL_Driver/Src/stm32f4xx_ll_usb.c ****   uint32_t USBx_BASE = (uint32_t)USBx;
 3220              		.loc 1 1596 0
 3221 003e 0020     		movs	r0, #0
 3222 0040 0CE0     		b	.L245
 3223              	.L261:
1617:Drivers/STM32F4xx_HAL_Driver/Src/stm32f4xx_ll_usb.c ****       }
 3224              		.loc 1 1617 0
 3225 0042 C768     		ldr	r7, [r0, #12]
 3226 0044 47F48077 		orr	r7, r7, #256
 3227 0048 C760     		str	r7, [r0, #12]
1596:Drivers/STM32F4xx_HAL_Driver/Src/stm32f4xx_ll_usb.c ****   uint32_t USBx_BASE = (uint32_t)USBx;
 3228              		.loc 1 1596 0
 3229 004a 0020     		movs	r0, #0
 3230 004c 06E0     		b	.L245
 3231              	.L249:
1624:Drivers/STM32F4xx_HAL_Driver/Src/stm32f4xx_ll_usb.c ****         }
1625:Drivers/STM32F4xx_HAL_Driver/Src/stm32f4xx_ll_usb.c ****       }
1626:Drivers/STM32F4xx_HAL_Driver/Src/stm32f4xx_ll_usb.c ****       break;
1627:Drivers/STM32F4xx_HAL_Driver/Src/stm32f4xx_ll_usb.c **** 
1628:Drivers/STM32F4xx_HAL_Driver/Src/stm32f4xx_ll_usb.c ****     case EP_TYPE_INTR:
1629:Drivers/STM32F4xx_HAL_Driver/Src/stm32f4xx_ll_usb.c ****       USBx_HC((uint32_t)ch_num)->HCINTMSK = USB_OTG_HCINTMSK_XFRCM  |
 3232              		.loc 1 1629 0
 3233 004e 40F29D67 		movw	r7, #1693
 3234 0052 C760     		str	r7, [r0, #12]
1630:Drivers/STM32F4xx_HAL_Driver/Src/stm32f4xx_ll_usb.c ****                                             USB_OTG_HCINTMSK_STALLM |
1631:Drivers/STM32F4xx_HAL_Driver/Src/stm32f4xx_ll_usb.c ****                                             USB_OTG_HCINTMSK_TXERRM |
1632:Drivers/STM32F4xx_HAL_Driver/Src/stm32f4xx_ll_usb.c ****                                             USB_OTG_HCINTMSK_DTERRM |
1633:Drivers/STM32F4xx_HAL_Driver/Src/stm32f4xx_ll_usb.c ****                                             USB_OTG_HCINTMSK_NAKM   |
1634:Drivers/STM32F4xx_HAL_Driver/Src/stm32f4xx_ll_usb.c ****                                             USB_OTG_HCINTMSK_AHBERR |
1635:Drivers/STM32F4xx_HAL_Driver/Src/stm32f4xx_ll_usb.c ****                                             USB_OTG_HCINTMSK_FRMORM;
1636:Drivers/STM32F4xx_HAL_Driver/Src/stm32f4xx_ll_usb.c **** 
1637:Drivers/STM32F4xx_HAL_Driver/Src/stm32f4xx_ll_usb.c ****       if ((epnum & 0x80U) == 0x80U)
 3235              		.loc 1 1637 0
 3236 0054 12F0800F 		tst	r2, #128
 3237 0058 31D1     		bne	.L262
1596:Drivers/STM32F4xx_HAL_Driver/Src/stm32f4xx_ll_usb.c ****   uint32_t USBx_BASE = (uint32_t)USBx;
 3238              		.loc 1 1596 0
 3239 005a 0020     		movs	r0, #0
 3240              	.L245:
 3241              	.LVL327:
1638:Drivers/STM32F4xx_HAL_Driver/Src/stm32f4xx_ll_usb.c ****       {
1639:Drivers/STM32F4xx_HAL_Driver/Src/stm32f4xx_ll_usb.c ****         USBx_HC((uint32_t)ch_num)->HCINTMSK |= USB_OTG_HCINTMSK_BBERRM;
1640:Drivers/STM32F4xx_HAL_Driver/Src/stm32f4xx_ll_usb.c ****       }
1641:Drivers/STM32F4xx_HAL_Driver/Src/stm32f4xx_ll_usb.c **** 
1642:Drivers/STM32F4xx_HAL_Driver/Src/stm32f4xx_ll_usb.c ****       break;
1643:Drivers/STM32F4xx_HAL_Driver/Src/stm32f4xx_ll_usb.c **** 
1644:Drivers/STM32F4xx_HAL_Driver/Src/stm32f4xx_ll_usb.c ****     case EP_TYPE_ISOC:
1645:Drivers/STM32F4xx_HAL_Driver/Src/stm32f4xx_ll_usb.c ****       USBx_HC((uint32_t)ch_num)->HCINTMSK = USB_OTG_HCINTMSK_XFRCM  |
1646:Drivers/STM32F4xx_HAL_Driver/Src/stm32f4xx_ll_usb.c ****                                             USB_OTG_HCINTMSK_ACKM   |
ARM GAS  C:\Users\User\AppData\Local\Temp\ccbub1mW.s 			page 93


1647:Drivers/STM32F4xx_HAL_Driver/Src/stm32f4xx_ll_usb.c ****                                             USB_OTG_HCINTMSK_AHBERR |
1648:Drivers/STM32F4xx_HAL_Driver/Src/stm32f4xx_ll_usb.c ****                                             USB_OTG_HCINTMSK_FRMORM;
1649:Drivers/STM32F4xx_HAL_Driver/Src/stm32f4xx_ll_usb.c **** 
1650:Drivers/STM32F4xx_HAL_Driver/Src/stm32f4xx_ll_usb.c ****       if ((epnum & 0x80U) == 0x80U)
1651:Drivers/STM32F4xx_HAL_Driver/Src/stm32f4xx_ll_usb.c ****       {
1652:Drivers/STM32F4xx_HAL_Driver/Src/stm32f4xx_ll_usb.c ****         USBx_HC((uint32_t)ch_num)->HCINTMSK |= (USB_OTG_HCINTMSK_TXERRM | USB_OTG_HCINTMSK_BBERRM);
1653:Drivers/STM32F4xx_HAL_Driver/Src/stm32f4xx_ll_usb.c ****       }
1654:Drivers/STM32F4xx_HAL_Driver/Src/stm32f4xx_ll_usb.c ****       break;
1655:Drivers/STM32F4xx_HAL_Driver/Src/stm32f4xx_ll_usb.c **** 
1656:Drivers/STM32F4xx_HAL_Driver/Src/stm32f4xx_ll_usb.c ****     default:
1657:Drivers/STM32F4xx_HAL_Driver/Src/stm32f4xx_ll_usb.c ****       ret = HAL_ERROR;
1658:Drivers/STM32F4xx_HAL_Driver/Src/stm32f4xx_ll_usb.c ****       break;
1659:Drivers/STM32F4xx_HAL_Driver/Src/stm32f4xx_ll_usb.c ****   }
1660:Drivers/STM32F4xx_HAL_Driver/Src/stm32f4xx_ll_usb.c **** 
1661:Drivers/STM32F4xx_HAL_Driver/Src/stm32f4xx_ll_usb.c ****   /* Enable the top level host channel interrupt. */
1662:Drivers/STM32F4xx_HAL_Driver/Src/stm32f4xx_ll_usb.c ****   USBx_HOST->HAINTMSK |= 1UL << (ch_num & 0xFU);
 3242              		.loc 1 1662 0
 3243 005c 06F5806E 		add	lr, r6, #1024
 3244 0060 D6F81874 		ldr	r7, [r6, #1048]
 3245 0064 01F00F01 		and	r1, r1, #15
 3246              	.LVL328:
 3247 0068 4FF0010C 		mov	ip, #1
 3248 006c 0CFA01F1 		lsl	r1, ip, r1
 3249 0070 3943     		orrs	r1, r1, r7
 3250 0072 C6F81814 		str	r1, [r6, #1048]
1663:Drivers/STM32F4xx_HAL_Driver/Src/stm32f4xx_ll_usb.c **** 
1664:Drivers/STM32F4xx_HAL_Driver/Src/stm32f4xx_ll_usb.c ****   /* Make sure host channel interrupts are enabled. */
1665:Drivers/STM32F4xx_HAL_Driver/Src/stm32f4xx_ll_usb.c ****   USBx->GINTMSK |= USB_OTG_GINTMSK_HCIM;
 3251              		.loc 1 1665 0
 3252 0076 B169     		ldr	r1, [r6, #24]
 3253 0078 41F00071 		orr	r1, r1, #33554432
 3254 007c B161     		str	r1, [r6, #24]
1666:Drivers/STM32F4xx_HAL_Driver/Src/stm32f4xx_ll_usb.c **** 
1667:Drivers/STM32F4xx_HAL_Driver/Src/stm32f4xx_ll_usb.c ****   /* Program the HCCHAR register */
1668:Drivers/STM32F4xx_HAL_Driver/Src/stm32f4xx_ll_usb.c ****   if ((epnum & 0x80U) == 0x80U)
 3255              		.loc 1 1668 0
 3256 007e 12F0800F 		tst	r2, #128
 3257 0082 34D1     		bne	.L263
1669:Drivers/STM32F4xx_HAL_Driver/Src/stm32f4xx_ll_usb.c ****   {
1670:Drivers/STM32F4xx_HAL_Driver/Src/stm32f4xx_ll_usb.c ****     HCcharEpDir = (0x1U << 15) & USB_OTG_HCCHAR_EPDIR;
1671:Drivers/STM32F4xx_HAL_Driver/Src/stm32f4xx_ll_usb.c ****   }
1672:Drivers/STM32F4xx_HAL_Driver/Src/stm32f4xx_ll_usb.c ****   else
1673:Drivers/STM32F4xx_HAL_Driver/Src/stm32f4xx_ll_usb.c ****   {
1674:Drivers/STM32F4xx_HAL_Driver/Src/stm32f4xx_ll_usb.c ****     HCcharEpDir = 0U;
 3258              		.loc 1 1674 0
 3259 0084 0026     		movs	r6, #0
 3260              	.LVL329:
 3261              	.L251:
1675:Drivers/STM32F4xx_HAL_Driver/Src/stm32f4xx_ll_usb.c ****   }
1676:Drivers/STM32F4xx_HAL_Driver/Src/stm32f4xx_ll_usb.c **** 
1677:Drivers/STM32F4xx_HAL_Driver/Src/stm32f4xx_ll_usb.c ****   if (speed == HPRT0_PRTSPD_LOW_SPEED)
 3262              		.loc 1 1677 0
 3263 0086 9DF81410 		ldrb	r1, [sp, #20]	@ zero_extendqisi2
 3264 008a 0229     		cmp	r1, #2
 3265 008c 32D0     		beq	.L264
1678:Drivers/STM32F4xx_HAL_Driver/Src/stm32f4xx_ll_usb.c ****   {
1679:Drivers/STM32F4xx_HAL_Driver/Src/stm32f4xx_ll_usb.c ****     HCcharLowSpeed = (0x1U << 17) & USB_OTG_HCCHAR_LSDEV;
ARM GAS  C:\Users\User\AppData\Local\Temp\ccbub1mW.s 			page 94


1680:Drivers/STM32F4xx_HAL_Driver/Src/stm32f4xx_ll_usb.c ****   }
1681:Drivers/STM32F4xx_HAL_Driver/Src/stm32f4xx_ll_usb.c ****   else
1682:Drivers/STM32F4xx_HAL_Driver/Src/stm32f4xx_ll_usb.c ****   {
1683:Drivers/STM32F4xx_HAL_Driver/Src/stm32f4xx_ll_usb.c ****     HCcharLowSpeed = 0U;
 3266              		.loc 1 1683 0
 3267 008e 0021     		movs	r1, #0
 3268              	.L252:
 3269              	.LVL330:
1684:Drivers/STM32F4xx_HAL_Driver/Src/stm32f4xx_ll_usb.c ****   }
1685:Drivers/STM32F4xx_HAL_Driver/Src/stm32f4xx_ll_usb.c **** 
1686:Drivers/STM32F4xx_HAL_Driver/Src/stm32f4xx_ll_usb.c ****   USBx_HC((uint32_t)ch_num)->HCCHAR = (((uint32_t)dev_address << 22) & USB_OTG_HCCHAR_DAD) |
 3270              		.loc 1 1686 0
 3271 0090 9B05     		lsls	r3, r3, #22
 3272              	.LVL331:
 3273 0092 03F0FE53 		and	r3, r3, #532676608
1687:Drivers/STM32F4xx_HAL_Driver/Src/stm32f4xx_ll_usb.c ****                                       ((((uint32_t)epnum & 0x7FU) << 11) & USB_OTG_HCCHAR_EPNUM) |
 3274              		.loc 1 1687 0
 3275 0096 D202     		lsls	r2, r2, #11
 3276              	.LVL332:
 3277 0098 02F4F042 		and	r2, r2, #30720
1686:Drivers/STM32F4xx_HAL_Driver/Src/stm32f4xx_ll_usb.c ****                                       ((((uint32_t)epnum & 0x7FU) << 11) & USB_OTG_HCCHAR_EPNUM) |
 3278              		.loc 1 1686 0
 3279 009c 1343     		orrs	r3, r3, r2
1688:Drivers/STM32F4xx_HAL_Driver/Src/stm32f4xx_ll_usb.c ****                                       (((uint32_t)ep_type << 18) & USB_OTG_HCCHAR_EPTYP) |
 3280              		.loc 1 1688 0
 3281 009e A204     		lsls	r2, r4, #18
 3282 00a0 02F44022 		and	r2, r2, #786432
1687:Drivers/STM32F4xx_HAL_Driver/Src/stm32f4xx_ll_usb.c ****                                       ((((uint32_t)epnum & 0x7FU) << 11) & USB_OTG_HCCHAR_EPNUM) |
 3283              		.loc 1 1687 0
 3284 00a4 1343     		orrs	r3, r3, r2
1689:Drivers/STM32F4xx_HAL_Driver/Src/stm32f4xx_ll_usb.c ****                                       ((uint32_t)mps & USB_OTG_HCCHAR_MPSIZ) | HCcharEpDir | HCchar
 3285              		.loc 1 1689 0
 3286 00a6 BDF81C20 		ldrh	r2, [sp, #28]
 3287 00aa C2F30A02 		ubfx	r2, r2, #0, #11
1688:Drivers/STM32F4xx_HAL_Driver/Src/stm32f4xx_ll_usb.c ****                                       (((uint32_t)ep_type << 18) & USB_OTG_HCCHAR_EPTYP) |
 3288              		.loc 1 1688 0
 3289 00ae 1343     		orrs	r3, r3, r2
 3290              		.loc 1 1689 0
 3291 00b0 3343     		orrs	r3, r3, r6
 3292 00b2 0B43     		orrs	r3, r3, r1
1686:Drivers/STM32F4xx_HAL_Driver/Src/stm32f4xx_ll_usb.c ****                                       ((((uint32_t)epnum & 0x7FU) << 11) & USB_OTG_HCCHAR_EPNUM) |
 3293              		.loc 1 1686 0
 3294 00b4 C5F80035 		str	r3, [r5, #1280]
1690:Drivers/STM32F4xx_HAL_Driver/Src/stm32f4xx_ll_usb.c **** 
1691:Drivers/STM32F4xx_HAL_Driver/Src/stm32f4xx_ll_usb.c ****   if (ep_type == EP_TYPE_INTR)
 3295              		.loc 1 1691 0
 3296 00b8 032C     		cmp	r4, #3
 3297 00ba 1ED0     		beq	.L265
 3298              	.L253:
1692:Drivers/STM32F4xx_HAL_Driver/Src/stm32f4xx_ll_usb.c ****   {
1693:Drivers/STM32F4xx_HAL_Driver/Src/stm32f4xx_ll_usb.c ****     USBx_HC((uint32_t)ch_num)->HCCHAR |= USB_OTG_HCCHAR_ODDFRM ;
1694:Drivers/STM32F4xx_HAL_Driver/Src/stm32f4xx_ll_usb.c ****   }
1695:Drivers/STM32F4xx_HAL_Driver/Src/stm32f4xx_ll_usb.c **** 
1696:Drivers/STM32F4xx_HAL_Driver/Src/stm32f4xx_ll_usb.c ****   return ret;
1697:Drivers/STM32F4xx_HAL_Driver/Src/stm32f4xx_ll_usb.c **** }
 3299              		.loc 1 1697 0
 3300 00bc F0BD     		pop	{r4, r5, r6, r7, pc}
ARM GAS  C:\Users\User\AppData\Local\Temp\ccbub1mW.s 			page 95


 3301              	.LVL333:
 3302              	.L262:
1639:Drivers/STM32F4xx_HAL_Driver/Src/stm32f4xx_ll_usb.c ****       }
 3303              		.loc 1 1639 0
 3304 00be C768     		ldr	r7, [r0, #12]
 3305 00c0 47F48077 		orr	r7, r7, #256
 3306 00c4 C760     		str	r7, [r0, #12]
1596:Drivers/STM32F4xx_HAL_Driver/Src/stm32f4xx_ll_usb.c ****   uint32_t USBx_BASE = (uint32_t)USBx;
 3307              		.loc 1 1596 0
 3308 00c6 0020     		movs	r0, #0
 3309 00c8 C8E7     		b	.L245
 3310              	.L248:
1645:Drivers/STM32F4xx_HAL_Driver/Src/stm32f4xx_ll_usb.c ****                                             USB_OTG_HCINTMSK_ACKM   |
 3311              		.loc 1 1645 0
 3312 00ca 40F22527 		movw	r7, #549
 3313 00ce C760     		str	r7, [r0, #12]
1650:Drivers/STM32F4xx_HAL_Driver/Src/stm32f4xx_ll_usb.c ****       {
 3314              		.loc 1 1650 0
 3315 00d0 12F0800F 		tst	r2, #128
 3316 00d4 01D1     		bne	.L266
1596:Drivers/STM32F4xx_HAL_Driver/Src/stm32f4xx_ll_usb.c ****   uint32_t USBx_BASE = (uint32_t)USBx;
 3317              		.loc 1 1596 0
 3318 00d6 0020     		movs	r0, #0
 3319 00d8 C0E7     		b	.L245
 3320              	.L266:
1652:Drivers/STM32F4xx_HAL_Driver/Src/stm32f4xx_ll_usb.c ****       }
 3321              		.loc 1 1652 0
 3322 00da C768     		ldr	r7, [r0, #12]
 3323 00dc 47F4C077 		orr	r7, r7, #384
 3324 00e0 C760     		str	r7, [r0, #12]
1596:Drivers/STM32F4xx_HAL_Driver/Src/stm32f4xx_ll_usb.c ****   uint32_t USBx_BASE = (uint32_t)USBx;
 3325              		.loc 1 1596 0
 3326 00e2 0020     		movs	r0, #0
 3327 00e4 BAE7     		b	.L245
 3328              	.L254:
1657:Drivers/STM32F4xx_HAL_Driver/Src/stm32f4xx_ll_usb.c ****       break;
 3329              		.loc 1 1657 0
 3330 00e6 0120     		movs	r0, #1
 3331 00e8 B8E7     		b	.L245
 3332              	.L255:
1596:Drivers/STM32F4xx_HAL_Driver/Src/stm32f4xx_ll_usb.c ****   uint32_t USBx_BASE = (uint32_t)USBx;
 3333              		.loc 1 1596 0
 3334 00ea 0020     		movs	r0, #0
 3335 00ec B6E7     		b	.L245
 3336              	.LVL334:
 3337              	.L263:
1670:Drivers/STM32F4xx_HAL_Driver/Src/stm32f4xx_ll_usb.c ****   }
 3338              		.loc 1 1670 0
 3339 00ee 4FF40046 		mov	r6, #32768
 3340              	.LVL335:
 3341 00f2 C8E7     		b	.L251
 3342              	.LVL336:
 3343              	.L264:
1679:Drivers/STM32F4xx_HAL_Driver/Src/stm32f4xx_ll_usb.c ****   }
 3344              		.loc 1 1679 0
 3345 00f4 4FF40031 		mov	r1, #131072
 3346 00f8 CAE7     		b	.L252
ARM GAS  C:\Users\User\AppData\Local\Temp\ccbub1mW.s 			page 96


 3347              	.LVL337:
 3348              	.L265:
1693:Drivers/STM32F4xx_HAL_Driver/Src/stm32f4xx_ll_usb.c ****   }
 3349              		.loc 1 1693 0
 3350 00fa D5F80035 		ldr	r3, [r5, #1280]
 3351 00fe 43F00053 		orr	r3, r3, #536870912
 3352 0102 C5F80035 		str	r3, [r5, #1280]
 3353 0106 D9E7     		b	.L253
 3354              		.cfi_endproc
 3355              	.LFE170:
 3357              		.section	.text.USB_HC_ReadInterrupt,"ax",%progbits
 3358              		.align	1
 3359              		.global	USB_HC_ReadInterrupt
 3360              		.syntax unified
 3361              		.thumb
 3362              		.thumb_func
 3363              		.fpu fpv4-sp-d16
 3365              	USB_HC_ReadInterrupt:
 3366              	.LFB172:
1698:Drivers/STM32F4xx_HAL_Driver/Src/stm32f4xx_ll_usb.c **** 
1699:Drivers/STM32F4xx_HAL_Driver/Src/stm32f4xx_ll_usb.c **** /**
1700:Drivers/STM32F4xx_HAL_Driver/Src/stm32f4xx_ll_usb.c ****   * @brief  Start a transfer over a host channel
1701:Drivers/STM32F4xx_HAL_Driver/Src/stm32f4xx_ll_usb.c ****   * @param  USBx  Selected device
1702:Drivers/STM32F4xx_HAL_Driver/Src/stm32f4xx_ll_usb.c ****   * @param  hc  pointer to host channel structure
1703:Drivers/STM32F4xx_HAL_Driver/Src/stm32f4xx_ll_usb.c ****   * @param  dma USB dma enabled or disabled
1704:Drivers/STM32F4xx_HAL_Driver/Src/stm32f4xx_ll_usb.c ****   *          This parameter can be one of these values:
1705:Drivers/STM32F4xx_HAL_Driver/Src/stm32f4xx_ll_usb.c ****   *           0 : DMA feature not used
1706:Drivers/STM32F4xx_HAL_Driver/Src/stm32f4xx_ll_usb.c ****   *           1 : DMA feature used
1707:Drivers/STM32F4xx_HAL_Driver/Src/stm32f4xx_ll_usb.c ****   * @retval HAL state
1708:Drivers/STM32F4xx_HAL_Driver/Src/stm32f4xx_ll_usb.c ****   */
1709:Drivers/STM32F4xx_HAL_Driver/Src/stm32f4xx_ll_usb.c **** HAL_StatusTypeDef USB_HC_StartXfer(USB_OTG_GlobalTypeDef *USBx, USB_OTG_HCTypeDef *hc, uint8_t dma)
1710:Drivers/STM32F4xx_HAL_Driver/Src/stm32f4xx_ll_usb.c **** {
1711:Drivers/STM32F4xx_HAL_Driver/Src/stm32f4xx_ll_usb.c ****   uint32_t USBx_BASE = (uint32_t)USBx;
1712:Drivers/STM32F4xx_HAL_Driver/Src/stm32f4xx_ll_usb.c ****   uint32_t ch_num = (uint32_t)hc->ch_num;
1713:Drivers/STM32F4xx_HAL_Driver/Src/stm32f4xx_ll_usb.c ****   static __IO uint32_t tmpreg = 0U;
1714:Drivers/STM32F4xx_HAL_Driver/Src/stm32f4xx_ll_usb.c ****   uint8_t  is_oddframe;
1715:Drivers/STM32F4xx_HAL_Driver/Src/stm32f4xx_ll_usb.c ****   uint16_t len_words;
1716:Drivers/STM32F4xx_HAL_Driver/Src/stm32f4xx_ll_usb.c ****   uint16_t num_packets;
1717:Drivers/STM32F4xx_HAL_Driver/Src/stm32f4xx_ll_usb.c ****   uint16_t max_hc_pkt_count = 256U;
1718:Drivers/STM32F4xx_HAL_Driver/Src/stm32f4xx_ll_usb.c **** 
1719:Drivers/STM32F4xx_HAL_Driver/Src/stm32f4xx_ll_usb.c ****   if (((USBx->CID & (0x1U << 8)) != 0U) && (hc->speed == USBH_HS_SPEED))
1720:Drivers/STM32F4xx_HAL_Driver/Src/stm32f4xx_ll_usb.c ****   {
1721:Drivers/STM32F4xx_HAL_Driver/Src/stm32f4xx_ll_usb.c ****     if ((dma == 0U) && (hc->do_ping == 1U))
1722:Drivers/STM32F4xx_HAL_Driver/Src/stm32f4xx_ll_usb.c ****     {
1723:Drivers/STM32F4xx_HAL_Driver/Src/stm32f4xx_ll_usb.c ****       (void)USB_DoPing(USBx, hc->ch_num);
1724:Drivers/STM32F4xx_HAL_Driver/Src/stm32f4xx_ll_usb.c ****       return HAL_OK;
1725:Drivers/STM32F4xx_HAL_Driver/Src/stm32f4xx_ll_usb.c ****     }
1726:Drivers/STM32F4xx_HAL_Driver/Src/stm32f4xx_ll_usb.c ****     else if (dma == 1U)
1727:Drivers/STM32F4xx_HAL_Driver/Src/stm32f4xx_ll_usb.c ****     {
1728:Drivers/STM32F4xx_HAL_Driver/Src/stm32f4xx_ll_usb.c ****       USBx_HC(ch_num)->HCINTMSK &= ~(USB_OTG_HCINTMSK_NYET | USB_OTG_HCINTMSK_ACKM);
1729:Drivers/STM32F4xx_HAL_Driver/Src/stm32f4xx_ll_usb.c ****       hc->do_ping = 0U;
1730:Drivers/STM32F4xx_HAL_Driver/Src/stm32f4xx_ll_usb.c ****     }
1731:Drivers/STM32F4xx_HAL_Driver/Src/stm32f4xx_ll_usb.c ****     else
1732:Drivers/STM32F4xx_HAL_Driver/Src/stm32f4xx_ll_usb.c ****     {
1733:Drivers/STM32F4xx_HAL_Driver/Src/stm32f4xx_ll_usb.c ****       /* ... */
1734:Drivers/STM32F4xx_HAL_Driver/Src/stm32f4xx_ll_usb.c ****     }
1735:Drivers/STM32F4xx_HAL_Driver/Src/stm32f4xx_ll_usb.c ****   }
ARM GAS  C:\Users\User\AppData\Local\Temp\ccbub1mW.s 			page 97


1736:Drivers/STM32F4xx_HAL_Driver/Src/stm32f4xx_ll_usb.c **** 
1737:Drivers/STM32F4xx_HAL_Driver/Src/stm32f4xx_ll_usb.c ****   /* Compute the expected number of packets associated to the transfer */
1738:Drivers/STM32F4xx_HAL_Driver/Src/stm32f4xx_ll_usb.c ****   if (hc->xfer_len > 0U)
1739:Drivers/STM32F4xx_HAL_Driver/Src/stm32f4xx_ll_usb.c ****   {
1740:Drivers/STM32F4xx_HAL_Driver/Src/stm32f4xx_ll_usb.c ****     num_packets = (uint16_t)((hc->xfer_len + hc->max_packet - 1U) / hc->max_packet);
1741:Drivers/STM32F4xx_HAL_Driver/Src/stm32f4xx_ll_usb.c **** 
1742:Drivers/STM32F4xx_HAL_Driver/Src/stm32f4xx_ll_usb.c ****     if (num_packets > max_hc_pkt_count)
1743:Drivers/STM32F4xx_HAL_Driver/Src/stm32f4xx_ll_usb.c ****     {
1744:Drivers/STM32F4xx_HAL_Driver/Src/stm32f4xx_ll_usb.c ****       num_packets = max_hc_pkt_count;
1745:Drivers/STM32F4xx_HAL_Driver/Src/stm32f4xx_ll_usb.c ****       hc->xfer_len = (uint32_t)num_packets * hc->max_packet;
1746:Drivers/STM32F4xx_HAL_Driver/Src/stm32f4xx_ll_usb.c ****     }
1747:Drivers/STM32F4xx_HAL_Driver/Src/stm32f4xx_ll_usb.c ****   }
1748:Drivers/STM32F4xx_HAL_Driver/Src/stm32f4xx_ll_usb.c ****   else
1749:Drivers/STM32F4xx_HAL_Driver/Src/stm32f4xx_ll_usb.c ****   {
1750:Drivers/STM32F4xx_HAL_Driver/Src/stm32f4xx_ll_usb.c ****     num_packets = 1U;
1751:Drivers/STM32F4xx_HAL_Driver/Src/stm32f4xx_ll_usb.c ****   }
1752:Drivers/STM32F4xx_HAL_Driver/Src/stm32f4xx_ll_usb.c ****   if (hc->ep_is_in != 0U)
1753:Drivers/STM32F4xx_HAL_Driver/Src/stm32f4xx_ll_usb.c ****   {
1754:Drivers/STM32F4xx_HAL_Driver/Src/stm32f4xx_ll_usb.c ****     hc->xfer_len = (uint32_t)num_packets * hc->max_packet;
1755:Drivers/STM32F4xx_HAL_Driver/Src/stm32f4xx_ll_usb.c ****   }
1756:Drivers/STM32F4xx_HAL_Driver/Src/stm32f4xx_ll_usb.c **** 
1757:Drivers/STM32F4xx_HAL_Driver/Src/stm32f4xx_ll_usb.c ****   /* Initialize the HCTSIZn register */
1758:Drivers/STM32F4xx_HAL_Driver/Src/stm32f4xx_ll_usb.c ****   USBx_HC(ch_num)->HCTSIZ = (hc->xfer_len & USB_OTG_HCTSIZ_XFRSIZ) |
1759:Drivers/STM32F4xx_HAL_Driver/Src/stm32f4xx_ll_usb.c ****                             (((uint32_t)num_packets << 19) & USB_OTG_HCTSIZ_PKTCNT) |
1760:Drivers/STM32F4xx_HAL_Driver/Src/stm32f4xx_ll_usb.c ****                             (((uint32_t)hc->data_pid << 29) & USB_OTG_HCTSIZ_DPID);
1761:Drivers/STM32F4xx_HAL_Driver/Src/stm32f4xx_ll_usb.c **** 
1762:Drivers/STM32F4xx_HAL_Driver/Src/stm32f4xx_ll_usb.c ****   if (dma != 0U)
1763:Drivers/STM32F4xx_HAL_Driver/Src/stm32f4xx_ll_usb.c ****   {
1764:Drivers/STM32F4xx_HAL_Driver/Src/stm32f4xx_ll_usb.c ****     /* xfer_buff MUST be 32-bits aligned */
1765:Drivers/STM32F4xx_HAL_Driver/Src/stm32f4xx_ll_usb.c ****     USBx_HC(ch_num)->HCDMA = (uint32_t)hc->xfer_buff;
1766:Drivers/STM32F4xx_HAL_Driver/Src/stm32f4xx_ll_usb.c ****   }
1767:Drivers/STM32F4xx_HAL_Driver/Src/stm32f4xx_ll_usb.c **** 
1768:Drivers/STM32F4xx_HAL_Driver/Src/stm32f4xx_ll_usb.c ****   is_oddframe = (((uint32_t)USBx_HOST->HFNUM & 0x01U) != 0U) ? 0U : 1U;
1769:Drivers/STM32F4xx_HAL_Driver/Src/stm32f4xx_ll_usb.c ****   USBx_HC(ch_num)->HCCHAR &= ~USB_OTG_HCCHAR_ODDFRM;
1770:Drivers/STM32F4xx_HAL_Driver/Src/stm32f4xx_ll_usb.c ****   USBx_HC(ch_num)->HCCHAR |= (uint32_t)is_oddframe << 29;
1771:Drivers/STM32F4xx_HAL_Driver/Src/stm32f4xx_ll_usb.c **** 
1772:Drivers/STM32F4xx_HAL_Driver/Src/stm32f4xx_ll_usb.c ****   /* Set host channel enable */
1773:Drivers/STM32F4xx_HAL_Driver/Src/stm32f4xx_ll_usb.c ****   tmpreg = USBx_HC(ch_num)->HCCHAR;
1774:Drivers/STM32F4xx_HAL_Driver/Src/stm32f4xx_ll_usb.c ****   tmpreg &= ~USB_OTG_HCCHAR_CHDIS;
1775:Drivers/STM32F4xx_HAL_Driver/Src/stm32f4xx_ll_usb.c **** 
1776:Drivers/STM32F4xx_HAL_Driver/Src/stm32f4xx_ll_usb.c ****   /* make sure to set the correct ep direction */
1777:Drivers/STM32F4xx_HAL_Driver/Src/stm32f4xx_ll_usb.c ****   if (hc->ep_is_in != 0U)
1778:Drivers/STM32F4xx_HAL_Driver/Src/stm32f4xx_ll_usb.c ****   {
1779:Drivers/STM32F4xx_HAL_Driver/Src/stm32f4xx_ll_usb.c ****     tmpreg |= USB_OTG_HCCHAR_EPDIR;
1780:Drivers/STM32F4xx_HAL_Driver/Src/stm32f4xx_ll_usb.c ****   }
1781:Drivers/STM32F4xx_HAL_Driver/Src/stm32f4xx_ll_usb.c ****   else
1782:Drivers/STM32F4xx_HAL_Driver/Src/stm32f4xx_ll_usb.c ****   {
1783:Drivers/STM32F4xx_HAL_Driver/Src/stm32f4xx_ll_usb.c ****     tmpreg &= ~USB_OTG_HCCHAR_EPDIR;
1784:Drivers/STM32F4xx_HAL_Driver/Src/stm32f4xx_ll_usb.c ****   }
1785:Drivers/STM32F4xx_HAL_Driver/Src/stm32f4xx_ll_usb.c ****   tmpreg |= USB_OTG_HCCHAR_CHENA;
1786:Drivers/STM32F4xx_HAL_Driver/Src/stm32f4xx_ll_usb.c ****   USBx_HC(ch_num)->HCCHAR = tmpreg;
1787:Drivers/STM32F4xx_HAL_Driver/Src/stm32f4xx_ll_usb.c **** 
1788:Drivers/STM32F4xx_HAL_Driver/Src/stm32f4xx_ll_usb.c ****   if (dma != 0U) /* dma mode */
1789:Drivers/STM32F4xx_HAL_Driver/Src/stm32f4xx_ll_usb.c ****   {
1790:Drivers/STM32F4xx_HAL_Driver/Src/stm32f4xx_ll_usb.c ****     return HAL_OK;
1791:Drivers/STM32F4xx_HAL_Driver/Src/stm32f4xx_ll_usb.c ****   }
1792:Drivers/STM32F4xx_HAL_Driver/Src/stm32f4xx_ll_usb.c **** 
ARM GAS  C:\Users\User\AppData\Local\Temp\ccbub1mW.s 			page 98


1793:Drivers/STM32F4xx_HAL_Driver/Src/stm32f4xx_ll_usb.c ****   if ((hc->ep_is_in == 0U) && (hc->xfer_len > 0U))
1794:Drivers/STM32F4xx_HAL_Driver/Src/stm32f4xx_ll_usb.c ****   {
1795:Drivers/STM32F4xx_HAL_Driver/Src/stm32f4xx_ll_usb.c ****     switch (hc->ep_type)
1796:Drivers/STM32F4xx_HAL_Driver/Src/stm32f4xx_ll_usb.c ****     {
1797:Drivers/STM32F4xx_HAL_Driver/Src/stm32f4xx_ll_usb.c ****       /* Non periodic transfer */
1798:Drivers/STM32F4xx_HAL_Driver/Src/stm32f4xx_ll_usb.c ****       case EP_TYPE_CTRL:
1799:Drivers/STM32F4xx_HAL_Driver/Src/stm32f4xx_ll_usb.c ****       case EP_TYPE_BULK:
1800:Drivers/STM32F4xx_HAL_Driver/Src/stm32f4xx_ll_usb.c **** 
1801:Drivers/STM32F4xx_HAL_Driver/Src/stm32f4xx_ll_usb.c ****         len_words = (uint16_t)((hc->xfer_len + 3U) / 4U);
1802:Drivers/STM32F4xx_HAL_Driver/Src/stm32f4xx_ll_usb.c **** 
1803:Drivers/STM32F4xx_HAL_Driver/Src/stm32f4xx_ll_usb.c ****         /* check if there is enough space in FIFO space */
1804:Drivers/STM32F4xx_HAL_Driver/Src/stm32f4xx_ll_usb.c ****         if (len_words > (USBx->HNPTXSTS & 0xFFFFU))
1805:Drivers/STM32F4xx_HAL_Driver/Src/stm32f4xx_ll_usb.c ****         {
1806:Drivers/STM32F4xx_HAL_Driver/Src/stm32f4xx_ll_usb.c ****           /* need to process data in nptxfempty interrupt */
1807:Drivers/STM32F4xx_HAL_Driver/Src/stm32f4xx_ll_usb.c ****           USBx->GINTMSK |= USB_OTG_GINTMSK_NPTXFEM;
1808:Drivers/STM32F4xx_HAL_Driver/Src/stm32f4xx_ll_usb.c ****         }
1809:Drivers/STM32F4xx_HAL_Driver/Src/stm32f4xx_ll_usb.c ****         break;
1810:Drivers/STM32F4xx_HAL_Driver/Src/stm32f4xx_ll_usb.c **** 
1811:Drivers/STM32F4xx_HAL_Driver/Src/stm32f4xx_ll_usb.c ****       /* Periodic transfer */
1812:Drivers/STM32F4xx_HAL_Driver/Src/stm32f4xx_ll_usb.c ****       case EP_TYPE_INTR:
1813:Drivers/STM32F4xx_HAL_Driver/Src/stm32f4xx_ll_usb.c ****       case EP_TYPE_ISOC:
1814:Drivers/STM32F4xx_HAL_Driver/Src/stm32f4xx_ll_usb.c ****         len_words = (uint16_t)((hc->xfer_len + 3U) / 4U);
1815:Drivers/STM32F4xx_HAL_Driver/Src/stm32f4xx_ll_usb.c ****         /* check if there is enough space in FIFO space */
1816:Drivers/STM32F4xx_HAL_Driver/Src/stm32f4xx_ll_usb.c ****         if (len_words > (USBx_HOST->HPTXSTS & 0xFFFFU)) /* split the transfer */
1817:Drivers/STM32F4xx_HAL_Driver/Src/stm32f4xx_ll_usb.c ****         {
1818:Drivers/STM32F4xx_HAL_Driver/Src/stm32f4xx_ll_usb.c ****           /* need to process data in ptxfempty interrupt */
1819:Drivers/STM32F4xx_HAL_Driver/Src/stm32f4xx_ll_usb.c ****           USBx->GINTMSK |= USB_OTG_GINTMSK_PTXFEM;
1820:Drivers/STM32F4xx_HAL_Driver/Src/stm32f4xx_ll_usb.c ****         }
1821:Drivers/STM32F4xx_HAL_Driver/Src/stm32f4xx_ll_usb.c ****         break;
1822:Drivers/STM32F4xx_HAL_Driver/Src/stm32f4xx_ll_usb.c **** 
1823:Drivers/STM32F4xx_HAL_Driver/Src/stm32f4xx_ll_usb.c ****       default:
1824:Drivers/STM32F4xx_HAL_Driver/Src/stm32f4xx_ll_usb.c ****         break;
1825:Drivers/STM32F4xx_HAL_Driver/Src/stm32f4xx_ll_usb.c ****     }
1826:Drivers/STM32F4xx_HAL_Driver/Src/stm32f4xx_ll_usb.c **** 
1827:Drivers/STM32F4xx_HAL_Driver/Src/stm32f4xx_ll_usb.c ****     /* Write packet into the Tx FIFO. */
1828:Drivers/STM32F4xx_HAL_Driver/Src/stm32f4xx_ll_usb.c ****     (void)USB_WritePacket(USBx, hc->xfer_buff, hc->ch_num, (uint16_t)hc->xfer_len, 0);
1829:Drivers/STM32F4xx_HAL_Driver/Src/stm32f4xx_ll_usb.c ****   }
1830:Drivers/STM32F4xx_HAL_Driver/Src/stm32f4xx_ll_usb.c **** 
1831:Drivers/STM32F4xx_HAL_Driver/Src/stm32f4xx_ll_usb.c ****   return HAL_OK;
1832:Drivers/STM32F4xx_HAL_Driver/Src/stm32f4xx_ll_usb.c **** }
1833:Drivers/STM32F4xx_HAL_Driver/Src/stm32f4xx_ll_usb.c **** 
1834:Drivers/STM32F4xx_HAL_Driver/Src/stm32f4xx_ll_usb.c **** /**
1835:Drivers/STM32F4xx_HAL_Driver/Src/stm32f4xx_ll_usb.c ****   * @brief Read all host channel interrupts status
1836:Drivers/STM32F4xx_HAL_Driver/Src/stm32f4xx_ll_usb.c ****   * @param  USBx  Selected device
1837:Drivers/STM32F4xx_HAL_Driver/Src/stm32f4xx_ll_usb.c ****   * @retval HAL state
1838:Drivers/STM32F4xx_HAL_Driver/Src/stm32f4xx_ll_usb.c ****   */
1839:Drivers/STM32F4xx_HAL_Driver/Src/stm32f4xx_ll_usb.c **** uint32_t USB_HC_ReadInterrupt(USB_OTG_GlobalTypeDef *USBx)
1840:Drivers/STM32F4xx_HAL_Driver/Src/stm32f4xx_ll_usb.c **** {
 3367              		.loc 1 1840 0
 3368              		.cfi_startproc
 3369              		@ args = 0, pretend = 0, frame = 0
 3370              		@ frame_needed = 0, uses_anonymous_args = 0
 3371              		@ link register save eliminated.
 3372              	.LVL338:
1841:Drivers/STM32F4xx_HAL_Driver/Src/stm32f4xx_ll_usb.c ****   uint32_t USBx_BASE = (uint32_t)USBx;
1842:Drivers/STM32F4xx_HAL_Driver/Src/stm32f4xx_ll_usb.c **** 
1843:Drivers/STM32F4xx_HAL_Driver/Src/stm32f4xx_ll_usb.c ****   return ((USBx_HOST->HAINT) & 0xFFFFU);
ARM GAS  C:\Users\User\AppData\Local\Temp\ccbub1mW.s 			page 99


 3373              		.loc 1 1843 0
 3374 0000 00F58060 		add	r0, r0, #1024
 3375              	.LVL339:
 3376 0004 4069     		ldr	r0, [r0, #20]
 3377              	.LVL340:
1844:Drivers/STM32F4xx_HAL_Driver/Src/stm32f4xx_ll_usb.c **** }
 3378              		.loc 1 1844 0
 3379 0006 80B2     		uxth	r0, r0
 3380 0008 7047     		bx	lr
 3381              		.cfi_endproc
 3382              	.LFE172:
 3384              		.section	.text.USB_HC_Halt,"ax",%progbits
 3385              		.align	1
 3386              		.global	USB_HC_Halt
 3387              		.syntax unified
 3388              		.thumb
 3389              		.thumb_func
 3390              		.fpu fpv4-sp-d16
 3392              	USB_HC_Halt:
 3393              	.LFB173:
1845:Drivers/STM32F4xx_HAL_Driver/Src/stm32f4xx_ll_usb.c **** 
1846:Drivers/STM32F4xx_HAL_Driver/Src/stm32f4xx_ll_usb.c **** /**
1847:Drivers/STM32F4xx_HAL_Driver/Src/stm32f4xx_ll_usb.c ****   * @brief  Halt a host channel
1848:Drivers/STM32F4xx_HAL_Driver/Src/stm32f4xx_ll_usb.c ****   * @param  USBx  Selected device
1849:Drivers/STM32F4xx_HAL_Driver/Src/stm32f4xx_ll_usb.c ****   * @param  hc_num  Host Channel number
1850:Drivers/STM32F4xx_HAL_Driver/Src/stm32f4xx_ll_usb.c ****   *         This parameter can be a value from 1 to 15
1851:Drivers/STM32F4xx_HAL_Driver/Src/stm32f4xx_ll_usb.c ****   * @retval HAL state
1852:Drivers/STM32F4xx_HAL_Driver/Src/stm32f4xx_ll_usb.c ****   */
1853:Drivers/STM32F4xx_HAL_Driver/Src/stm32f4xx_ll_usb.c **** HAL_StatusTypeDef USB_HC_Halt(USB_OTG_GlobalTypeDef *USBx, uint8_t hc_num)
1854:Drivers/STM32F4xx_HAL_Driver/Src/stm32f4xx_ll_usb.c **** {
 3394              		.loc 1 1854 0
 3395              		.cfi_startproc
 3396              		@ args = 0, pretend = 0, frame = 0
 3397              		@ frame_needed = 0, uses_anonymous_args = 0
 3398              		@ link register save eliminated.
 3399              	.LVL341:
 3400 0000 10B4     		push	{r4}
 3401              	.LCFI54:
 3402              		.cfi_def_cfa_offset 4
 3403              		.cfi_offset 4, -4
 3404              	.LVL342:
1855:Drivers/STM32F4xx_HAL_Driver/Src/stm32f4xx_ll_usb.c ****   uint32_t USBx_BASE = (uint32_t)USBx;
1856:Drivers/STM32F4xx_HAL_Driver/Src/stm32f4xx_ll_usb.c ****   uint32_t hcnum = (uint32_t)hc_num;
1857:Drivers/STM32F4xx_HAL_Driver/Src/stm32f4xx_ll_usb.c ****   uint32_t count = 0U;
1858:Drivers/STM32F4xx_HAL_Driver/Src/stm32f4xx_ll_usb.c ****   uint32_t HcEpType = (USBx_HC(hcnum)->HCCHAR & USB_OTG_HCCHAR_EPTYP) >> 18;
 3405              		.loc 1 1858 0
 3406 0002 00EB4111 		add	r1, r0, r1, lsl #5
 3407              	.LVL343:
 3408 0006 01F5A064 		add	r4, r1, #1280
 3409 000a D1F80035 		ldr	r3, [r1, #1280]
 3410 000e C3F38143 		ubfx	r3, r3, #18, #2
 3411              	.LVL344:
1859:Drivers/STM32F4xx_HAL_Driver/Src/stm32f4xx_ll_usb.c **** 
1860:Drivers/STM32F4xx_HAL_Driver/Src/stm32f4xx_ll_usb.c ****   /* Check for space in the request queue to issue the halt. */
1861:Drivers/STM32F4xx_HAL_Driver/Src/stm32f4xx_ll_usb.c ****   if ((HcEpType == HCCHAR_CTRL) || (HcEpType == HCCHAR_BULK))
 3412              		.loc 1 1861 0
 3413 0012 3BB3     		cbz	r3, .L269
ARM GAS  C:\Users\User\AppData\Local\Temp\ccbub1mW.s 			page 100


 3414              		.loc 1 1861 0 is_stmt 0 discriminator 1
 3415 0014 022B     		cmp	r3, #2
 3416 0016 25D0     		beq	.L269
1862:Drivers/STM32F4xx_HAL_Driver/Src/stm32f4xx_ll_usb.c ****   {
1863:Drivers/STM32F4xx_HAL_Driver/Src/stm32f4xx_ll_usb.c ****     USBx_HC(hcnum)->HCCHAR |= USB_OTG_HCCHAR_CHDIS;
1864:Drivers/STM32F4xx_HAL_Driver/Src/stm32f4xx_ll_usb.c **** 
1865:Drivers/STM32F4xx_HAL_Driver/Src/stm32f4xx_ll_usb.c ****     if ((USBx->HNPTXSTS & (0xFFU << 16)) == 0U)
1866:Drivers/STM32F4xx_HAL_Driver/Src/stm32f4xx_ll_usb.c ****     {
1867:Drivers/STM32F4xx_HAL_Driver/Src/stm32f4xx_ll_usb.c ****       USBx_HC(hcnum)->HCCHAR &= ~USB_OTG_HCCHAR_CHENA;
1868:Drivers/STM32F4xx_HAL_Driver/Src/stm32f4xx_ll_usb.c ****       USBx_HC(hcnum)->HCCHAR |= USB_OTG_HCCHAR_CHENA;
1869:Drivers/STM32F4xx_HAL_Driver/Src/stm32f4xx_ll_usb.c ****       USBx_HC(hcnum)->HCCHAR &= ~USB_OTG_HCCHAR_EPDIR;
1870:Drivers/STM32F4xx_HAL_Driver/Src/stm32f4xx_ll_usb.c ****       do
1871:Drivers/STM32F4xx_HAL_Driver/Src/stm32f4xx_ll_usb.c ****       {
1872:Drivers/STM32F4xx_HAL_Driver/Src/stm32f4xx_ll_usb.c ****         if (++count > 1000U)
1873:Drivers/STM32F4xx_HAL_Driver/Src/stm32f4xx_ll_usb.c ****         {
1874:Drivers/STM32F4xx_HAL_Driver/Src/stm32f4xx_ll_usb.c ****           break;
1875:Drivers/STM32F4xx_HAL_Driver/Src/stm32f4xx_ll_usb.c ****         }
1876:Drivers/STM32F4xx_HAL_Driver/Src/stm32f4xx_ll_usb.c ****       } while ((USBx_HC(hcnum)->HCCHAR & USB_OTG_HCCHAR_CHENA) == USB_OTG_HCCHAR_CHENA);
1877:Drivers/STM32F4xx_HAL_Driver/Src/stm32f4xx_ll_usb.c ****     }
1878:Drivers/STM32F4xx_HAL_Driver/Src/stm32f4xx_ll_usb.c ****     else
1879:Drivers/STM32F4xx_HAL_Driver/Src/stm32f4xx_ll_usb.c ****     {
1880:Drivers/STM32F4xx_HAL_Driver/Src/stm32f4xx_ll_usb.c ****       USBx_HC(hcnum)->HCCHAR |= USB_OTG_HCCHAR_CHENA;
1881:Drivers/STM32F4xx_HAL_Driver/Src/stm32f4xx_ll_usb.c ****     }
1882:Drivers/STM32F4xx_HAL_Driver/Src/stm32f4xx_ll_usb.c ****   }
1883:Drivers/STM32F4xx_HAL_Driver/Src/stm32f4xx_ll_usb.c ****   else
1884:Drivers/STM32F4xx_HAL_Driver/Src/stm32f4xx_ll_usb.c ****   {
1885:Drivers/STM32F4xx_HAL_Driver/Src/stm32f4xx_ll_usb.c ****     USBx_HC(hcnum)->HCCHAR |= USB_OTG_HCCHAR_CHDIS;
 3417              		.loc 1 1885 0 is_stmt 1
 3418 0018 D1F80035 		ldr	r3, [r1, #1280]
 3419              	.LVL345:
 3420 001c 43F08043 		orr	r3, r3, #1073741824
 3421 0020 C1F80035 		str	r3, [r1, #1280]
1886:Drivers/STM32F4xx_HAL_Driver/Src/stm32f4xx_ll_usb.c **** 
1887:Drivers/STM32F4xx_HAL_Driver/Src/stm32f4xx_ll_usb.c ****     if ((USBx_HOST->HPTXSTS & (0xFFU << 16)) == 0U)
 3422              		.loc 1 1887 0
 3423 0024 D0F81034 		ldr	r3, [r0, #1040]
 3424 0028 13F47F0F 		tst	r3, #16711680
 3425 002c 49D1     		bne	.L274
1888:Drivers/STM32F4xx_HAL_Driver/Src/stm32f4xx_ll_usb.c ****     {
1889:Drivers/STM32F4xx_HAL_Driver/Src/stm32f4xx_ll_usb.c ****       USBx_HC(hcnum)->HCCHAR &= ~USB_OTG_HCCHAR_CHENA;
 3426              		.loc 1 1889 0
 3427 002e D1F80035 		ldr	r3, [r1, #1280]
 3428 0032 23F00043 		bic	r3, r3, #-2147483648
 3429 0036 C1F80035 		str	r3, [r1, #1280]
1890:Drivers/STM32F4xx_HAL_Driver/Src/stm32f4xx_ll_usb.c ****       USBx_HC(hcnum)->HCCHAR |= USB_OTG_HCCHAR_CHENA;
 3430              		.loc 1 1890 0
 3431 003a D1F80035 		ldr	r3, [r1, #1280]
 3432 003e 43F00043 		orr	r3, r3, #-2147483648
 3433 0042 C1F80035 		str	r3, [r1, #1280]
1891:Drivers/STM32F4xx_HAL_Driver/Src/stm32f4xx_ll_usb.c ****       USBx_HC(hcnum)->HCCHAR &= ~USB_OTG_HCCHAR_EPDIR;
 3434              		.loc 1 1891 0
 3435 0046 D1F80035 		ldr	r3, [r1, #1280]
 3436 004a 23F40043 		bic	r3, r3, #32768
 3437 004e C1F80035 		str	r3, [r1, #1280]
1857:Drivers/STM32F4xx_HAL_Driver/Src/stm32f4xx_ll_usb.c ****   uint32_t HcEpType = (USBx_HC(hcnum)->HCCHAR & USB_OTG_HCCHAR_EPTYP) >> 18;
 3438              		.loc 1 1857 0
 3439 0052 0023     		movs	r3, #0
ARM GAS  C:\Users\User\AppData\Local\Temp\ccbub1mW.s 			page 101


 3440              	.LVL346:
 3441              	.L275:
1892:Drivers/STM32F4xx_HAL_Driver/Src/stm32f4xx_ll_usb.c ****       do
1893:Drivers/STM32F4xx_HAL_Driver/Src/stm32f4xx_ll_usb.c ****       {
1894:Drivers/STM32F4xx_HAL_Driver/Src/stm32f4xx_ll_usb.c ****         if (++count > 1000U)
 3442              		.loc 1 1894 0
 3443 0054 0133     		adds	r3, r3, #1
 3444              	.LVL347:
 3445 0056 B3F57A7F 		cmp	r3, #1000
 3446 005a 27D8     		bhi	.L272
1895:Drivers/STM32F4xx_HAL_Driver/Src/stm32f4xx_ll_usb.c ****         {
1896:Drivers/STM32F4xx_HAL_Driver/Src/stm32f4xx_ll_usb.c ****           break;
1897:Drivers/STM32F4xx_HAL_Driver/Src/stm32f4xx_ll_usb.c ****         }
1898:Drivers/STM32F4xx_HAL_Driver/Src/stm32f4xx_ll_usb.c ****       } while ((USBx_HC(hcnum)->HCCHAR & USB_OTG_HCCHAR_CHENA) == USB_OTG_HCCHAR_CHENA);
 3447              		.loc 1 1898 0
 3448 005c 2268     		ldr	r2, [r4]
 3449 005e 002A     		cmp	r2, #0
 3450 0060 F8DB     		blt	.L275
 3451 0062 23E0     		b	.L272
 3452              	.LVL348:
 3453              	.L269:
1863:Drivers/STM32F4xx_HAL_Driver/Src/stm32f4xx_ll_usb.c **** 
 3454              		.loc 1 1863 0
 3455 0064 D1F80035 		ldr	r3, [r1, #1280]
 3456              	.LVL349:
 3457 0068 43F08043 		orr	r3, r3, #1073741824
 3458 006c C1F80035 		str	r3, [r1, #1280]
1865:Drivers/STM32F4xx_HAL_Driver/Src/stm32f4xx_ll_usb.c ****     {
 3459              		.loc 1 1865 0
 3460 0070 C36A     		ldr	r3, [r0, #44]
 3461 0072 13F47F0F 		tst	r3, #16711680
 3462 0076 1DD1     		bne	.L271
1867:Drivers/STM32F4xx_HAL_Driver/Src/stm32f4xx_ll_usb.c ****       USBx_HC(hcnum)->HCCHAR |= USB_OTG_HCCHAR_CHENA;
 3463              		.loc 1 1867 0
 3464 0078 D1F80035 		ldr	r3, [r1, #1280]
 3465 007c 23F00043 		bic	r3, r3, #-2147483648
 3466 0080 C1F80035 		str	r3, [r1, #1280]
1868:Drivers/STM32F4xx_HAL_Driver/Src/stm32f4xx_ll_usb.c ****       USBx_HC(hcnum)->HCCHAR &= ~USB_OTG_HCCHAR_EPDIR;
 3467              		.loc 1 1868 0
 3468 0084 D1F80035 		ldr	r3, [r1, #1280]
 3469 0088 43F00043 		orr	r3, r3, #-2147483648
 3470 008c C1F80035 		str	r3, [r1, #1280]
1869:Drivers/STM32F4xx_HAL_Driver/Src/stm32f4xx_ll_usb.c ****       do
 3471              		.loc 1 1869 0
 3472 0090 D1F80035 		ldr	r3, [r1, #1280]
 3473 0094 23F40043 		bic	r3, r3, #32768
 3474 0098 C1F80035 		str	r3, [r1, #1280]
1857:Drivers/STM32F4xx_HAL_Driver/Src/stm32f4xx_ll_usb.c ****   uint32_t HcEpType = (USBx_HC(hcnum)->HCCHAR & USB_OTG_HCCHAR_EPTYP) >> 18;
 3475              		.loc 1 1857 0
 3476 009c 0023     		movs	r3, #0
 3477              	.LVL350:
 3478              	.L273:
1872:Drivers/STM32F4xx_HAL_Driver/Src/stm32f4xx_ll_usb.c ****         {
 3479              		.loc 1 1872 0
 3480 009e 0133     		adds	r3, r3, #1
 3481              	.LVL351:
 3482 00a0 B3F57A7F 		cmp	r3, #1000
ARM GAS  C:\Users\User\AppData\Local\Temp\ccbub1mW.s 			page 102


 3483 00a4 02D8     		bhi	.L272
1876:Drivers/STM32F4xx_HAL_Driver/Src/stm32f4xx_ll_usb.c ****     }
 3484              		.loc 1 1876 0
 3485 00a6 2268     		ldr	r2, [r4]
 3486 00a8 002A     		cmp	r2, #0
 3487 00aa F8DB     		blt	.L273
 3488              	.LVL352:
 3489              	.L272:
1899:Drivers/STM32F4xx_HAL_Driver/Src/stm32f4xx_ll_usb.c ****     }
1900:Drivers/STM32F4xx_HAL_Driver/Src/stm32f4xx_ll_usb.c ****     else
1901:Drivers/STM32F4xx_HAL_Driver/Src/stm32f4xx_ll_usb.c ****     {
1902:Drivers/STM32F4xx_HAL_Driver/Src/stm32f4xx_ll_usb.c ****       USBx_HC(hcnum)->HCCHAR |= USB_OTG_HCCHAR_CHENA;
1903:Drivers/STM32F4xx_HAL_Driver/Src/stm32f4xx_ll_usb.c ****     }
1904:Drivers/STM32F4xx_HAL_Driver/Src/stm32f4xx_ll_usb.c ****   }
1905:Drivers/STM32F4xx_HAL_Driver/Src/stm32f4xx_ll_usb.c **** 
1906:Drivers/STM32F4xx_HAL_Driver/Src/stm32f4xx_ll_usb.c ****   return HAL_OK;
1907:Drivers/STM32F4xx_HAL_Driver/Src/stm32f4xx_ll_usb.c **** }
 3490              		.loc 1 1907 0
 3491 00ac 0020     		movs	r0, #0
 3492              	.LVL353:
 3493 00ae 5DF8044B 		ldr	r4, [sp], #4
 3494              	.LCFI55:
 3495              		.cfi_remember_state
 3496              		.cfi_restore 4
 3497              		.cfi_def_cfa_offset 0
 3498 00b2 7047     		bx	lr
 3499              	.LVL354:
 3500              	.L271:
 3501              	.LCFI56:
 3502              		.cfi_restore_state
1880:Drivers/STM32F4xx_HAL_Driver/Src/stm32f4xx_ll_usb.c ****     }
 3503              		.loc 1 1880 0
 3504 00b4 D1F80035 		ldr	r3, [r1, #1280]
 3505 00b8 43F00043 		orr	r3, r3, #-2147483648
 3506 00bc C1F80035 		str	r3, [r1, #1280]
 3507 00c0 F4E7     		b	.L272
 3508              	.L274:
1902:Drivers/STM32F4xx_HAL_Driver/Src/stm32f4xx_ll_usb.c ****     }
 3509              		.loc 1 1902 0
 3510 00c2 D1F80035 		ldr	r3, [r1, #1280]
 3511 00c6 43F00043 		orr	r3, r3, #-2147483648
 3512 00ca C1F80035 		str	r3, [r1, #1280]
 3513 00ce EDE7     		b	.L272
 3514              		.cfi_endproc
 3515              	.LFE173:
 3517              		.section	.text.USB_DoPing,"ax",%progbits
 3518              		.align	1
 3519              		.global	USB_DoPing
 3520              		.syntax unified
 3521              		.thumb
 3522              		.thumb_func
 3523              		.fpu fpv4-sp-d16
 3525              	USB_DoPing:
 3526              	.LFB174:
1908:Drivers/STM32F4xx_HAL_Driver/Src/stm32f4xx_ll_usb.c **** 
1909:Drivers/STM32F4xx_HAL_Driver/Src/stm32f4xx_ll_usb.c **** /**
1910:Drivers/STM32F4xx_HAL_Driver/Src/stm32f4xx_ll_usb.c ****   * @brief  Initiate Do Ping protocol
ARM GAS  C:\Users\User\AppData\Local\Temp\ccbub1mW.s 			page 103


1911:Drivers/STM32F4xx_HAL_Driver/Src/stm32f4xx_ll_usb.c ****   * @param  USBx  Selected device
1912:Drivers/STM32F4xx_HAL_Driver/Src/stm32f4xx_ll_usb.c ****   * @param  hc_num  Host Channel number
1913:Drivers/STM32F4xx_HAL_Driver/Src/stm32f4xx_ll_usb.c ****   *         This parameter can be a value from 1 to 15
1914:Drivers/STM32F4xx_HAL_Driver/Src/stm32f4xx_ll_usb.c ****   * @retval HAL state
1915:Drivers/STM32F4xx_HAL_Driver/Src/stm32f4xx_ll_usb.c ****   */
1916:Drivers/STM32F4xx_HAL_Driver/Src/stm32f4xx_ll_usb.c **** HAL_StatusTypeDef USB_DoPing(USB_OTG_GlobalTypeDef *USBx, uint8_t ch_num)
1917:Drivers/STM32F4xx_HAL_Driver/Src/stm32f4xx_ll_usb.c **** {
 3527              		.loc 1 1917 0
 3528              		.cfi_startproc
 3529              		@ args = 0, pretend = 0, frame = 0
 3530              		@ frame_needed = 0, uses_anonymous_args = 0
 3531              		@ link register save eliminated.
 3532              	.LVL355:
1918:Drivers/STM32F4xx_HAL_Driver/Src/stm32f4xx_ll_usb.c ****   uint32_t USBx_BASE = (uint32_t)USBx;
1919:Drivers/STM32F4xx_HAL_Driver/Src/stm32f4xx_ll_usb.c ****   uint32_t chnum = (uint32_t)ch_num;
1920:Drivers/STM32F4xx_HAL_Driver/Src/stm32f4xx_ll_usb.c ****   uint32_t num_packets = 1U;
1921:Drivers/STM32F4xx_HAL_Driver/Src/stm32f4xx_ll_usb.c ****   uint32_t tmpreg;
1922:Drivers/STM32F4xx_HAL_Driver/Src/stm32f4xx_ll_usb.c **** 
1923:Drivers/STM32F4xx_HAL_Driver/Src/stm32f4xx_ll_usb.c ****   USBx_HC(chnum)->HCTSIZ = ((num_packets << 19) & USB_OTG_HCTSIZ_PKTCNT) |
 3533              		.loc 1 1923 0
 3534 0000 00EB4111 		add	r1, r0, r1, lsl #5
 3535              	.LVL356:
 3536 0004 064A     		ldr	r2, .L278
 3537 0006 C1F81025 		str	r2, [r1, #1296]
1924:Drivers/STM32F4xx_HAL_Driver/Src/stm32f4xx_ll_usb.c ****                            USB_OTG_HCTSIZ_DOPING;
1925:Drivers/STM32F4xx_HAL_Driver/Src/stm32f4xx_ll_usb.c **** 
1926:Drivers/STM32F4xx_HAL_Driver/Src/stm32f4xx_ll_usb.c ****   /* Set host channel enable */
1927:Drivers/STM32F4xx_HAL_Driver/Src/stm32f4xx_ll_usb.c ****   tmpreg = USBx_HC(chnum)->HCCHAR;
 3538              		.loc 1 1927 0
 3539 000a D1F80035 		ldr	r3, [r1, #1280]
 3540              	.LVL357:
1928:Drivers/STM32F4xx_HAL_Driver/Src/stm32f4xx_ll_usb.c ****   tmpreg &= ~USB_OTG_HCCHAR_CHDIS;
 3541              		.loc 1 1928 0
 3542 000e 23F08043 		bic	r3, r3, #1073741824
 3543              	.LVL358:
1929:Drivers/STM32F4xx_HAL_Driver/Src/stm32f4xx_ll_usb.c ****   tmpreg |= USB_OTG_HCCHAR_CHENA;
 3544              		.loc 1 1929 0
 3545 0012 43F00043 		orr	r3, r3, #-2147483648
 3546              	.LVL359:
1930:Drivers/STM32F4xx_HAL_Driver/Src/stm32f4xx_ll_usb.c ****   USBx_HC(chnum)->HCCHAR = tmpreg;
 3547              		.loc 1 1930 0
 3548 0016 C1F80035 		str	r3, [r1, #1280]
1931:Drivers/STM32F4xx_HAL_Driver/Src/stm32f4xx_ll_usb.c **** 
1932:Drivers/STM32F4xx_HAL_Driver/Src/stm32f4xx_ll_usb.c ****   return HAL_OK;
1933:Drivers/STM32F4xx_HAL_Driver/Src/stm32f4xx_ll_usb.c **** }
 3549              		.loc 1 1933 0
 3550 001a 0020     		movs	r0, #0
 3551              	.LVL360:
 3552 001c 7047     		bx	lr
 3553              	.L279:
 3554 001e 00BF     		.align	2
 3555              	.L278:
 3556 0020 00000880 		.word	-2146959360
 3557              		.cfi_endproc
 3558              	.LFE174:
 3560              		.section	.text.USB_HC_StartXfer,"ax",%progbits
 3561              		.align	1
ARM GAS  C:\Users\User\AppData\Local\Temp\ccbub1mW.s 			page 104


 3562              		.global	USB_HC_StartXfer
 3563              		.syntax unified
 3564              		.thumb
 3565              		.thumb_func
 3566              		.fpu fpv4-sp-d16
 3568              	USB_HC_StartXfer:
 3569              	.LFB171:
1710:Drivers/STM32F4xx_HAL_Driver/Src/stm32f4xx_ll_usb.c ****   uint32_t USBx_BASE = (uint32_t)USBx;
 3570              		.loc 1 1710 0
 3571              		.cfi_startproc
 3572              		@ args = 0, pretend = 0, frame = 0
 3573              		@ frame_needed = 0, uses_anonymous_args = 0
 3574              	.LVL361:
 3575 0000 70B5     		push	{r4, r5, r6, lr}
 3576              	.LCFI57:
 3577              		.cfi_def_cfa_offset 16
 3578              		.cfi_offset 4, -16
 3579              		.cfi_offset 5, -12
 3580              		.cfi_offset 6, -8
 3581              		.cfi_offset 14, -4
 3582 0002 82B0     		sub	sp, sp, #8
 3583              	.LCFI58:
 3584              		.cfi_def_cfa_offset 24
 3585              	.LVL362:
1712:Drivers/STM32F4xx_HAL_Driver/Src/stm32f4xx_ll_usb.c ****   static __IO uint32_t tmpreg = 0U;
 3586              		.loc 1 1712 0
 3587 0004 4C78     		ldrb	r4, [r1, #1]	@ zero_extendqisi2
 3588              	.LVL363:
1719:Drivers/STM32F4xx_HAL_Driver/Src/stm32f4xx_ll_usb.c ****   {
 3589              		.loc 1 1719 0
 3590 0006 C36B     		ldr	r3, [r0, #60]
 3591 0008 13F4807F 		tst	r3, #256
 3592 000c 07D0     		beq	.L281
1719:Drivers/STM32F4xx_HAL_Driver/Src/stm32f4xx_ll_usb.c ****   {
 3593              		.loc 1 1719 0 is_stmt 0 discriminator 1
 3594 000e 0B79     		ldrb	r3, [r1, #4]	@ zero_extendqisi2
 3595 0010 2BB9     		cbnz	r3, .L281
1721:Drivers/STM32F4xx_HAL_Driver/Src/stm32f4xx_ll_usb.c ****     {
 3596              		.loc 1 1721 0 is_stmt 1
 3597 0012 12B9     		cbnz	r2, .L282
1721:Drivers/STM32F4xx_HAL_Driver/Src/stm32f4xx_ll_usb.c ****     {
 3598              		.loc 1 1721 0 is_stmt 0 discriminator 1
 3599 0014 4B79     		ldrb	r3, [r1, #5]	@ zero_extendqisi2
 3600 0016 012B     		cmp	r3, #1
 3601 0018 11D0     		beq	.L295
 3602              	.L282:
1726:Drivers/STM32F4xx_HAL_Driver/Src/stm32f4xx_ll_usb.c ****     {
 3603              		.loc 1 1726 0 is_stmt 1
 3604 001a 012A     		cmp	r2, #1
 3605 001c 13D0     		beq	.L296
 3606              	.L281:
1738:Drivers/STM32F4xx_HAL_Driver/Src/stm32f4xx_ll_usb.c ****   {
 3607              		.loc 1 1738 0
 3608 001e 0B69     		ldr	r3, [r1, #16]
 3609 0020 E3B1     		cbz	r3, .L293
1740:Drivers/STM32F4xx_HAL_Driver/Src/stm32f4xx_ll_usb.c **** 
 3610              		.loc 1 1740 0
ARM GAS  C:\Users\User\AppData\Local\Temp\ccbub1mW.s 			page 105


 3611 0022 0D89     		ldrh	r5, [r1, #8]
 3612 0024 2B44     		add	r3, r3, r5
 3613 0026 013B     		subs	r3, r3, #1
 3614 0028 B3FBF5F3 		udiv	r3, r3, r5
 3615 002c 9BB2     		uxth	r3, r3
 3616              	.LVL364:
1742:Drivers/STM32F4xx_HAL_Driver/Src/stm32f4xx_ll_usb.c ****     {
 3617              		.loc 1 1742 0
 3618 002e B3F5807F 		cmp	r3, #256
 3619 0032 14D9     		bls	.L284
 3620              	.LVL365:
1745:Drivers/STM32F4xx_HAL_Driver/Src/stm32f4xx_ll_usb.c ****     }
 3621              		.loc 1 1745 0
 3622 0034 2D02     		lsls	r5, r5, #8
 3623 0036 0D61     		str	r5, [r1, #16]
1744:Drivers/STM32F4xx_HAL_Driver/Src/stm32f4xx_ll_usb.c ****       hc->xfer_len = (uint32_t)num_packets * hc->max_packet;
 3624              		.loc 1 1744 0
 3625 0038 4FF48073 		mov	r3, #256
 3626 003c 0FE0     		b	.L284
 3627              	.LVL366:
 3628              	.L295:
1723:Drivers/STM32F4xx_HAL_Driver/Src/stm32f4xx_ll_usb.c ****       return HAL_OK;
 3629              		.loc 1 1723 0
 3630 003e 2146     		mov	r1, r4
 3631              	.LVL367:
 3632 0040 FFF7FEFF 		bl	USB_DoPing
 3633              	.LVL368:
1724:Drivers/STM32F4xx_HAL_Driver/Src/stm32f4xx_ll_usb.c ****     }
 3634              		.loc 1 1724 0
 3635 0044 75E0     		b	.L283
 3636              	.LVL369:
 3637              	.L296:
1728:Drivers/STM32F4xx_HAL_Driver/Src/stm32f4xx_ll_usb.c ****       hc->do_ping = 0U;
 3638              		.loc 1 1728 0
 3639 0046 00EB4413 		add	r3, r0, r4, lsl #5
 3640 004a D3F80C55 		ldr	r5, [r3, #1292]
 3641 004e 25F06005 		bic	r5, r5, #96
 3642 0052 C3F80C55 		str	r5, [r3, #1292]
1729:Drivers/STM32F4xx_HAL_Driver/Src/stm32f4xx_ll_usb.c ****     }
 3643              		.loc 1 1729 0
 3644 0056 0023     		movs	r3, #0
 3645 0058 4B71     		strb	r3, [r1, #5]
 3646 005a E0E7     		b	.L281
 3647              	.L293:
1750:Drivers/STM32F4xx_HAL_Driver/Src/stm32f4xx_ll_usb.c ****   }
 3648              		.loc 1 1750 0
 3649 005c 0123     		movs	r3, #1
 3650              	.L284:
 3651              	.LVL370:
1752:Drivers/STM32F4xx_HAL_Driver/Src/stm32f4xx_ll_usb.c ****   {
 3652              		.loc 1 1752 0
 3653 005e CD78     		ldrb	r5, [r1, #3]	@ zero_extendqisi2
 3654 0060 1DB1     		cbz	r5, .L285
1754:Drivers/STM32F4xx_HAL_Driver/Src/stm32f4xx_ll_usb.c ****   }
 3655              		.loc 1 1754 0
 3656 0062 0D89     		ldrh	r5, [r1, #8]
 3657 0064 05FB03F5 		mul	r5, r5, r3
ARM GAS  C:\Users\User\AppData\Local\Temp\ccbub1mW.s 			page 106


 3658 0068 0D61     		str	r5, [r1, #16]
 3659              	.L285:
1758:Drivers/STM32F4xx_HAL_Driver/Src/stm32f4xx_ll_usb.c ****                             (((uint32_t)num_packets << 19) & USB_OTG_HCTSIZ_PKTCNT) |
 3660              		.loc 1 1758 0
 3661 006a 0D69     		ldr	r5, [r1, #16]
 3662 006c C5F31205 		ubfx	r5, r5, #0, #19
1759:Drivers/STM32F4xx_HAL_Driver/Src/stm32f4xx_ll_usb.c ****                             (((uint32_t)hc->data_pid << 29) & USB_OTG_HCTSIZ_DPID);
 3663              		.loc 1 1759 0
 3664 0070 374E     		ldr	r6, .L297
 3665 0072 06EAC343 		and	r3, r6, r3, lsl #19
 3666              	.LVL371:
1758:Drivers/STM32F4xx_HAL_Driver/Src/stm32f4xx_ll_usb.c ****                             (((uint32_t)num_packets << 19) & USB_OTG_HCTSIZ_PKTCNT) |
 3667              		.loc 1 1758 0
 3668 0076 2B43     		orrs	r3, r3, r5
1760:Drivers/STM32F4xx_HAL_Driver/Src/stm32f4xx_ll_usb.c **** 
 3669              		.loc 1 1760 0
 3670 0078 8D7A     		ldrb	r5, [r1, #10]	@ zero_extendqisi2
 3671 007a 6D07     		lsls	r5, r5, #29
 3672 007c 05F0C045 		and	r5, r5, #1610612736
1758:Drivers/STM32F4xx_HAL_Driver/Src/stm32f4xx_ll_usb.c ****                             (((uint32_t)num_packets << 19) & USB_OTG_HCTSIZ_PKTCNT) |
 3673              		.loc 1 1758 0
 3674 0080 00EB4414 		add	r4, r0, r4, lsl #5
 3675              	.LVL372:
1759:Drivers/STM32F4xx_HAL_Driver/Src/stm32f4xx_ll_usb.c ****                             (((uint32_t)hc->data_pid << 29) & USB_OTG_HCTSIZ_DPID);
 3676              		.loc 1 1759 0
 3677 0084 2B43     		orrs	r3, r3, r5
1758:Drivers/STM32F4xx_HAL_Driver/Src/stm32f4xx_ll_usb.c ****                             (((uint32_t)num_packets << 19) & USB_OTG_HCTSIZ_PKTCNT) |
 3678              		.loc 1 1758 0
 3679 0086 C4F81035 		str	r3, [r4, #1296]
1762:Drivers/STM32F4xx_HAL_Driver/Src/stm32f4xx_ll_usb.c ****   {
 3680              		.loc 1 1762 0
 3681 008a 12B1     		cbz	r2, .L286
1765:Drivers/STM32F4xx_HAL_Driver/Src/stm32f4xx_ll_usb.c ****   }
 3682              		.loc 1 1765 0
 3683 008c CB68     		ldr	r3, [r1, #12]
 3684 008e C4F81435 		str	r3, [r4, #1300]
 3685              	.L286:
1768:Drivers/STM32F4xx_HAL_Driver/Src/stm32f4xx_ll_usb.c ****   USBx_HC(ch_num)->HCCHAR &= ~USB_OTG_HCCHAR_ODDFRM;
 3686              		.loc 1 1768 0
 3687 0092 00F58066 		add	r6, r0, #1024
 3688 0096 B368     		ldr	r3, [r6, #8]
 3689 0098 13F0010F 		tst	r3, #1
 3690              	.LVL373:
1769:Drivers/STM32F4xx_HAL_Driver/Src/stm32f4xx_ll_usb.c ****   USBx_HC(ch_num)->HCCHAR |= (uint32_t)is_oddframe << 29;
 3691              		.loc 1 1769 0
 3692 009c D4F80035 		ldr	r3, [r4, #1280]
 3693 00a0 23F00053 		bic	r3, r3, #536870912
 3694 00a4 C4F80035 		str	r3, [r4, #1280]
1770:Drivers/STM32F4xx_HAL_Driver/Src/stm32f4xx_ll_usb.c **** 
 3695              		.loc 1 1770 0
 3696 00a8 D4F80035 		ldr	r3, [r4, #1280]
 3697 00ac 0CBF     		ite	eq
 3698 00ae 4FF00055 		moveq	r5, #536870912
 3699 00b2 0025     		movne	r5, #0
 3700 00b4 2B43     		orrs	r3, r3, r5
 3701 00b6 C4F80035 		str	r3, [r4, #1280]
1773:Drivers/STM32F4xx_HAL_Driver/Src/stm32f4xx_ll_usb.c ****   tmpreg &= ~USB_OTG_HCCHAR_CHDIS;
ARM GAS  C:\Users\User\AppData\Local\Temp\ccbub1mW.s 			page 107


 3702              		.loc 1 1773 0
 3703 00ba D4F80055 		ldr	r5, [r4, #1280]
 3704 00be 254B     		ldr	r3, .L297+4
 3705 00c0 1D60     		str	r5, [r3]
1774:Drivers/STM32F4xx_HAL_Driver/Src/stm32f4xx_ll_usb.c **** 
 3706              		.loc 1 1774 0
 3707 00c2 1D68     		ldr	r5, [r3]
 3708 00c4 25F08045 		bic	r5, r5, #1073741824
 3709 00c8 1D60     		str	r5, [r3]
1777:Drivers/STM32F4xx_HAL_Driver/Src/stm32f4xx_ll_usb.c ****   {
 3710              		.loc 1 1777 0
 3711 00ca CB78     		ldrb	r3, [r1, #3]	@ zero_extendqisi2
 3712 00cc C3B1     		cbz	r3, .L287
 3713              	.LVL374:
1779:Drivers/STM32F4xx_HAL_Driver/Src/stm32f4xx_ll_usb.c ****   }
 3714              		.loc 1 1779 0
 3715 00ce 214D     		ldr	r5, .L297+4
 3716 00d0 2B68     		ldr	r3, [r5]
 3717 00d2 43F40043 		orr	r3, r3, #32768
 3718 00d6 2B60     		str	r3, [r5]
 3719              	.L288:
1785:Drivers/STM32F4xx_HAL_Driver/Src/stm32f4xx_ll_usb.c ****   USBx_HC(ch_num)->HCCHAR = tmpreg;
 3720              		.loc 1 1785 0
 3721 00d8 1E4B     		ldr	r3, .L297+4
 3722 00da 1D68     		ldr	r5, [r3]
 3723 00dc 45F00045 		orr	r5, r5, #-2147483648
 3724 00e0 1D60     		str	r5, [r3]
1786:Drivers/STM32F4xx_HAL_Driver/Src/stm32f4xx_ll_usb.c **** 
 3725              		.loc 1 1786 0
 3726 00e2 1B68     		ldr	r3, [r3]
 3727 00e4 C4F80035 		str	r3, [r4, #1280]
1788:Drivers/STM32F4xx_HAL_Driver/Src/stm32f4xx_ll_usb.c ****   {
 3728              		.loc 1 1788 0
 3729 00e8 1ABB     		cbnz	r2, .L283
1793:Drivers/STM32F4xx_HAL_Driver/Src/stm32f4xx_ll_usb.c ****   {
 3730              		.loc 1 1793 0
 3731 00ea CB78     		ldrb	r3, [r1, #3]	@ zero_extendqisi2
 3732 00ec 0BBB     		cbnz	r3, .L283
1793:Drivers/STM32F4xx_HAL_Driver/Src/stm32f4xx_ll_usb.c ****   {
 3733              		.loc 1 1793 0 is_stmt 0 discriminator 1
 3734 00ee 0B69     		ldr	r3, [r1, #16]
 3735 00f0 FBB1     		cbz	r3, .L283
1795:Drivers/STM32F4xx_HAL_Driver/Src/stm32f4xx_ll_usb.c ****     {
 3736              		.loc 1 1795 0 is_stmt 1
 3737 00f2 CA79     		ldrb	r2, [r1, #7]	@ zero_extendqisi2
 3738              	.LVL375:
 3739 00f4 032A     		cmp	r2, #3
 3740 00f6 14D8     		bhi	.L289
 3741 00f8 DFE802F0 		tbb	[pc, r2]
 3742              	.L291:
 3743 00fc 08       		.byte	(.L290-.L291)/2
 3744 00fd 1E       		.byte	(.L292-.L291)/2
 3745 00fe 08       		.byte	(.L290-.L291)/2
 3746 00ff 1E       		.byte	(.L292-.L291)/2
 3747              	.LVL376:
 3748              		.p2align 1
 3749              	.L287:
ARM GAS  C:\Users\User\AppData\Local\Temp\ccbub1mW.s 			page 108


1783:Drivers/STM32F4xx_HAL_Driver/Src/stm32f4xx_ll_usb.c ****   }
 3750              		.loc 1 1783 0
 3751 0100 144D     		ldr	r5, .L297+4
 3752 0102 2B68     		ldr	r3, [r5]
 3753 0104 23F40043 		bic	r3, r3, #32768
 3754 0108 2B60     		str	r3, [r5]
 3755 010a E5E7     		b	.L288
 3756              	.LVL377:
 3757              	.L290:
1801:Drivers/STM32F4xx_HAL_Driver/Src/stm32f4xx_ll_usb.c **** 
 3758              		.loc 1 1801 0
 3759 010c 0333     		adds	r3, r3, #3
 3760              	.LVL378:
1804:Drivers/STM32F4xx_HAL_Driver/Src/stm32f4xx_ll_usb.c ****         {
 3761              		.loc 1 1804 0
 3762 010e C26A     		ldr	r2, [r0, #44]
 3763 0110 92B2     		uxth	r2, r2
 3764 0112 C3F38F03 		ubfx	r3, r3, #2, #16
 3765              	.LVL379:
 3766 0116 9A42     		cmp	r2, r3
 3767 0118 03D2     		bcs	.L289
1807:Drivers/STM32F4xx_HAL_Driver/Src/stm32f4xx_ll_usb.c ****         }
 3768              		.loc 1 1807 0
 3769 011a 8369     		ldr	r3, [r0, #24]
 3770 011c 43F02003 		orr	r3, r3, #32
 3771 0120 8361     		str	r3, [r0, #24]
 3772              	.LVL380:
 3773              	.L289:
1828:Drivers/STM32F4xx_HAL_Driver/Src/stm32f4xx_ll_usb.c ****   }
 3774              		.loc 1 1828 0
 3775 0122 CC68     		ldr	r4, [r1, #12]
 3776 0124 4A78     		ldrb	r2, [r1, #1]	@ zero_extendqisi2
 3777 0126 0B8A     		ldrh	r3, [r1, #16]
 3778 0128 0021     		movs	r1, #0
 3779              	.LVL381:
 3780 012a 0091     		str	r1, [sp]
 3781 012c 2146     		mov	r1, r4
 3782 012e FFF7FEFF 		bl	USB_WritePacket
 3783              	.LVL382:
 3784              	.L283:
1832:Drivers/STM32F4xx_HAL_Driver/Src/stm32f4xx_ll_usb.c **** 
 3785              		.loc 1 1832 0
 3786 0132 0020     		movs	r0, #0
 3787 0134 02B0     		add	sp, sp, #8
 3788              	.LCFI59:
 3789              		.cfi_remember_state
 3790              		.cfi_def_cfa_offset 16
 3791              		@ sp needed
 3792 0136 70BD     		pop	{r4, r5, r6, pc}
 3793              	.LVL383:
 3794              	.L292:
 3795              	.LCFI60:
 3796              		.cfi_restore_state
1814:Drivers/STM32F4xx_HAL_Driver/Src/stm32f4xx_ll_usb.c ****         /* check if there is enough space in FIFO space */
 3797              		.loc 1 1814 0
 3798 0138 0333     		adds	r3, r3, #3
 3799              	.LVL384:
ARM GAS  C:\Users\User\AppData\Local\Temp\ccbub1mW.s 			page 109


1816:Drivers/STM32F4xx_HAL_Driver/Src/stm32f4xx_ll_usb.c ****         {
 3800              		.loc 1 1816 0
 3801 013a 3269     		ldr	r2, [r6, #16]
 3802 013c 92B2     		uxth	r2, r2
 3803 013e C3F38F03 		ubfx	r3, r3, #2, #16
 3804              	.LVL385:
 3805 0142 9A42     		cmp	r2, r3
 3806 0144 EDD2     		bcs	.L289
1819:Drivers/STM32F4xx_HAL_Driver/Src/stm32f4xx_ll_usb.c ****         }
 3807              		.loc 1 1819 0
 3808 0146 8369     		ldr	r3, [r0, #24]
 3809 0148 43F08063 		orr	r3, r3, #67108864
 3810 014c 8361     		str	r3, [r0, #24]
 3811              	.LVL386:
 3812 014e E8E7     		b	.L289
 3813              	.L298:
 3814              		.align	2
 3815              	.L297:
 3816 0150 0000F81F 		.word	536346624
 3817 0154 00000000 		.word	.LANCHOR0
 3818              		.cfi_endproc
 3819              	.LFE171:
 3821              		.section	.text.USB_StopHost,"ax",%progbits
 3822              		.align	1
 3823              		.global	USB_StopHost
 3824              		.syntax unified
 3825              		.thumb
 3826              		.thumb_func
 3827              		.fpu fpv4-sp-d16
 3829              	USB_StopHost:
 3830              	.LFB175:
1934:Drivers/STM32F4xx_HAL_Driver/Src/stm32f4xx_ll_usb.c **** 
1935:Drivers/STM32F4xx_HAL_Driver/Src/stm32f4xx_ll_usb.c **** /**
1936:Drivers/STM32F4xx_HAL_Driver/Src/stm32f4xx_ll_usb.c ****   * @brief  Stop Host Core
1937:Drivers/STM32F4xx_HAL_Driver/Src/stm32f4xx_ll_usb.c ****   * @param  USBx  Selected device
1938:Drivers/STM32F4xx_HAL_Driver/Src/stm32f4xx_ll_usb.c ****   * @retval HAL state
1939:Drivers/STM32F4xx_HAL_Driver/Src/stm32f4xx_ll_usb.c ****   */
1940:Drivers/STM32F4xx_HAL_Driver/Src/stm32f4xx_ll_usb.c **** HAL_StatusTypeDef USB_StopHost(USB_OTG_GlobalTypeDef *USBx)
1941:Drivers/STM32F4xx_HAL_Driver/Src/stm32f4xx_ll_usb.c **** {
 3831              		.loc 1 1941 0
 3832              		.cfi_startproc
 3833              		@ args = 0, pretend = 0, frame = 0
 3834              		@ frame_needed = 0, uses_anonymous_args = 0
 3835              	.LVL387:
 3836 0000 70B5     		push	{r4, r5, r6, lr}
 3837              	.LCFI61:
 3838              		.cfi_def_cfa_offset 16
 3839              		.cfi_offset 4, -16
 3840              		.cfi_offset 5, -12
 3841              		.cfi_offset 6, -8
 3842              		.cfi_offset 14, -4
 3843 0002 0546     		mov	r5, r0
1942:Drivers/STM32F4xx_HAL_Driver/Src/stm32f4xx_ll_usb.c ****   uint32_t USBx_BASE = (uint32_t)USBx;
 3844              		.loc 1 1942 0
 3845 0004 0446     		mov	r4, r0
 3846              	.LVL388:
1943:Drivers/STM32F4xx_HAL_Driver/Src/stm32f4xx_ll_usb.c ****   uint32_t count = 0U;
ARM GAS  C:\Users\User\AppData\Local\Temp\ccbub1mW.s 			page 110


1944:Drivers/STM32F4xx_HAL_Driver/Src/stm32f4xx_ll_usb.c ****   uint32_t value;
1945:Drivers/STM32F4xx_HAL_Driver/Src/stm32f4xx_ll_usb.c ****   uint32_t i;
1946:Drivers/STM32F4xx_HAL_Driver/Src/stm32f4xx_ll_usb.c **** 
1947:Drivers/STM32F4xx_HAL_Driver/Src/stm32f4xx_ll_usb.c ****   (void)USB_DisableGlobalInt(USBx);
 3847              		.loc 1 1947 0
 3848 0006 FFF7FEFF 		bl	USB_DisableGlobalInt
 3849              	.LVL389:
1948:Drivers/STM32F4xx_HAL_Driver/Src/stm32f4xx_ll_usb.c **** 
1949:Drivers/STM32F4xx_HAL_Driver/Src/stm32f4xx_ll_usb.c ****   /* Flush FIFO */
1950:Drivers/STM32F4xx_HAL_Driver/Src/stm32f4xx_ll_usb.c ****   (void)USB_FlushTxFifo(USBx, 0x10U);
 3850              		.loc 1 1950 0
 3851 000a 1021     		movs	r1, #16
 3852 000c 2846     		mov	r0, r5
 3853 000e FFF7FEFF 		bl	USB_FlushTxFifo
 3854              	.LVL390:
1951:Drivers/STM32F4xx_HAL_Driver/Src/stm32f4xx_ll_usb.c ****   (void)USB_FlushRxFifo(USBx);
 3855              		.loc 1 1951 0
 3856 0012 2846     		mov	r0, r5
 3857 0014 FFF7FEFF 		bl	USB_FlushRxFifo
 3858              	.LVL391:
1952:Drivers/STM32F4xx_HAL_Driver/Src/stm32f4xx_ll_usb.c **** 
1953:Drivers/STM32F4xx_HAL_Driver/Src/stm32f4xx_ll_usb.c ****   /* Flush out any leftover queued requests. */
1954:Drivers/STM32F4xx_HAL_Driver/Src/stm32f4xx_ll_usb.c ****   for (i = 0U; i <= 15U; i++)
 3859              		.loc 1 1954 0
 3860 0018 0022     		movs	r2, #0
 3861 001a 0AE0     		b	.L300
 3862              	.LVL392:
 3863              	.L301:
1955:Drivers/STM32F4xx_HAL_Driver/Src/stm32f4xx_ll_usb.c ****   {
1956:Drivers/STM32F4xx_HAL_Driver/Src/stm32f4xx_ll_usb.c ****     value = USBx_HC(i)->HCCHAR;
 3864              		.loc 1 1956 0 discriminator 3
 3865 001c 04EB4211 		add	r1, r4, r2, lsl #5
 3866 0020 D1F80035 		ldr	r3, [r1, #1280]
 3867              	.LVL393:
 3868 0024 23F08023 		bic	r3, r3, #-2147450880
 3869              	.LVL394:
1957:Drivers/STM32F4xx_HAL_Driver/Src/stm32f4xx_ll_usb.c ****     value |=  USB_OTG_HCCHAR_CHDIS;
1958:Drivers/STM32F4xx_HAL_Driver/Src/stm32f4xx_ll_usb.c ****     value &= ~USB_OTG_HCCHAR_CHENA;
1959:Drivers/STM32F4xx_HAL_Driver/Src/stm32f4xx_ll_usb.c ****     value &= ~USB_OTG_HCCHAR_EPDIR;
 3870              		.loc 1 1959 0 discriminator 3
 3871 0028 43F08043 		orr	r3, r3, #1073741824
 3872              	.LVL395:
1960:Drivers/STM32F4xx_HAL_Driver/Src/stm32f4xx_ll_usb.c ****     USBx_HC(i)->HCCHAR = value;
 3873              		.loc 1 1960 0 discriminator 3
 3874 002c C1F80035 		str	r3, [r1, #1280]
1954:Drivers/STM32F4xx_HAL_Driver/Src/stm32f4xx_ll_usb.c ****   {
 3875              		.loc 1 1954 0 discriminator 3
 3876 0030 0132     		adds	r2, r2, #1
 3877              	.LVL396:
 3878              	.L300:
1954:Drivers/STM32F4xx_HAL_Driver/Src/stm32f4xx_ll_usb.c ****   {
 3879              		.loc 1 1954 0 is_stmt 0 discriminator 1
 3880 0032 0F2A     		cmp	r2, #15
 3881 0034 F2D9     		bls	.L301
1961:Drivers/STM32F4xx_HAL_Driver/Src/stm32f4xx_ll_usb.c ****   }
1962:Drivers/STM32F4xx_HAL_Driver/Src/stm32f4xx_ll_usb.c **** 
1963:Drivers/STM32F4xx_HAL_Driver/Src/stm32f4xx_ll_usb.c ****   /* Halt all channels to put them into a known state. */
ARM GAS  C:\Users\User\AppData\Local\Temp\ccbub1mW.s 			page 111


1964:Drivers/STM32F4xx_HAL_Driver/Src/stm32f4xx_ll_usb.c ****   for (i = 0U; i <= 15U; i++)
 3882              		.loc 1 1964 0 is_stmt 1
 3883 0036 0020     		movs	r0, #0
1943:Drivers/STM32F4xx_HAL_Driver/Src/stm32f4xx_ll_usb.c ****   uint32_t value;
 3884              		.loc 1 1943 0
 3885 0038 0346     		mov	r3, r0
 3886 003a 00E0     		b	.L302
 3887              	.LVL397:
 3888              	.L303:
 3889              		.loc 1 1964 0 discriminator 2
 3890 003c 0130     		adds	r0, r0, #1
 3891              	.LVL398:
 3892              	.L302:
 3893              		.loc 1 1964 0 is_stmt 0 discriminator 1
 3894 003e 0F28     		cmp	r0, #15
 3895 0040 13D8     		bhi	.L307
1965:Drivers/STM32F4xx_HAL_Driver/Src/stm32f4xx_ll_usb.c ****   {
1966:Drivers/STM32F4xx_HAL_Driver/Src/stm32f4xx_ll_usb.c ****     value = USBx_HC(i)->HCCHAR;
 3896              		.loc 1 1966 0 is_stmt 1
 3897 0042 04EB4016 		add	r6, r4, r0, lsl #5
 3898 0046 06F5A061 		add	r1, r6, #1280
 3899 004a D6F80025 		ldr	r2, [r6, #1280]
 3900              	.LVL399:
 3901 004e 22F40042 		bic	r2, r2, #32768
 3902              	.LVL400:
1967:Drivers/STM32F4xx_HAL_Driver/Src/stm32f4xx_ll_usb.c ****     value |= USB_OTG_HCCHAR_CHDIS;
1968:Drivers/STM32F4xx_HAL_Driver/Src/stm32f4xx_ll_usb.c ****     value |= USB_OTG_HCCHAR_CHENA;
1969:Drivers/STM32F4xx_HAL_Driver/Src/stm32f4xx_ll_usb.c ****     value &= ~USB_OTG_HCCHAR_EPDIR;
 3903              		.loc 1 1969 0
 3904 0052 42F04042 		orr	r2, r2, #-1073741824
 3905              	.LVL401:
1970:Drivers/STM32F4xx_HAL_Driver/Src/stm32f4xx_ll_usb.c ****     USBx_HC(i)->HCCHAR = value;
 3906              		.loc 1 1970 0
 3907 0056 C6F80025 		str	r2, [r6, #1280]
 3908              	.LVL402:
 3909              	.L304:
1971:Drivers/STM32F4xx_HAL_Driver/Src/stm32f4xx_ll_usb.c **** 
1972:Drivers/STM32F4xx_HAL_Driver/Src/stm32f4xx_ll_usb.c ****     do
1973:Drivers/STM32F4xx_HAL_Driver/Src/stm32f4xx_ll_usb.c ****     {
1974:Drivers/STM32F4xx_HAL_Driver/Src/stm32f4xx_ll_usb.c ****       if (++count > 1000U)
 3910              		.loc 1 1974 0
 3911 005a 0133     		adds	r3, r3, #1
 3912              	.LVL403:
 3913 005c B3F57A7F 		cmp	r3, #1000
 3914 0060 ECD8     		bhi	.L303
1975:Drivers/STM32F4xx_HAL_Driver/Src/stm32f4xx_ll_usb.c ****       {
1976:Drivers/STM32F4xx_HAL_Driver/Src/stm32f4xx_ll_usb.c ****         break;
1977:Drivers/STM32F4xx_HAL_Driver/Src/stm32f4xx_ll_usb.c ****       }
1978:Drivers/STM32F4xx_HAL_Driver/Src/stm32f4xx_ll_usb.c ****     } while ((USBx_HC(i)->HCCHAR & USB_OTG_HCCHAR_CHENA) == USB_OTG_HCCHAR_CHENA);
 3915              		.loc 1 1978 0
 3916 0062 0A68     		ldr	r2, [r1]
 3917 0064 002A     		cmp	r2, #0
 3918 0066 F8DB     		blt	.L304
 3919 0068 E8E7     		b	.L303
 3920              	.LVL404:
 3921              	.L307:
1979:Drivers/STM32F4xx_HAL_Driver/Src/stm32f4xx_ll_usb.c ****   }
ARM GAS  C:\Users\User\AppData\Local\Temp\ccbub1mW.s 			page 112


1980:Drivers/STM32F4xx_HAL_Driver/Src/stm32f4xx_ll_usb.c **** 
1981:Drivers/STM32F4xx_HAL_Driver/Src/stm32f4xx_ll_usb.c ****   /* Clear any pending Host interrupts */
1982:Drivers/STM32F4xx_HAL_Driver/Src/stm32f4xx_ll_usb.c ****   USBx_HOST->HAINT = 0xFFFFFFFFU;
 3922              		.loc 1 1982 0
 3923 006a 4FF0FF33 		mov	r3, #-1
 3924              	.LVL405:
 3925 006e C5F81434 		str	r3, [r5, #1044]
1983:Drivers/STM32F4xx_HAL_Driver/Src/stm32f4xx_ll_usb.c ****   USBx->GINTSTS = 0xFFFFFFFFU;
 3926              		.loc 1 1983 0
 3927 0072 6B61     		str	r3, [r5, #20]
1984:Drivers/STM32F4xx_HAL_Driver/Src/stm32f4xx_ll_usb.c **** 
1985:Drivers/STM32F4xx_HAL_Driver/Src/stm32f4xx_ll_usb.c ****   (void)USB_EnableGlobalInt(USBx);
 3928              		.loc 1 1985 0
 3929 0074 2846     		mov	r0, r5
 3930              	.LVL406:
 3931 0076 FFF7FEFF 		bl	USB_EnableGlobalInt
 3932              	.LVL407:
1986:Drivers/STM32F4xx_HAL_Driver/Src/stm32f4xx_ll_usb.c **** 
1987:Drivers/STM32F4xx_HAL_Driver/Src/stm32f4xx_ll_usb.c ****   return HAL_OK;
1988:Drivers/STM32F4xx_HAL_Driver/Src/stm32f4xx_ll_usb.c **** }
 3933              		.loc 1 1988 0
 3934 007a 0020     		movs	r0, #0
 3935 007c 70BD     		pop	{r4, r5, r6, pc}
 3936              		.cfi_endproc
 3937              	.LFE175:
 3939              		.section	.text.USB_ActivateRemoteWakeup,"ax",%progbits
 3940              		.align	1
 3941              		.global	USB_ActivateRemoteWakeup
 3942              		.syntax unified
 3943              		.thumb
 3944              		.thumb_func
 3945              		.fpu fpv4-sp-d16
 3947              	USB_ActivateRemoteWakeup:
 3948              	.LFB176:
1989:Drivers/STM32F4xx_HAL_Driver/Src/stm32f4xx_ll_usb.c **** 
1990:Drivers/STM32F4xx_HAL_Driver/Src/stm32f4xx_ll_usb.c **** /**
1991:Drivers/STM32F4xx_HAL_Driver/Src/stm32f4xx_ll_usb.c ****   * @brief  USB_ActivateRemoteWakeup active remote wakeup signalling
1992:Drivers/STM32F4xx_HAL_Driver/Src/stm32f4xx_ll_usb.c ****   * @param  USBx Selected device
1993:Drivers/STM32F4xx_HAL_Driver/Src/stm32f4xx_ll_usb.c ****   * @retval HAL status
1994:Drivers/STM32F4xx_HAL_Driver/Src/stm32f4xx_ll_usb.c ****   */
1995:Drivers/STM32F4xx_HAL_Driver/Src/stm32f4xx_ll_usb.c **** HAL_StatusTypeDef USB_ActivateRemoteWakeup(USB_OTG_GlobalTypeDef *USBx)
1996:Drivers/STM32F4xx_HAL_Driver/Src/stm32f4xx_ll_usb.c **** {
 3949              		.loc 1 1996 0
 3950              		.cfi_startproc
 3951              		@ args = 0, pretend = 0, frame = 0
 3952              		@ frame_needed = 0, uses_anonymous_args = 0
 3953              		@ link register save eliminated.
 3954              	.LVL408:
1997:Drivers/STM32F4xx_HAL_Driver/Src/stm32f4xx_ll_usb.c ****   uint32_t USBx_BASE = (uint32_t)USBx;
1998:Drivers/STM32F4xx_HAL_Driver/Src/stm32f4xx_ll_usb.c **** 
1999:Drivers/STM32F4xx_HAL_Driver/Src/stm32f4xx_ll_usb.c ****   if ((USBx_DEVICE->DSTS & USB_OTG_DSTS_SUSPSTS) == USB_OTG_DSTS_SUSPSTS)
 3955              		.loc 1 1999 0
 3956 0000 D0F80838 		ldr	r3, [r0, #2056]
 3957 0004 00F50060 		add	r0, r0, #2048
 3958              	.LVL409:
 3959 0008 13F0010F 		tst	r3, #1
 3960 000c 03D0     		beq	.L309
ARM GAS  C:\Users\User\AppData\Local\Temp\ccbub1mW.s 			page 113


2000:Drivers/STM32F4xx_HAL_Driver/Src/stm32f4xx_ll_usb.c ****   {
2001:Drivers/STM32F4xx_HAL_Driver/Src/stm32f4xx_ll_usb.c ****     /* active Remote wakeup signalling */
2002:Drivers/STM32F4xx_HAL_Driver/Src/stm32f4xx_ll_usb.c ****     USBx_DEVICE->DCTL |= USB_OTG_DCTL_RWUSIG;
 3961              		.loc 1 2002 0
 3962 000e 4368     		ldr	r3, [r0, #4]
 3963 0010 43F00103 		orr	r3, r3, #1
 3964 0014 4360     		str	r3, [r0, #4]
 3965              	.L309:
2003:Drivers/STM32F4xx_HAL_Driver/Src/stm32f4xx_ll_usb.c ****   }
2004:Drivers/STM32F4xx_HAL_Driver/Src/stm32f4xx_ll_usb.c **** 
2005:Drivers/STM32F4xx_HAL_Driver/Src/stm32f4xx_ll_usb.c ****   return HAL_OK;
2006:Drivers/STM32F4xx_HAL_Driver/Src/stm32f4xx_ll_usb.c **** }
 3966              		.loc 1 2006 0
 3967 0016 0020     		movs	r0, #0
 3968              	.LVL410:
 3969 0018 7047     		bx	lr
 3970              		.cfi_endproc
 3971              	.LFE176:
 3973              		.section	.text.USB_DeActivateRemoteWakeup,"ax",%progbits
 3974              		.align	1
 3975              		.global	USB_DeActivateRemoteWakeup
 3976              		.syntax unified
 3977              		.thumb
 3978              		.thumb_func
 3979              		.fpu fpv4-sp-d16
 3981              	USB_DeActivateRemoteWakeup:
 3982              	.LFB177:
2007:Drivers/STM32F4xx_HAL_Driver/Src/stm32f4xx_ll_usb.c **** 
2008:Drivers/STM32F4xx_HAL_Driver/Src/stm32f4xx_ll_usb.c **** /**
2009:Drivers/STM32F4xx_HAL_Driver/Src/stm32f4xx_ll_usb.c ****   * @brief  USB_DeActivateRemoteWakeup de-active remote wakeup signalling
2010:Drivers/STM32F4xx_HAL_Driver/Src/stm32f4xx_ll_usb.c ****   * @param  USBx Selected device
2011:Drivers/STM32F4xx_HAL_Driver/Src/stm32f4xx_ll_usb.c ****   * @retval HAL status
2012:Drivers/STM32F4xx_HAL_Driver/Src/stm32f4xx_ll_usb.c ****   */
2013:Drivers/STM32F4xx_HAL_Driver/Src/stm32f4xx_ll_usb.c **** HAL_StatusTypeDef USB_DeActivateRemoteWakeup(USB_OTG_GlobalTypeDef *USBx)
2014:Drivers/STM32F4xx_HAL_Driver/Src/stm32f4xx_ll_usb.c **** {
 3983              		.loc 1 2014 0
 3984              		.cfi_startproc
 3985              		@ args = 0, pretend = 0, frame = 0
 3986              		@ frame_needed = 0, uses_anonymous_args = 0
 3987              		@ link register save eliminated.
 3988              	.LVL411:
2015:Drivers/STM32F4xx_HAL_Driver/Src/stm32f4xx_ll_usb.c ****   uint32_t USBx_BASE = (uint32_t)USBx;
2016:Drivers/STM32F4xx_HAL_Driver/Src/stm32f4xx_ll_usb.c **** 
2017:Drivers/STM32F4xx_HAL_Driver/Src/stm32f4xx_ll_usb.c ****   /* active Remote wakeup signalling */
2018:Drivers/STM32F4xx_HAL_Driver/Src/stm32f4xx_ll_usb.c ****   USBx_DEVICE->DCTL &= ~(USB_OTG_DCTL_RWUSIG);
 3989              		.loc 1 2018 0
 3990 0000 D0F80438 		ldr	r3, [r0, #2052]
 3991 0004 23F00103 		bic	r3, r3, #1
 3992 0008 C0F80438 		str	r3, [r0, #2052]
2019:Drivers/STM32F4xx_HAL_Driver/Src/stm32f4xx_ll_usb.c **** 
2020:Drivers/STM32F4xx_HAL_Driver/Src/stm32f4xx_ll_usb.c ****   return HAL_OK;
2021:Drivers/STM32F4xx_HAL_Driver/Src/stm32f4xx_ll_usb.c **** }
 3993              		.loc 1 2021 0
 3994 000c 0020     		movs	r0, #0
 3995              	.LVL412:
 3996 000e 7047     		bx	lr
 3997              		.cfi_endproc
ARM GAS  C:\Users\User\AppData\Local\Temp\ccbub1mW.s 			page 114


 3998              	.LFE177:
 4000              		.section	.bss.tmpreg.8565,"aw",%nobits
 4001              		.align	2
 4002              		.set	.LANCHOR0,. + 0
 4005              	tmpreg.8565:
 4006 0000 00000000 		.space	4
 4007              		.text
 4008              	.Letext0:
 4009              		.file 2 "d:\\stm32_project\\tool\\7-2018-q2-update\\arm-none-eabi\\include\\machine\\_default_type
 4010              		.file 3 "d:\\stm32_project\\tool\\7-2018-q2-update\\arm-none-eabi\\include\\sys\\_stdint.h"
 4011              		.file 4 "Drivers/CMSIS/Include/cmsis_gcc.h"
 4012              		.file 5 "Drivers/CMSIS/Include/core_cm4.h"
 4013              		.file 6 "Drivers/CMSIS/Device/ST/STM32F4xx/Include/system_stm32f4xx.h"
 4014              		.file 7 "Drivers/CMSIS/Device/ST/STM32F4xx/Include/stm32f407xx.h"
 4015              		.file 8 "Drivers/STM32F4xx_HAL_Driver/Inc/stm32f4xx_hal_def.h"
 4016              		.file 9 "Drivers/STM32F4xx_HAL_Driver/Inc/stm32f4xx_ll_usb.h"
 4017              		.file 10 "Drivers/STM32F4xx_HAL_Driver/Inc/stm32f4xx_hal.h"
ARM GAS  C:\Users\User\AppData\Local\Temp\ccbub1mW.s 			page 115


DEFINED SYMBOLS
                            *ABS*:00000000 stm32f4xx_ll_usb.c
C:\Users\User\AppData\Local\Temp\ccbub1mW.s:18     .text.USB_CoreReset:00000000 $t
C:\Users\User\AppData\Local\Temp\ccbub1mW.s:24     .text.USB_CoreReset:00000000 USB_CoreReset
C:\Users\User\AppData\Local\Temp\ccbub1mW.s:86     .text.USB_CoreReset:00000038 $d
C:\Users\User\AppData\Local\Temp\ccbub1mW.s:91     .text.USB_CoreInit:00000000 $t
C:\Users\User\AppData\Local\Temp\ccbub1mW.s:98     .text.USB_CoreInit:00000000 USB_CoreInit
C:\Users\User\AppData\Local\Temp\ccbub1mW.s:207    .text.USB_SetTurnaroundTime:00000000 $t
C:\Users\User\AppData\Local\Temp\ccbub1mW.s:214    .text.USB_SetTurnaroundTime:00000000 USB_SetTurnaroundTime
C:\Users\User\AppData\Local\Temp\ccbub1mW.s:364    .text.USB_SetTurnaroundTime:000000c4 $d
C:\Users\User\AppData\Local\Temp\ccbub1mW.s:378    .text.USB_EnableGlobalInt:00000000 $t
C:\Users\User\AppData\Local\Temp\ccbub1mW.s:385    .text.USB_EnableGlobalInt:00000000 USB_EnableGlobalInt
C:\Users\User\AppData\Local\Temp\ccbub1mW.s:405    .text.USB_DisableGlobalInt:00000000 $t
C:\Users\User\AppData\Local\Temp\ccbub1mW.s:412    .text.USB_DisableGlobalInt:00000000 USB_DisableGlobalInt
C:\Users\User\AppData\Local\Temp\ccbub1mW.s:432    .text.USB_SetCurrentMode:00000000 $t
C:\Users\User\AppData\Local\Temp\ccbub1mW.s:439    .text.USB_SetCurrentMode:00000000 USB_SetCurrentMode
C:\Users\User\AppData\Local\Temp\ccbub1mW.s:491    .text.USB_FlushTxFifo:00000000 $t
C:\Users\User\AppData\Local\Temp\ccbub1mW.s:498    .text.USB_FlushTxFifo:00000000 USB_FlushTxFifo
C:\Users\User\AppData\Local\Temp\ccbub1mW.s:539    .text.USB_FlushTxFifo:00000024 $d
C:\Users\User\AppData\Local\Temp\ccbub1mW.s:544    .text.USB_FlushRxFifo:00000000 $t
C:\Users\User\AppData\Local\Temp\ccbub1mW.s:551    .text.USB_FlushRxFifo:00000000 USB_FlushRxFifo
C:\Users\User\AppData\Local\Temp\ccbub1mW.s:590    .text.USB_FlushRxFifo:00000020 $d
C:\Users\User\AppData\Local\Temp\ccbub1mW.s:595    .text.USB_SetDevSpeed:00000000 $t
C:\Users\User\AppData\Local\Temp\ccbub1mW.s:602    .text.USB_SetDevSpeed:00000000 USB_SetDevSpeed
C:\Users\User\AppData\Local\Temp\ccbub1mW.s:623    .text.USB_DevInit:00000000 $t
C:\Users\User\AppData\Local\Temp\ccbub1mW.s:630    .text.USB_DevInit:00000000 USB_DevInit
C:\Users\User\AppData\Local\Temp\ccbub1mW.s:915    .text.USB_DevInit:0000018c $d
C:\Users\User\AppData\Local\Temp\ccbub1mW.s:920    .text.USB_GetDevSpeed:00000000 $t
C:\Users\User\AppData\Local\Temp\ccbub1mW.s:927    .text.USB_GetDevSpeed:00000000 USB_GetDevSpeed
C:\Users\User\AppData\Local\Temp\ccbub1mW.s:975    .text.USB_ActivateEndpoint:00000000 $t
C:\Users\User\AppData\Local\Temp\ccbub1mW.s:982    .text.USB_ActivateEndpoint:00000000 USB_ActivateEndpoint
C:\Users\User\AppData\Local\Temp\ccbub1mW.s:1081   .text.USB_ActivateDedicatedEndpoint:00000000 $t
C:\Users\User\AppData\Local\Temp\ccbub1mW.s:1088   .text.USB_ActivateDedicatedEndpoint:00000000 USB_ActivateDedicatedEndpoint
C:\Users\User\AppData\Local\Temp\ccbub1mW.s:1194   .text.USB_DeactivateEndpoint:00000000 $t
C:\Users\User\AppData\Local\Temp\ccbub1mW.s:1201   .text.USB_DeactivateEndpoint:00000000 USB_DeactivateEndpoint
C:\Users\User\AppData\Local\Temp\ccbub1mW.s:1325   .text.USB_DeactivateEndpoint:000000d4 $d
C:\Users\User\AppData\Local\Temp\ccbub1mW.s:1331   .text.USB_DeactivateDedicatedEndpoint:00000000 $t
C:\Users\User\AppData\Local\Temp\ccbub1mW.s:1338   .text.USB_DeactivateDedicatedEndpoint:00000000 USB_DeactivateDedicatedEndpoint
C:\Users\User\AppData\Local\Temp\ccbub1mW.s:1432   .text.USB_EP0StartXfer:00000000 $t
C:\Users\User\AppData\Local\Temp\ccbub1mW.s:1439   .text.USB_EP0StartXfer:00000000 USB_EP0StartXfer
C:\Users\User\AppData\Local\Temp\ccbub1mW.s:1625   .text.USB_WritePacket:00000000 $t
C:\Users\User\AppData\Local\Temp\ccbub1mW.s:1632   .text.USB_WritePacket:00000000 USB_WritePacket
C:\Users\User\AppData\Local\Temp\ccbub1mW.s:1690   .text.USB_EPStartXfer:00000000 $t
C:\Users\User\AppData\Local\Temp\ccbub1mW.s:1697   .text.USB_EPStartXfer:00000000 USB_EPStartXfer
C:\Users\User\AppData\Local\Temp\ccbub1mW.s:1998   .text.USB_EPStartXfer:00000218 $d
C:\Users\User\AppData\Local\Temp\ccbub1mW.s:2003   .text.USB_ReadPacket:00000000 $t
C:\Users\User\AppData\Local\Temp\ccbub1mW.s:2010   .text.USB_ReadPacket:00000000 USB_ReadPacket
C:\Users\User\AppData\Local\Temp\ccbub1mW.s:2062   .text.USB_EPSetStall:00000000 $t
C:\Users\User\AppData\Local\Temp\ccbub1mW.s:2069   .text.USB_EPSetStall:00000000 USB_EPSetStall
C:\Users\User\AppData\Local\Temp\ccbub1mW.s:2133   .text.USB_EPClearStall:00000000 $t
C:\Users\User\AppData\Local\Temp\ccbub1mW.s:2140   .text.USB_EPClearStall:00000000 USB_EPClearStall
C:\Users\User\AppData\Local\Temp\ccbub1mW.s:2204   .text.USB_StopDevice:00000000 $t
C:\Users\User\AppData\Local\Temp\ccbub1mW.s:2211   .text.USB_StopDevice:00000000 USB_StopDevice
C:\Users\User\AppData\Local\Temp\ccbub1mW.s:2283   .text.USB_SetDevAddress:00000000 $t
C:\Users\User\AppData\Local\Temp\ccbub1mW.s:2290   .text.USB_SetDevAddress:00000000 USB_SetDevAddress
C:\Users\User\AppData\Local\Temp\ccbub1mW.s:2317   .text.USB_DevConnect:00000000 $t
C:\Users\User\AppData\Local\Temp\ccbub1mW.s:2324   .text.USB_DevConnect:00000000 USB_DevConnect
ARM GAS  C:\Users\User\AppData\Local\Temp\ccbub1mW.s 			page 116


C:\Users\User\AppData\Local\Temp\ccbub1mW.s:2348   .text.USB_DevDisconnect:00000000 $t
C:\Users\User\AppData\Local\Temp\ccbub1mW.s:2355   .text.USB_DevDisconnect:00000000 USB_DevDisconnect
C:\Users\User\AppData\Local\Temp\ccbub1mW.s:2379   .text.USB_ReadInterrupts:00000000 $t
C:\Users\User\AppData\Local\Temp\ccbub1mW.s:2386   .text.USB_ReadInterrupts:00000000 USB_ReadInterrupts
C:\Users\User\AppData\Local\Temp\ccbub1mW.s:2408   .text.USB_ReadDevAllOutEpInterrupt:00000000 $t
C:\Users\User\AppData\Local\Temp\ccbub1mW.s:2415   .text.USB_ReadDevAllOutEpInterrupt:00000000 USB_ReadDevAllOutEpInterrupt
C:\Users\User\AppData\Local\Temp\ccbub1mW.s:2440   .text.USB_ReadDevAllInEpInterrupt:00000000 $t
C:\Users\User\AppData\Local\Temp\ccbub1mW.s:2447   .text.USB_ReadDevAllInEpInterrupt:00000000 USB_ReadDevAllInEpInterrupt
C:\Users\User\AppData\Local\Temp\ccbub1mW.s:2472   .text.USB_ReadDevOutEPInterrupt:00000000 $t
C:\Users\User\AppData\Local\Temp\ccbub1mW.s:2479   .text.USB_ReadDevOutEPInterrupt:00000000 USB_ReadDevOutEPInterrupt
C:\Users\User\AppData\Local\Temp\ccbub1mW.s:2505   .text.USB_ReadDevInEPInterrupt:00000000 $t
C:\Users\User\AppData\Local\Temp\ccbub1mW.s:2512   .text.USB_ReadDevInEPInterrupt:00000000 USB_ReadDevInEPInterrupt
C:\Users\User\AppData\Local\Temp\ccbub1mW.s:2557   .text.USB_ClearInterrupts:00000000 $t
C:\Users\User\AppData\Local\Temp\ccbub1mW.s:2564   .text.USB_ClearInterrupts:00000000 USB_ClearInterrupts
C:\Users\User\AppData\Local\Temp\ccbub1mW.s:2583   .text.USB_GetMode:00000000 $t
C:\Users\User\AppData\Local\Temp\ccbub1mW.s:2590   .text.USB_GetMode:00000000 USB_GetMode
C:\Users\User\AppData\Local\Temp\ccbub1mW.s:2608   .text.USB_ActivateSetup:00000000 $t
C:\Users\User\AppData\Local\Temp\ccbub1mW.s:2615   .text.USB_ActivateSetup:00000000 USB_ActivateSetup
C:\Users\User\AppData\Local\Temp\ccbub1mW.s:2640   .text.USB_EP0_OutStart:00000000 $t
C:\Users\User\AppData\Local\Temp\ccbub1mW.s:2647   .text.USB_EP0_OutStart:00000000 USB_EP0_OutStart
C:\Users\User\AppData\Local\Temp\ccbub1mW.s:2715   .text.USB_EP0_OutStart:0000005c $d
C:\Users\User\AppData\Local\Temp\ccbub1mW.s:2720   .text.USB_InitFSLSPClkSel:00000000 $t
C:\Users\User\AppData\Local\Temp\ccbub1mW.s:2727   .text.USB_InitFSLSPClkSel:00000000 USB_InitFSLSPClkSel
C:\Users\User\AppData\Local\Temp\ccbub1mW.s:2784   .text.USB_ResetPort:00000000 $t
C:\Users\User\AppData\Local\Temp\ccbub1mW.s:2791   .text.USB_ResetPort:00000000 USB_ResetPort
C:\Users\User\AppData\Local\Temp\ccbub1mW.s:2847   .text.USB_DriveVbus:00000000 $t
C:\Users\User\AppData\Local\Temp\ccbub1mW.s:2854   .text.USB_DriveVbus:00000000 USB_DriveVbus
C:\Users\User\AppData\Local\Temp\ccbub1mW.s:2917   .text.USB_HostInit:00000000 $t
C:\Users\User\AppData\Local\Temp\ccbub1mW.s:2924   .text.USB_HostInit:00000000 USB_HostInit
C:\Users\User\AppData\Local\Temp\ccbub1mW.s:3091   .text.USB_HostInit:000000f0 $d
C:\Users\User\AppData\Local\Temp\ccbub1mW.s:3098   .text.USB_GetHostSpeed:00000000 $t
C:\Users\User\AppData\Local\Temp\ccbub1mW.s:3105   .text.USB_GetHostSpeed:00000000 USB_GetHostSpeed
C:\Users\User\AppData\Local\Temp\ccbub1mW.s:3137   .text.USB_GetCurrentFrame:00000000 $t
C:\Users\User\AppData\Local\Temp\ccbub1mW.s:3144   .text.USB_GetCurrentFrame:00000000 USB_GetCurrentFrame
C:\Users\User\AppData\Local\Temp\ccbub1mW.s:3164   .text.USB_HC_Init:00000000 $t
C:\Users\User\AppData\Local\Temp\ccbub1mW.s:3171   .text.USB_HC_Init:00000000 USB_HC_Init
C:\Users\User\AppData\Local\Temp\ccbub1mW.s:3200   .text.USB_HC_Init:0000001e $d
C:\Users\User\AppData\Local\Temp\ccbub1mW.s:3204   .text.USB_HC_Init:00000022 $t
C:\Users\User\AppData\Local\Temp\ccbub1mW.s:3358   .text.USB_HC_ReadInterrupt:00000000 $t
C:\Users\User\AppData\Local\Temp\ccbub1mW.s:3365   .text.USB_HC_ReadInterrupt:00000000 USB_HC_ReadInterrupt
C:\Users\User\AppData\Local\Temp\ccbub1mW.s:3385   .text.USB_HC_Halt:00000000 $t
C:\Users\User\AppData\Local\Temp\ccbub1mW.s:3392   .text.USB_HC_Halt:00000000 USB_HC_Halt
C:\Users\User\AppData\Local\Temp\ccbub1mW.s:3518   .text.USB_DoPing:00000000 $t
C:\Users\User\AppData\Local\Temp\ccbub1mW.s:3525   .text.USB_DoPing:00000000 USB_DoPing
C:\Users\User\AppData\Local\Temp\ccbub1mW.s:3556   .text.USB_DoPing:00000020 $d
C:\Users\User\AppData\Local\Temp\ccbub1mW.s:3561   .text.USB_HC_StartXfer:00000000 $t
C:\Users\User\AppData\Local\Temp\ccbub1mW.s:3568   .text.USB_HC_StartXfer:00000000 USB_HC_StartXfer
C:\Users\User\AppData\Local\Temp\ccbub1mW.s:3743   .text.USB_HC_StartXfer:000000fc $d
C:\Users\User\AppData\Local\Temp\ccbub1mW.s:3748   .text.USB_HC_StartXfer:00000100 $t
C:\Users\User\AppData\Local\Temp\ccbub1mW.s:3816   .text.USB_HC_StartXfer:00000150 $d
C:\Users\User\AppData\Local\Temp\ccbub1mW.s:3822   .text.USB_StopHost:00000000 $t
C:\Users\User\AppData\Local\Temp\ccbub1mW.s:3829   .text.USB_StopHost:00000000 USB_StopHost
C:\Users\User\AppData\Local\Temp\ccbub1mW.s:3940   .text.USB_ActivateRemoteWakeup:00000000 $t
C:\Users\User\AppData\Local\Temp\ccbub1mW.s:3947   .text.USB_ActivateRemoteWakeup:00000000 USB_ActivateRemoteWakeup
C:\Users\User\AppData\Local\Temp\ccbub1mW.s:3974   .text.USB_DeActivateRemoteWakeup:00000000 $t
C:\Users\User\AppData\Local\Temp\ccbub1mW.s:3981   .text.USB_DeActivateRemoteWakeup:00000000 USB_DeActivateRemoteWakeup
C:\Users\User\AppData\Local\Temp\ccbub1mW.s:4001   .bss.tmpreg.8565:00000000 $d
ARM GAS  C:\Users\User\AppData\Local\Temp\ccbub1mW.s 			page 117


C:\Users\User\AppData\Local\Temp\ccbub1mW.s:4005   .bss.tmpreg.8565:00000000 tmpreg.8565

UNDEFINED SYMBOLS
HAL_Delay
