ARM GAS  C:\Users\User\AppData\Local\Temp\ccqG9tqA.s 			page 1


   1              		.cpu cortex-m4
   2              		.eabi_attribute 27, 1
   3              		.eabi_attribute 28, 1
   4              		.eabi_attribute 20, 1
   5              		.eabi_attribute 21, 1
   6              		.eabi_attribute 23, 3
   7              		.eabi_attribute 24, 1
   8              		.eabi_attribute 25, 1
   9              		.eabi_attribute 26, 1
  10              		.eabi_attribute 30, 1
  11              		.eabi_attribute 34, 1
  12              		.eabi_attribute 18, 4
  13              		.file	"stm32f4xx_hal_i2s_ex.c"
  14              		.text
  15              	.Ltext0:
  16              		.cfi_sections	.debug_frame
  17              		.section	.text.I2SEx_FullDuplexWaitFlagStateUntilTimeout,"ax",%progbits
  18              		.align	1
  19              		.syntax unified
  20              		.thumb
  21              		.thumb_func
  22              		.fpu fpv4-sp-d16
  24              	I2SEx_FullDuplexWaitFlagStateUntilTimeout:
  25              	.LFB143:
  26              		.file 1 "Drivers/STM32F4xx_HAL_Driver/Src/stm32f4xx_hal_i2s_ex.c"
   1:Drivers/STM32F4xx_HAL_Driver/Src/stm32f4xx_hal_i2s_ex.c **** /**
   2:Drivers/STM32F4xx_HAL_Driver/Src/stm32f4xx_hal_i2s_ex.c ****   ******************************************************************************
   3:Drivers/STM32F4xx_HAL_Driver/Src/stm32f4xx_hal_i2s_ex.c ****   * @file    stm32f4xx_hal_i2s_ex.c
   4:Drivers/STM32F4xx_HAL_Driver/Src/stm32f4xx_hal_i2s_ex.c ****   * @author  MCD Application Team
   5:Drivers/STM32F4xx_HAL_Driver/Src/stm32f4xx_hal_i2s_ex.c ****   * @brief   I2S HAL module driver.
   6:Drivers/STM32F4xx_HAL_Driver/Src/stm32f4xx_hal_i2s_ex.c ****   *          This file provides firmware functions to manage the following
   7:Drivers/STM32F4xx_HAL_Driver/Src/stm32f4xx_hal_i2s_ex.c ****   *          functionalities of I2S extension peripheral:
   8:Drivers/STM32F4xx_HAL_Driver/Src/stm32f4xx_hal_i2s_ex.c ****   *           + Extension features Functions
   9:Drivers/STM32F4xx_HAL_Driver/Src/stm32f4xx_hal_i2s_ex.c ****   *
  10:Drivers/STM32F4xx_HAL_Driver/Src/stm32f4xx_hal_i2s_ex.c ****   @verbatim
  11:Drivers/STM32F4xx_HAL_Driver/Src/stm32f4xx_hal_i2s_ex.c ****   ==============================================================================
  12:Drivers/STM32F4xx_HAL_Driver/Src/stm32f4xx_hal_i2s_ex.c ****                     ##### I2S Extension features #####
  13:Drivers/STM32F4xx_HAL_Driver/Src/stm32f4xx_hal_i2s_ex.c ****   ==============================================================================
  14:Drivers/STM32F4xx_HAL_Driver/Src/stm32f4xx_hal_i2s_ex.c ****   [..]
  15:Drivers/STM32F4xx_HAL_Driver/Src/stm32f4xx_hal_i2s_ex.c ****      (#) In I2S full duplex mode, each SPI peripheral is able to manage sending and receiving
  16:Drivers/STM32F4xx_HAL_Driver/Src/stm32f4xx_hal_i2s_ex.c ****          data simultaneously using two data lines. Each SPI peripheral has an extended block
  17:Drivers/STM32F4xx_HAL_Driver/Src/stm32f4xx_hal_i2s_ex.c ****          called I2Sxext (i.e I2S2ext for SPI2 and I2S3ext for SPI3).
  18:Drivers/STM32F4xx_HAL_Driver/Src/stm32f4xx_hal_i2s_ex.c ****      (#) The extension block is not a full SPI IP, it is used only as I2S slave to
  19:Drivers/STM32F4xx_HAL_Driver/Src/stm32f4xx_hal_i2s_ex.c ****          implement full duplex mode. The extension block uses the same clock sources
  20:Drivers/STM32F4xx_HAL_Driver/Src/stm32f4xx_hal_i2s_ex.c ****          as its master.
  21:Drivers/STM32F4xx_HAL_Driver/Src/stm32f4xx_hal_i2s_ex.c **** 
  22:Drivers/STM32F4xx_HAL_Driver/Src/stm32f4xx_hal_i2s_ex.c ****      (#) Both I2Sx and I2Sx_ext can be configured as transmitters or receivers.
  23:Drivers/STM32F4xx_HAL_Driver/Src/stm32f4xx_hal_i2s_ex.c **** 
  24:Drivers/STM32F4xx_HAL_Driver/Src/stm32f4xx_hal_i2s_ex.c ****      [..]
  25:Drivers/STM32F4xx_HAL_Driver/Src/stm32f4xx_hal_i2s_ex.c ****        (@) Only I2Sx can deliver SCK and WS to I2Sx_ext in full duplex mode, where
  26:Drivers/STM32F4xx_HAL_Driver/Src/stm32f4xx_hal_i2s_ex.c ****          I2Sx can be I2S2 or I2S3.
  27:Drivers/STM32F4xx_HAL_Driver/Src/stm32f4xx_hal_i2s_ex.c **** 
  28:Drivers/STM32F4xx_HAL_Driver/Src/stm32f4xx_hal_i2s_ex.c ****                   ##### How to use this driver #####
  29:Drivers/STM32F4xx_HAL_Driver/Src/stm32f4xx_hal_i2s_ex.c ****  ===============================================================================
  30:Drivers/STM32F4xx_HAL_Driver/Src/stm32f4xx_hal_i2s_ex.c ****  [..]
  31:Drivers/STM32F4xx_HAL_Driver/Src/stm32f4xx_hal_i2s_ex.c ****    Three operation modes are available within this driver :
  32:Drivers/STM32F4xx_HAL_Driver/Src/stm32f4xx_hal_i2s_ex.c **** 
ARM GAS  C:\Users\User\AppData\Local\Temp\ccqG9tqA.s 			page 2


  33:Drivers/STM32F4xx_HAL_Driver/Src/stm32f4xx_hal_i2s_ex.c ****    *** Polling mode IO operation ***
  34:Drivers/STM32F4xx_HAL_Driver/Src/stm32f4xx_hal_i2s_ex.c ****    =================================
  35:Drivers/STM32F4xx_HAL_Driver/Src/stm32f4xx_hal_i2s_ex.c ****    [..]
  36:Drivers/STM32F4xx_HAL_Driver/Src/stm32f4xx_hal_i2s_ex.c ****      (+) Send and receive in the same time an amount of data in blocking mode using HAL_I2SEx_Trans
  37:Drivers/STM32F4xx_HAL_Driver/Src/stm32f4xx_hal_i2s_ex.c **** 
  38:Drivers/STM32F4xx_HAL_Driver/Src/stm32f4xx_hal_i2s_ex.c ****    *** Interrupt mode IO operation ***
  39:Drivers/STM32F4xx_HAL_Driver/Src/stm32f4xx_hal_i2s_ex.c ****    ===================================
  40:Drivers/STM32F4xx_HAL_Driver/Src/stm32f4xx_hal_i2s_ex.c ****    [..]
  41:Drivers/STM32F4xx_HAL_Driver/Src/stm32f4xx_hal_i2s_ex.c ****      (+) Send and receive in the same time an amount of data in non blocking mode using HAL_I2SEx_T
  42:Drivers/STM32F4xx_HAL_Driver/Src/stm32f4xx_hal_i2s_ex.c ****      (+) At transmission/reception end of transfer HAL_I2SEx_TxRxCpltCallback is executed and user 
  43:Drivers/STM32F4xx_HAL_Driver/Src/stm32f4xx_hal_i2s_ex.c ****          add his own code by customization of function pointer HAL_I2SEx_TxRxCpltCallback
  44:Drivers/STM32F4xx_HAL_Driver/Src/stm32f4xx_hal_i2s_ex.c ****      (+) In case of transfer Error, HAL_I2S_ErrorCallback() function is executed and user can
  45:Drivers/STM32F4xx_HAL_Driver/Src/stm32f4xx_hal_i2s_ex.c ****          add his own code by customization of function pointer HAL_I2S_ErrorCallback
  46:Drivers/STM32F4xx_HAL_Driver/Src/stm32f4xx_hal_i2s_ex.c **** 
  47:Drivers/STM32F4xx_HAL_Driver/Src/stm32f4xx_hal_i2s_ex.c ****    *** DMA mode IO operation ***
  48:Drivers/STM32F4xx_HAL_Driver/Src/stm32f4xx_hal_i2s_ex.c ****    ==============================
  49:Drivers/STM32F4xx_HAL_Driver/Src/stm32f4xx_hal_i2s_ex.c ****    [..]
  50:Drivers/STM32F4xx_HAL_Driver/Src/stm32f4xx_hal_i2s_ex.c ****      (+) Send and receive an amount of data in non blocking mode (DMA) using HAL_I2SEx_TransmitRece
  51:Drivers/STM32F4xx_HAL_Driver/Src/stm32f4xx_hal_i2s_ex.c ****      (+) At transmission/reception end of transfer HAL_I2SEx_TxRxCpltCallback is executed and user 
  52:Drivers/STM32F4xx_HAL_Driver/Src/stm32f4xx_hal_i2s_ex.c ****          add his own code by customization of function pointer HAL_I2S_TxRxCpltCallback
  53:Drivers/STM32F4xx_HAL_Driver/Src/stm32f4xx_hal_i2s_ex.c ****      (+) In case of transfer Error, HAL_I2S_ErrorCallback() function is executed and user can
  54:Drivers/STM32F4xx_HAL_Driver/Src/stm32f4xx_hal_i2s_ex.c ****          add his own code by customization of function pointer HAL_I2S_ErrorCallback
  55:Drivers/STM32F4xx_HAL_Driver/Src/stm32f4xx_hal_i2s_ex.c ****      (+) __HAL_I2SEXT_FLUSH_RX_DR: In Full-Duplex Slave mode, if HAL_I2S_DMAStop is used to stop th
  56:Drivers/STM32F4xx_HAL_Driver/Src/stm32f4xx_hal_i2s_ex.c ****          communication, an error HAL_I2S_ERROR_BUSY_LINE_RX is raised as the master continue to tra
  57:Drivers/STM32F4xx_HAL_Driver/Src/stm32f4xx_hal_i2s_ex.c ****          In this case __HAL_I2SEXT_FLUSH_RX_DR macro must be used to flush the remaining data
  58:Drivers/STM32F4xx_HAL_Driver/Src/stm32f4xx_hal_i2s_ex.c ****          inside I2Sx and I2Sx_ext DR registers and avoid using DeInit/Init process for the next tra
  59:Drivers/STM32F4xx_HAL_Driver/Src/stm32f4xx_hal_i2s_ex.c ****   @endverbatim
  60:Drivers/STM32F4xx_HAL_Driver/Src/stm32f4xx_hal_i2s_ex.c **** 
  61:Drivers/STM32F4xx_HAL_Driver/Src/stm32f4xx_hal_i2s_ex.c ****  Additional Figure: The Extended block uses the same clock sources as its master.
  62:Drivers/STM32F4xx_HAL_Driver/Src/stm32f4xx_hal_i2s_ex.c **** 
  63:Drivers/STM32F4xx_HAL_Driver/Src/stm32f4xx_hal_i2s_ex.c ****                 +-----------------------+
  64:Drivers/STM32F4xx_HAL_Driver/Src/stm32f4xx_hal_i2s_ex.c ****     I2Sx_SCK    |                       |
  65:Drivers/STM32F4xx_HAL_Driver/Src/stm32f4xx_hal_i2s_ex.c ****  ----------+-->|          I2Sx         |------------------->I2Sx_SD(in/out)
  66:Drivers/STM32F4xx_HAL_Driver/Src/stm32f4xx_hal_i2s_ex.c ****          +--|-->|                       |
  67:Drivers/STM32F4xx_HAL_Driver/Src/stm32f4xx_hal_i2s_ex.c ****         |   |   +-----------------------+
  68:Drivers/STM32F4xx_HAL_Driver/Src/stm32f4xx_hal_i2s_ex.c ****         |   |
  69:Drivers/STM32F4xx_HAL_Driver/Src/stm32f4xx_hal_i2s_ex.c ****  I2S_WS |   |
  70:Drivers/STM32F4xx_HAL_Driver/Src/stm32f4xx_hal_i2s_ex.c ****  ------>|   |
  71:Drivers/STM32F4xx_HAL_Driver/Src/stm32f4xx_hal_i2s_ex.c ****         |   |   +-----------------------+
  72:Drivers/STM32F4xx_HAL_Driver/Src/stm32f4xx_hal_i2s_ex.c ****         |   +-->|                       |
  73:Drivers/STM32F4xx_HAL_Driver/Src/stm32f4xx_hal_i2s_ex.c ****         |       |       I2Sx_ext        |------------------->I2Sx_extSD(in/out)
  74:Drivers/STM32F4xx_HAL_Driver/Src/stm32f4xx_hal_i2s_ex.c ****          +----->|                       |
  75:Drivers/STM32F4xx_HAL_Driver/Src/stm32f4xx_hal_i2s_ex.c ****                 +-----------------------+
  76:Drivers/STM32F4xx_HAL_Driver/Src/stm32f4xx_hal_i2s_ex.c ****   ******************************************************************************
  77:Drivers/STM32F4xx_HAL_Driver/Src/stm32f4xx_hal_i2s_ex.c ****   * @attention
  78:Drivers/STM32F4xx_HAL_Driver/Src/stm32f4xx_hal_i2s_ex.c ****   *
  79:Drivers/STM32F4xx_HAL_Driver/Src/stm32f4xx_hal_i2s_ex.c ****   * <h2><center>&copy; Copyright (c) 2016 STMicroelectronics.
  80:Drivers/STM32F4xx_HAL_Driver/Src/stm32f4xx_hal_i2s_ex.c ****   * All rights reserved.</center></h2>
  81:Drivers/STM32F4xx_HAL_Driver/Src/stm32f4xx_hal_i2s_ex.c ****   *
  82:Drivers/STM32F4xx_HAL_Driver/Src/stm32f4xx_hal_i2s_ex.c ****   * This software component is licensed by ST under BSD 3-Clause license,
  83:Drivers/STM32F4xx_HAL_Driver/Src/stm32f4xx_hal_i2s_ex.c ****   * the "License"; You may not use this file except in compliance with the
  84:Drivers/STM32F4xx_HAL_Driver/Src/stm32f4xx_hal_i2s_ex.c ****   * License. You may obtain a copy of the License at:
  85:Drivers/STM32F4xx_HAL_Driver/Src/stm32f4xx_hal_i2s_ex.c ****   *                        opensource.org/licenses/BSD-3-Clause
  86:Drivers/STM32F4xx_HAL_Driver/Src/stm32f4xx_hal_i2s_ex.c ****   *
  87:Drivers/STM32F4xx_HAL_Driver/Src/stm32f4xx_hal_i2s_ex.c ****   ******************************************************************************
  88:Drivers/STM32F4xx_HAL_Driver/Src/stm32f4xx_hal_i2s_ex.c ****   */
  89:Drivers/STM32F4xx_HAL_Driver/Src/stm32f4xx_hal_i2s_ex.c **** 
ARM GAS  C:\Users\User\AppData\Local\Temp\ccqG9tqA.s 			page 3


  90:Drivers/STM32F4xx_HAL_Driver/Src/stm32f4xx_hal_i2s_ex.c **** /* Includes ------------------------------------------------------------------*/
  91:Drivers/STM32F4xx_HAL_Driver/Src/stm32f4xx_hal_i2s_ex.c **** #include "stm32f4xx_hal.h"
  92:Drivers/STM32F4xx_HAL_Driver/Src/stm32f4xx_hal_i2s_ex.c **** 
  93:Drivers/STM32F4xx_HAL_Driver/Src/stm32f4xx_hal_i2s_ex.c **** /** @addtogroup STM32F4xx_HAL_Driver
  94:Drivers/STM32F4xx_HAL_Driver/Src/stm32f4xx_hal_i2s_ex.c ****   * @{
  95:Drivers/STM32F4xx_HAL_Driver/Src/stm32f4xx_hal_i2s_ex.c ****   */
  96:Drivers/STM32F4xx_HAL_Driver/Src/stm32f4xx_hal_i2s_ex.c **** 
  97:Drivers/STM32F4xx_HAL_Driver/Src/stm32f4xx_hal_i2s_ex.c **** #ifdef HAL_I2S_MODULE_ENABLED
  98:Drivers/STM32F4xx_HAL_Driver/Src/stm32f4xx_hal_i2s_ex.c **** 
  99:Drivers/STM32F4xx_HAL_Driver/Src/stm32f4xx_hal_i2s_ex.c **** /** @defgroup I2SEx I2SEx
 100:Drivers/STM32F4xx_HAL_Driver/Src/stm32f4xx_hal_i2s_ex.c ****   * @brief I2S Extended HAL module driver
 101:Drivers/STM32F4xx_HAL_Driver/Src/stm32f4xx_hal_i2s_ex.c ****   * @{
 102:Drivers/STM32F4xx_HAL_Driver/Src/stm32f4xx_hal_i2s_ex.c ****   */
 103:Drivers/STM32F4xx_HAL_Driver/Src/stm32f4xx_hal_i2s_ex.c **** 
 104:Drivers/STM32F4xx_HAL_Driver/Src/stm32f4xx_hal_i2s_ex.c **** #if defined (SPI_I2S_FULLDUPLEX_SUPPORT)
 105:Drivers/STM32F4xx_HAL_Driver/Src/stm32f4xx_hal_i2s_ex.c **** 
 106:Drivers/STM32F4xx_HAL_Driver/Src/stm32f4xx_hal_i2s_ex.c **** /* Private typedef -----------------------------------------------------------*/
 107:Drivers/STM32F4xx_HAL_Driver/Src/stm32f4xx_hal_i2s_ex.c **** /** @defgroup I2SEx_Private_Typedef I2S Extended Private Typedef
 108:Drivers/STM32F4xx_HAL_Driver/Src/stm32f4xx_hal_i2s_ex.c ****   * @{
 109:Drivers/STM32F4xx_HAL_Driver/Src/stm32f4xx_hal_i2s_ex.c ****   */
 110:Drivers/STM32F4xx_HAL_Driver/Src/stm32f4xx_hal_i2s_ex.c **** typedef enum
 111:Drivers/STM32F4xx_HAL_Driver/Src/stm32f4xx_hal_i2s_ex.c **** {
 112:Drivers/STM32F4xx_HAL_Driver/Src/stm32f4xx_hal_i2s_ex.c ****   I2S_USE_I2S      = 0x00U,   /*!< I2Sx should be used      */
 113:Drivers/STM32F4xx_HAL_Driver/Src/stm32f4xx_hal_i2s_ex.c ****   I2S_USE_I2SEXT   = 0x01U,   /*!< I2Sx_ext should be used  */
 114:Drivers/STM32F4xx_HAL_Driver/Src/stm32f4xx_hal_i2s_ex.c **** } I2S_UseTypeDef;
 115:Drivers/STM32F4xx_HAL_Driver/Src/stm32f4xx_hal_i2s_ex.c **** /**
 116:Drivers/STM32F4xx_HAL_Driver/Src/stm32f4xx_hal_i2s_ex.c ****   * @}
 117:Drivers/STM32F4xx_HAL_Driver/Src/stm32f4xx_hal_i2s_ex.c ****   */
 118:Drivers/STM32F4xx_HAL_Driver/Src/stm32f4xx_hal_i2s_ex.c **** /* Private define ------------------------------------------------------------*/
 119:Drivers/STM32F4xx_HAL_Driver/Src/stm32f4xx_hal_i2s_ex.c **** /* Private macro -------------------------------------------------------------*/
 120:Drivers/STM32F4xx_HAL_Driver/Src/stm32f4xx_hal_i2s_ex.c **** /* Private variables ---------------------------------------------------------*/
 121:Drivers/STM32F4xx_HAL_Driver/Src/stm32f4xx_hal_i2s_ex.c **** /* Private function prototypes -----------------------------------------------*/
 122:Drivers/STM32F4xx_HAL_Driver/Src/stm32f4xx_hal_i2s_ex.c **** /** @defgroup I2SEx_Private_Functions I2S Extended Private Functions
 123:Drivers/STM32F4xx_HAL_Driver/Src/stm32f4xx_hal_i2s_ex.c ****   * @{
 124:Drivers/STM32F4xx_HAL_Driver/Src/stm32f4xx_hal_i2s_ex.c ****   */
 125:Drivers/STM32F4xx_HAL_Driver/Src/stm32f4xx_hal_i2s_ex.c **** static void I2SEx_TxRxDMAHalfCplt(DMA_HandleTypeDef *hdma);
 126:Drivers/STM32F4xx_HAL_Driver/Src/stm32f4xx_hal_i2s_ex.c **** static void I2SEx_TxRxDMACplt(DMA_HandleTypeDef *hdma);
 127:Drivers/STM32F4xx_HAL_Driver/Src/stm32f4xx_hal_i2s_ex.c **** static void I2SEx_TxRxDMAError(DMA_HandleTypeDef *hdma);
 128:Drivers/STM32F4xx_HAL_Driver/Src/stm32f4xx_hal_i2s_ex.c **** static void I2SEx_RxISR_I2S(I2S_HandleTypeDef *hi2s);
 129:Drivers/STM32F4xx_HAL_Driver/Src/stm32f4xx_hal_i2s_ex.c **** static void I2SEx_RxISR_I2SExt(I2S_HandleTypeDef *hi2s);
 130:Drivers/STM32F4xx_HAL_Driver/Src/stm32f4xx_hal_i2s_ex.c **** static void I2SEx_TxISR_I2S(I2S_HandleTypeDef *hi2s);
 131:Drivers/STM32F4xx_HAL_Driver/Src/stm32f4xx_hal_i2s_ex.c **** static void I2SEx_TxISR_I2SExt(I2S_HandleTypeDef *hi2s);
 132:Drivers/STM32F4xx_HAL_Driver/Src/stm32f4xx_hal_i2s_ex.c **** static HAL_StatusTypeDef I2SEx_FullDuplexWaitFlagStateUntilTimeout(I2S_HandleTypeDef *hi2s, uint32_
 133:Drivers/STM32F4xx_HAL_Driver/Src/stm32f4xx_hal_i2s_ex.c ****                                                                    uint32_t State, uint32_t Timeout
 134:Drivers/STM32F4xx_HAL_Driver/Src/stm32f4xx_hal_i2s_ex.c **** /**
 135:Drivers/STM32F4xx_HAL_Driver/Src/stm32f4xx_hal_i2s_ex.c ****   * @}
 136:Drivers/STM32F4xx_HAL_Driver/Src/stm32f4xx_hal_i2s_ex.c ****   */
 137:Drivers/STM32F4xx_HAL_Driver/Src/stm32f4xx_hal_i2s_ex.c **** 
 138:Drivers/STM32F4xx_HAL_Driver/Src/stm32f4xx_hal_i2s_ex.c **** /**
 139:Drivers/STM32F4xx_HAL_Driver/Src/stm32f4xx_hal_i2s_ex.c ****   * @}
 140:Drivers/STM32F4xx_HAL_Driver/Src/stm32f4xx_hal_i2s_ex.c ****   */
 141:Drivers/STM32F4xx_HAL_Driver/Src/stm32f4xx_hal_i2s_ex.c **** 
 142:Drivers/STM32F4xx_HAL_Driver/Src/stm32f4xx_hal_i2s_ex.c **** /* Private functions ---------------------------------------------------------*/
 143:Drivers/STM32F4xx_HAL_Driver/Src/stm32f4xx_hal_i2s_ex.c **** /* Exported functions --------------------------------------------------------*/
 144:Drivers/STM32F4xx_HAL_Driver/Src/stm32f4xx_hal_i2s_ex.c **** 
 145:Drivers/STM32F4xx_HAL_Driver/Src/stm32f4xx_hal_i2s_ex.c **** /** @addtogroup I2SEx I2SEx
 146:Drivers/STM32F4xx_HAL_Driver/Src/stm32f4xx_hal_i2s_ex.c ****   * @{
ARM GAS  C:\Users\User\AppData\Local\Temp\ccqG9tqA.s 			page 4


 147:Drivers/STM32F4xx_HAL_Driver/Src/stm32f4xx_hal_i2s_ex.c ****   */
 148:Drivers/STM32F4xx_HAL_Driver/Src/stm32f4xx_hal_i2s_ex.c **** 
 149:Drivers/STM32F4xx_HAL_Driver/Src/stm32f4xx_hal_i2s_ex.c **** /** @addtogroup I2SEx_Exported_Functions I2S Extended Exported Functions
 150:Drivers/STM32F4xx_HAL_Driver/Src/stm32f4xx_hal_i2s_ex.c ****   * @{
 151:Drivers/STM32F4xx_HAL_Driver/Src/stm32f4xx_hal_i2s_ex.c ****   */
 152:Drivers/STM32F4xx_HAL_Driver/Src/stm32f4xx_hal_i2s_ex.c **** 
 153:Drivers/STM32F4xx_HAL_Driver/Src/stm32f4xx_hal_i2s_ex.c **** /** @defgroup I2SEx_Exported_Functions_Group1 I2S Extended IO operation functions
 154:Drivers/STM32F4xx_HAL_Driver/Src/stm32f4xx_hal_i2s_ex.c ****   *  @brief   I2SEx IO operation functions
 155:Drivers/STM32F4xx_HAL_Driver/Src/stm32f4xx_hal_i2s_ex.c ****   *
 156:Drivers/STM32F4xx_HAL_Driver/Src/stm32f4xx_hal_i2s_ex.c **** @verbatim
 157:Drivers/STM32F4xx_HAL_Driver/Src/stm32f4xx_hal_i2s_ex.c ****  ===============================================================================
 158:Drivers/STM32F4xx_HAL_Driver/Src/stm32f4xx_hal_i2s_ex.c ****                        ##### IO operation functions#####
 159:Drivers/STM32F4xx_HAL_Driver/Src/stm32f4xx_hal_i2s_ex.c ****  ===============================================================================
 160:Drivers/STM32F4xx_HAL_Driver/Src/stm32f4xx_hal_i2s_ex.c ****     [..]
 161:Drivers/STM32F4xx_HAL_Driver/Src/stm32f4xx_hal_i2s_ex.c ****     This subsection provides a set of functions allowing to manage the I2S data
 162:Drivers/STM32F4xx_HAL_Driver/Src/stm32f4xx_hal_i2s_ex.c ****     transfers.
 163:Drivers/STM32F4xx_HAL_Driver/Src/stm32f4xx_hal_i2s_ex.c **** 
 164:Drivers/STM32F4xx_HAL_Driver/Src/stm32f4xx_hal_i2s_ex.c ****     (#) There are two modes of transfer:
 165:Drivers/STM32F4xx_HAL_Driver/Src/stm32f4xx_hal_i2s_ex.c ****        (++) Blocking mode : The communication is performed in the polling mode.
 166:Drivers/STM32F4xx_HAL_Driver/Src/stm32f4xx_hal_i2s_ex.c ****             The status of all data processing is returned by the same function
 167:Drivers/STM32F4xx_HAL_Driver/Src/stm32f4xx_hal_i2s_ex.c ****             after finishing transfer.
 168:Drivers/STM32F4xx_HAL_Driver/Src/stm32f4xx_hal_i2s_ex.c ****        (++) No-Blocking mode : The communication is performed using Interrupts
 169:Drivers/STM32F4xx_HAL_Driver/Src/stm32f4xx_hal_i2s_ex.c ****             or DMA. These functions return the status of the transfer startup.
 170:Drivers/STM32F4xx_HAL_Driver/Src/stm32f4xx_hal_i2s_ex.c ****             The end of the data processing will be indicated through the
 171:Drivers/STM32F4xx_HAL_Driver/Src/stm32f4xx_hal_i2s_ex.c ****             dedicated I2S IRQ when using Interrupt mode or the DMA IRQ when
 172:Drivers/STM32F4xx_HAL_Driver/Src/stm32f4xx_hal_i2s_ex.c ****             using DMA mode.
 173:Drivers/STM32F4xx_HAL_Driver/Src/stm32f4xx_hal_i2s_ex.c **** 
 174:Drivers/STM32F4xx_HAL_Driver/Src/stm32f4xx_hal_i2s_ex.c ****     (#) Blocking mode functions are :
 175:Drivers/STM32F4xx_HAL_Driver/Src/stm32f4xx_hal_i2s_ex.c ****         (++) HAL_I2SEx_TransmitReceive()
 176:Drivers/STM32F4xx_HAL_Driver/Src/stm32f4xx_hal_i2s_ex.c **** 
 177:Drivers/STM32F4xx_HAL_Driver/Src/stm32f4xx_hal_i2s_ex.c ****     (#) No-Blocking mode functions with Interrupt are :
 178:Drivers/STM32F4xx_HAL_Driver/Src/stm32f4xx_hal_i2s_ex.c ****         (++) HAL_I2SEx_TransmitReceive_IT()
 179:Drivers/STM32F4xx_HAL_Driver/Src/stm32f4xx_hal_i2s_ex.c ****         (++) HAL_I2SEx_FullDuplex_IRQHandler()
 180:Drivers/STM32F4xx_HAL_Driver/Src/stm32f4xx_hal_i2s_ex.c **** 
 181:Drivers/STM32F4xx_HAL_Driver/Src/stm32f4xx_hal_i2s_ex.c ****     (#) No-Blocking mode functions with DMA are :
 182:Drivers/STM32F4xx_HAL_Driver/Src/stm32f4xx_hal_i2s_ex.c ****         (++) HAL_I2SEx_TransmitReceive_DMA()
 183:Drivers/STM32F4xx_HAL_Driver/Src/stm32f4xx_hal_i2s_ex.c **** 
 184:Drivers/STM32F4xx_HAL_Driver/Src/stm32f4xx_hal_i2s_ex.c ****     (#) A set of Transfer Complete Callback are provided in non Blocking mode:
 185:Drivers/STM32F4xx_HAL_Driver/Src/stm32f4xx_hal_i2s_ex.c ****         (++) HAL_I2SEx_TxRxCpltCallback()
 186:Drivers/STM32F4xx_HAL_Driver/Src/stm32f4xx_hal_i2s_ex.c **** @endverbatim
 187:Drivers/STM32F4xx_HAL_Driver/Src/stm32f4xx_hal_i2s_ex.c ****   * @{
 188:Drivers/STM32F4xx_HAL_Driver/Src/stm32f4xx_hal_i2s_ex.c ****   */
 189:Drivers/STM32F4xx_HAL_Driver/Src/stm32f4xx_hal_i2s_ex.c **** /**
 190:Drivers/STM32F4xx_HAL_Driver/Src/stm32f4xx_hal_i2s_ex.c ****   * @brief  Full-Duplex Transmit/Receive data in blocking mode.
 191:Drivers/STM32F4xx_HAL_Driver/Src/stm32f4xx_hal_i2s_ex.c ****   * @param  hi2s pointer to a I2S_HandleTypeDef structure that contains
 192:Drivers/STM32F4xx_HAL_Driver/Src/stm32f4xx_hal_i2s_ex.c ****   *         the configuration information for I2S module
 193:Drivers/STM32F4xx_HAL_Driver/Src/stm32f4xx_hal_i2s_ex.c ****   * @param  pTxData a 16-bit pointer to the Transmit data buffer.
 194:Drivers/STM32F4xx_HAL_Driver/Src/stm32f4xx_hal_i2s_ex.c ****   * @param  pRxData a 16-bit pointer to the Receive data buffer.
 195:Drivers/STM32F4xx_HAL_Driver/Src/stm32f4xx_hal_i2s_ex.c ****   * @param  Size number of data sample to be sent:
 196:Drivers/STM32F4xx_HAL_Driver/Src/stm32f4xx_hal_i2s_ex.c ****   * @note   When a 16-bit data frame or a 16-bit data frame extended is selected during the I2S
 197:Drivers/STM32F4xx_HAL_Driver/Src/stm32f4xx_hal_i2s_ex.c ****   *         configuration phase, the Size parameter means the number of 16-bit data length
 198:Drivers/STM32F4xx_HAL_Driver/Src/stm32f4xx_hal_i2s_ex.c ****   *         in the transaction and when a 24-bit data frame or a 32-bit data frame is selected
 199:Drivers/STM32F4xx_HAL_Driver/Src/stm32f4xx_hal_i2s_ex.c ****   *         the Size parameter means the number of 16-bit data length.
 200:Drivers/STM32F4xx_HAL_Driver/Src/stm32f4xx_hal_i2s_ex.c ****   * @param  Timeout Timeout duration
 201:Drivers/STM32F4xx_HAL_Driver/Src/stm32f4xx_hal_i2s_ex.c ****   * @note   The I2S is kept enabled at the end of transaction to avoid the clock de-synchronization
 202:Drivers/STM32F4xx_HAL_Driver/Src/stm32f4xx_hal_i2s_ex.c ****   *         between Master and Slave(example: audio streaming).
 203:Drivers/STM32F4xx_HAL_Driver/Src/stm32f4xx_hal_i2s_ex.c ****   * @retval HAL status
ARM GAS  C:\Users\User\AppData\Local\Temp\ccqG9tqA.s 			page 5


 204:Drivers/STM32F4xx_HAL_Driver/Src/stm32f4xx_hal_i2s_ex.c ****   */
 205:Drivers/STM32F4xx_HAL_Driver/Src/stm32f4xx_hal_i2s_ex.c **** HAL_StatusTypeDef HAL_I2SEx_TransmitReceive(I2S_HandleTypeDef *hi2s, uint16_t *pTxData, uint16_t *p
 206:Drivers/STM32F4xx_HAL_Driver/Src/stm32f4xx_hal_i2s_ex.c ****                                             uint16_t Size, uint32_t Timeout)
 207:Drivers/STM32F4xx_HAL_Driver/Src/stm32f4xx_hal_i2s_ex.c **** {
 208:Drivers/STM32F4xx_HAL_Driver/Src/stm32f4xx_hal_i2s_ex.c ****   uint32_t tmp1 = 0U;
 209:Drivers/STM32F4xx_HAL_Driver/Src/stm32f4xx_hal_i2s_ex.c ****   HAL_StatusTypeDef errorcode = HAL_OK;
 210:Drivers/STM32F4xx_HAL_Driver/Src/stm32f4xx_hal_i2s_ex.c **** 
 211:Drivers/STM32F4xx_HAL_Driver/Src/stm32f4xx_hal_i2s_ex.c ****   if (hi2s->State != HAL_I2S_STATE_READY)
 212:Drivers/STM32F4xx_HAL_Driver/Src/stm32f4xx_hal_i2s_ex.c ****   {
 213:Drivers/STM32F4xx_HAL_Driver/Src/stm32f4xx_hal_i2s_ex.c ****     errorcode = HAL_BUSY;
 214:Drivers/STM32F4xx_HAL_Driver/Src/stm32f4xx_hal_i2s_ex.c ****     goto error;
 215:Drivers/STM32F4xx_HAL_Driver/Src/stm32f4xx_hal_i2s_ex.c ****   }
 216:Drivers/STM32F4xx_HAL_Driver/Src/stm32f4xx_hal_i2s_ex.c **** 
 217:Drivers/STM32F4xx_HAL_Driver/Src/stm32f4xx_hal_i2s_ex.c ****   if ((pTxData == NULL) || (pRxData == NULL) || (Size == 0U))
 218:Drivers/STM32F4xx_HAL_Driver/Src/stm32f4xx_hal_i2s_ex.c ****   {
 219:Drivers/STM32F4xx_HAL_Driver/Src/stm32f4xx_hal_i2s_ex.c ****     return  HAL_ERROR;
 220:Drivers/STM32F4xx_HAL_Driver/Src/stm32f4xx_hal_i2s_ex.c ****   }
 221:Drivers/STM32F4xx_HAL_Driver/Src/stm32f4xx_hal_i2s_ex.c **** 
 222:Drivers/STM32F4xx_HAL_Driver/Src/stm32f4xx_hal_i2s_ex.c ****   /* Process Locked */
 223:Drivers/STM32F4xx_HAL_Driver/Src/stm32f4xx_hal_i2s_ex.c ****   __HAL_LOCK(hi2s);
 224:Drivers/STM32F4xx_HAL_Driver/Src/stm32f4xx_hal_i2s_ex.c **** 
 225:Drivers/STM32F4xx_HAL_Driver/Src/stm32f4xx_hal_i2s_ex.c ****   tmp1 = hi2s->Instance->I2SCFGR & (SPI_I2SCFGR_DATLEN | SPI_I2SCFGR_CHLEN);
 226:Drivers/STM32F4xx_HAL_Driver/Src/stm32f4xx_hal_i2s_ex.c ****   /* Check the Data format: When a 16-bit data frame or a 16-bit data frame extended
 227:Drivers/STM32F4xx_HAL_Driver/Src/stm32f4xx_hal_i2s_ex.c ****      is selected during the I2S configuration phase, the Size parameter means the number
 228:Drivers/STM32F4xx_HAL_Driver/Src/stm32f4xx_hal_i2s_ex.c ****      of 16-bit data length in the transaction and when a 24-bit data frame or a 32-bit data
 229:Drivers/STM32F4xx_HAL_Driver/Src/stm32f4xx_hal_i2s_ex.c ****      frame is selected the Size parameter means the number of 16-bit data length. */
 230:Drivers/STM32F4xx_HAL_Driver/Src/stm32f4xx_hal_i2s_ex.c ****   if ((tmp1 == I2S_DATAFORMAT_24B) || (tmp1 == I2S_DATAFORMAT_32B))
 231:Drivers/STM32F4xx_HAL_Driver/Src/stm32f4xx_hal_i2s_ex.c ****   {
 232:Drivers/STM32F4xx_HAL_Driver/Src/stm32f4xx_hal_i2s_ex.c ****     hi2s->TxXferSize  = (Size << 1U);
 233:Drivers/STM32F4xx_HAL_Driver/Src/stm32f4xx_hal_i2s_ex.c ****     hi2s->TxXferCount = (Size << 1U);
 234:Drivers/STM32F4xx_HAL_Driver/Src/stm32f4xx_hal_i2s_ex.c ****     hi2s->RxXferSize  = (Size << 1U);
 235:Drivers/STM32F4xx_HAL_Driver/Src/stm32f4xx_hal_i2s_ex.c ****     hi2s->RxXferCount = (Size << 1U);
 236:Drivers/STM32F4xx_HAL_Driver/Src/stm32f4xx_hal_i2s_ex.c ****   }
 237:Drivers/STM32F4xx_HAL_Driver/Src/stm32f4xx_hal_i2s_ex.c ****   else
 238:Drivers/STM32F4xx_HAL_Driver/Src/stm32f4xx_hal_i2s_ex.c ****   {
 239:Drivers/STM32F4xx_HAL_Driver/Src/stm32f4xx_hal_i2s_ex.c ****     hi2s->TxXferSize  = Size;
 240:Drivers/STM32F4xx_HAL_Driver/Src/stm32f4xx_hal_i2s_ex.c ****     hi2s->TxXferCount = Size;
 241:Drivers/STM32F4xx_HAL_Driver/Src/stm32f4xx_hal_i2s_ex.c ****     hi2s->RxXferSize  = Size;
 242:Drivers/STM32F4xx_HAL_Driver/Src/stm32f4xx_hal_i2s_ex.c ****     hi2s->RxXferCount = Size;
 243:Drivers/STM32F4xx_HAL_Driver/Src/stm32f4xx_hal_i2s_ex.c ****   }
 244:Drivers/STM32F4xx_HAL_Driver/Src/stm32f4xx_hal_i2s_ex.c **** 
 245:Drivers/STM32F4xx_HAL_Driver/Src/stm32f4xx_hal_i2s_ex.c ****   /* Set state and reset error code */
 246:Drivers/STM32F4xx_HAL_Driver/Src/stm32f4xx_hal_i2s_ex.c ****   hi2s->ErrorCode = HAL_I2S_ERROR_NONE;
 247:Drivers/STM32F4xx_HAL_Driver/Src/stm32f4xx_hal_i2s_ex.c ****   hi2s->State = HAL_I2S_STATE_BUSY_TX_RX;
 248:Drivers/STM32F4xx_HAL_Driver/Src/stm32f4xx_hal_i2s_ex.c **** 
 249:Drivers/STM32F4xx_HAL_Driver/Src/stm32f4xx_hal_i2s_ex.c ****   tmp1 = hi2s->Instance->I2SCFGR & SPI_I2SCFGR_I2SCFG;
 250:Drivers/STM32F4xx_HAL_Driver/Src/stm32f4xx_hal_i2s_ex.c ****   /* Check if the I2S_MODE_MASTER_TX or I2S_MODE_SLAVE_TX Mode is selected */
 251:Drivers/STM32F4xx_HAL_Driver/Src/stm32f4xx_hal_i2s_ex.c ****   if ((tmp1 == I2S_MODE_MASTER_TX) || (tmp1 == I2S_MODE_SLAVE_TX))
 252:Drivers/STM32F4xx_HAL_Driver/Src/stm32f4xx_hal_i2s_ex.c ****   {
 253:Drivers/STM32F4xx_HAL_Driver/Src/stm32f4xx_hal_i2s_ex.c ****     /* Prepare the First Data before enabling the I2S */
 254:Drivers/STM32F4xx_HAL_Driver/Src/stm32f4xx_hal_i2s_ex.c ****     hi2s->Instance->DR = (*pTxData++);
 255:Drivers/STM32F4xx_HAL_Driver/Src/stm32f4xx_hal_i2s_ex.c ****     hi2s->TxXferCount--;
 256:Drivers/STM32F4xx_HAL_Driver/Src/stm32f4xx_hal_i2s_ex.c **** 
 257:Drivers/STM32F4xx_HAL_Driver/Src/stm32f4xx_hal_i2s_ex.c ****     /* Enable I2Sext(receiver) before enabling I2Sx peripheral */
 258:Drivers/STM32F4xx_HAL_Driver/Src/stm32f4xx_hal_i2s_ex.c ****     __HAL_I2SEXT_ENABLE(hi2s);
 259:Drivers/STM32F4xx_HAL_Driver/Src/stm32f4xx_hal_i2s_ex.c **** 
 260:Drivers/STM32F4xx_HAL_Driver/Src/stm32f4xx_hal_i2s_ex.c ****     /* Enable I2Sx peripheral */
ARM GAS  C:\Users\User\AppData\Local\Temp\ccqG9tqA.s 			page 6


 261:Drivers/STM32F4xx_HAL_Driver/Src/stm32f4xx_hal_i2s_ex.c ****     __HAL_I2S_ENABLE(hi2s);
 262:Drivers/STM32F4xx_HAL_Driver/Src/stm32f4xx_hal_i2s_ex.c **** 
 263:Drivers/STM32F4xx_HAL_Driver/Src/stm32f4xx_hal_i2s_ex.c ****     /* Check if Master Receiver mode is selected */
 264:Drivers/STM32F4xx_HAL_Driver/Src/stm32f4xx_hal_i2s_ex.c ****     if ((hi2s->Instance->I2SCFGR & SPI_I2SCFGR_I2SCFG) == I2S_MODE_MASTER_TX)
 265:Drivers/STM32F4xx_HAL_Driver/Src/stm32f4xx_hal_i2s_ex.c ****     {
 266:Drivers/STM32F4xx_HAL_Driver/Src/stm32f4xx_hal_i2s_ex.c ****       /* Clear the Overrun Flag by a read operation on the SPI_DR register followed by a read
 267:Drivers/STM32F4xx_HAL_Driver/Src/stm32f4xx_hal_i2s_ex.c ****       access to the SPI_SR register. */
 268:Drivers/STM32F4xx_HAL_Driver/Src/stm32f4xx_hal_i2s_ex.c ****       __HAL_I2SEXT_CLEAR_OVRFLAG(hi2s);
 269:Drivers/STM32F4xx_HAL_Driver/Src/stm32f4xx_hal_i2s_ex.c ****     }
 270:Drivers/STM32F4xx_HAL_Driver/Src/stm32f4xx_hal_i2s_ex.c **** 
 271:Drivers/STM32F4xx_HAL_Driver/Src/stm32f4xx_hal_i2s_ex.c ****     while ((hi2s->RxXferCount > 0U) || (hi2s->TxXferCount > 0U))
 272:Drivers/STM32F4xx_HAL_Driver/Src/stm32f4xx_hal_i2s_ex.c ****     {
 273:Drivers/STM32F4xx_HAL_Driver/Src/stm32f4xx_hal_i2s_ex.c ****       if (hi2s->TxXferCount > 0U)
 274:Drivers/STM32F4xx_HAL_Driver/Src/stm32f4xx_hal_i2s_ex.c ****       {
 275:Drivers/STM32F4xx_HAL_Driver/Src/stm32f4xx_hal_i2s_ex.c ****         /* Wait until TXE flag is set */
 276:Drivers/STM32F4xx_HAL_Driver/Src/stm32f4xx_hal_i2s_ex.c ****         if (I2SEx_FullDuplexWaitFlagStateUntilTimeout(hi2s, I2S_FLAG_TXE, SET, Timeout, I2S_USE_I2S
 277:Drivers/STM32F4xx_HAL_Driver/Src/stm32f4xx_hal_i2s_ex.c ****         {
 278:Drivers/STM32F4xx_HAL_Driver/Src/stm32f4xx_hal_i2s_ex.c ****           /* Set the error code */
 279:Drivers/STM32F4xx_HAL_Driver/Src/stm32f4xx_hal_i2s_ex.c ****           SET_BIT(hi2s->ErrorCode, HAL_I2S_ERROR_TIMEOUT);
 280:Drivers/STM32F4xx_HAL_Driver/Src/stm32f4xx_hal_i2s_ex.c ****           errorcode = HAL_ERROR;
 281:Drivers/STM32F4xx_HAL_Driver/Src/stm32f4xx_hal_i2s_ex.c ****           goto error;
 282:Drivers/STM32F4xx_HAL_Driver/Src/stm32f4xx_hal_i2s_ex.c ****         }
 283:Drivers/STM32F4xx_HAL_Driver/Src/stm32f4xx_hal_i2s_ex.c ****         /* Write Data on DR register */
 284:Drivers/STM32F4xx_HAL_Driver/Src/stm32f4xx_hal_i2s_ex.c ****         hi2s->Instance->DR = (*pTxData++);
 285:Drivers/STM32F4xx_HAL_Driver/Src/stm32f4xx_hal_i2s_ex.c ****         hi2s->TxXferCount--;
 286:Drivers/STM32F4xx_HAL_Driver/Src/stm32f4xx_hal_i2s_ex.c **** 
 287:Drivers/STM32F4xx_HAL_Driver/Src/stm32f4xx_hal_i2s_ex.c ****         /* Check if an underrun occurs */
 288:Drivers/STM32F4xx_HAL_Driver/Src/stm32f4xx_hal_i2s_ex.c ****         if ((__HAL_I2S_GET_FLAG(hi2s, I2S_FLAG_UDR) == SET) && (tmp1 == I2S_MODE_SLAVE_TX))
 289:Drivers/STM32F4xx_HAL_Driver/Src/stm32f4xx_hal_i2s_ex.c ****         {
 290:Drivers/STM32F4xx_HAL_Driver/Src/stm32f4xx_hal_i2s_ex.c ****           /* Clear Underrun flag */
 291:Drivers/STM32F4xx_HAL_Driver/Src/stm32f4xx_hal_i2s_ex.c ****           __HAL_I2S_CLEAR_UDRFLAG(hi2s);
 292:Drivers/STM32F4xx_HAL_Driver/Src/stm32f4xx_hal_i2s_ex.c **** 
 293:Drivers/STM32F4xx_HAL_Driver/Src/stm32f4xx_hal_i2s_ex.c ****           /* Set the error code */
 294:Drivers/STM32F4xx_HAL_Driver/Src/stm32f4xx_hal_i2s_ex.c ****           SET_BIT(hi2s->ErrorCode, HAL_I2S_ERROR_UDR);
 295:Drivers/STM32F4xx_HAL_Driver/Src/stm32f4xx_hal_i2s_ex.c ****         }
 296:Drivers/STM32F4xx_HAL_Driver/Src/stm32f4xx_hal_i2s_ex.c ****       }
 297:Drivers/STM32F4xx_HAL_Driver/Src/stm32f4xx_hal_i2s_ex.c ****       if (hi2s->RxXferCount > 0U)
 298:Drivers/STM32F4xx_HAL_Driver/Src/stm32f4xx_hal_i2s_ex.c ****       {
 299:Drivers/STM32F4xx_HAL_Driver/Src/stm32f4xx_hal_i2s_ex.c ****         /* Wait until RXNE flag is set */
 300:Drivers/STM32F4xx_HAL_Driver/Src/stm32f4xx_hal_i2s_ex.c ****         if (I2SEx_FullDuplexWaitFlagStateUntilTimeout(hi2s, I2S_FLAG_RXNE, SET, Timeout, I2S_USE_I2
 301:Drivers/STM32F4xx_HAL_Driver/Src/stm32f4xx_hal_i2s_ex.c ****         {
 302:Drivers/STM32F4xx_HAL_Driver/Src/stm32f4xx_hal_i2s_ex.c ****           /* Set the error code */
 303:Drivers/STM32F4xx_HAL_Driver/Src/stm32f4xx_hal_i2s_ex.c ****           SET_BIT(hi2s->ErrorCode, HAL_I2S_ERROR_TIMEOUT);
 304:Drivers/STM32F4xx_HAL_Driver/Src/stm32f4xx_hal_i2s_ex.c ****           errorcode = HAL_ERROR;
 305:Drivers/STM32F4xx_HAL_Driver/Src/stm32f4xx_hal_i2s_ex.c ****           goto error;
 306:Drivers/STM32F4xx_HAL_Driver/Src/stm32f4xx_hal_i2s_ex.c ****         }
 307:Drivers/STM32F4xx_HAL_Driver/Src/stm32f4xx_hal_i2s_ex.c ****         /* Read Data from DR register */
 308:Drivers/STM32F4xx_HAL_Driver/Src/stm32f4xx_hal_i2s_ex.c ****         (*pRxData++) = I2SxEXT(hi2s->Instance)->DR;
 309:Drivers/STM32F4xx_HAL_Driver/Src/stm32f4xx_hal_i2s_ex.c ****         hi2s->RxXferCount--;
 310:Drivers/STM32F4xx_HAL_Driver/Src/stm32f4xx_hal_i2s_ex.c **** 
 311:Drivers/STM32F4xx_HAL_Driver/Src/stm32f4xx_hal_i2s_ex.c ****         /* Check if an overrun occurs */
 312:Drivers/STM32F4xx_HAL_Driver/Src/stm32f4xx_hal_i2s_ex.c ****         if (__HAL_I2SEXT_GET_FLAG(hi2s, I2S_FLAG_OVR) == SET)
 313:Drivers/STM32F4xx_HAL_Driver/Src/stm32f4xx_hal_i2s_ex.c ****         {
 314:Drivers/STM32F4xx_HAL_Driver/Src/stm32f4xx_hal_i2s_ex.c ****           /* Clear Overrun flag */
 315:Drivers/STM32F4xx_HAL_Driver/Src/stm32f4xx_hal_i2s_ex.c ****           __HAL_I2S_CLEAR_OVRFLAG(hi2s);
 316:Drivers/STM32F4xx_HAL_Driver/Src/stm32f4xx_hal_i2s_ex.c **** 
 317:Drivers/STM32F4xx_HAL_Driver/Src/stm32f4xx_hal_i2s_ex.c ****           /* Set the error code */
ARM GAS  C:\Users\User\AppData\Local\Temp\ccqG9tqA.s 			page 7


 318:Drivers/STM32F4xx_HAL_Driver/Src/stm32f4xx_hal_i2s_ex.c ****           SET_BIT(hi2s->ErrorCode, HAL_I2S_ERROR_OVR);
 319:Drivers/STM32F4xx_HAL_Driver/Src/stm32f4xx_hal_i2s_ex.c ****         }
 320:Drivers/STM32F4xx_HAL_Driver/Src/stm32f4xx_hal_i2s_ex.c ****       }
 321:Drivers/STM32F4xx_HAL_Driver/Src/stm32f4xx_hal_i2s_ex.c ****     }
 322:Drivers/STM32F4xx_HAL_Driver/Src/stm32f4xx_hal_i2s_ex.c ****   }
 323:Drivers/STM32F4xx_HAL_Driver/Src/stm32f4xx_hal_i2s_ex.c ****   /* The I2S_MODE_MASTER_RX or I2S_MODE_SLAVE_RX Mode is selected */
 324:Drivers/STM32F4xx_HAL_Driver/Src/stm32f4xx_hal_i2s_ex.c ****   else
 325:Drivers/STM32F4xx_HAL_Driver/Src/stm32f4xx_hal_i2s_ex.c ****   {
 326:Drivers/STM32F4xx_HAL_Driver/Src/stm32f4xx_hal_i2s_ex.c ****     /* Prepare the First Data before enabling the I2S */
 327:Drivers/STM32F4xx_HAL_Driver/Src/stm32f4xx_hal_i2s_ex.c ****     I2SxEXT(hi2s->Instance)->DR = (*pTxData++);
 328:Drivers/STM32F4xx_HAL_Driver/Src/stm32f4xx_hal_i2s_ex.c ****     hi2s->TxXferCount--;
 329:Drivers/STM32F4xx_HAL_Driver/Src/stm32f4xx_hal_i2s_ex.c **** 
 330:Drivers/STM32F4xx_HAL_Driver/Src/stm32f4xx_hal_i2s_ex.c ****     /* Enable I2Sext(transmitter) after enabling I2Sx peripheral */
 331:Drivers/STM32F4xx_HAL_Driver/Src/stm32f4xx_hal_i2s_ex.c ****     __HAL_I2SEXT_ENABLE(hi2s);
 332:Drivers/STM32F4xx_HAL_Driver/Src/stm32f4xx_hal_i2s_ex.c **** 
 333:Drivers/STM32F4xx_HAL_Driver/Src/stm32f4xx_hal_i2s_ex.c ****     /* Enable I2S peripheral before the I2Sext*/
 334:Drivers/STM32F4xx_HAL_Driver/Src/stm32f4xx_hal_i2s_ex.c ****     __HAL_I2S_ENABLE(hi2s);
 335:Drivers/STM32F4xx_HAL_Driver/Src/stm32f4xx_hal_i2s_ex.c **** 
 336:Drivers/STM32F4xx_HAL_Driver/Src/stm32f4xx_hal_i2s_ex.c ****     /* Check if Master Receiver mode is selected */
 337:Drivers/STM32F4xx_HAL_Driver/Src/stm32f4xx_hal_i2s_ex.c ****     if ((hi2s->Instance->I2SCFGR & SPI_I2SCFGR_I2SCFG) == I2S_MODE_MASTER_RX)
 338:Drivers/STM32F4xx_HAL_Driver/Src/stm32f4xx_hal_i2s_ex.c ****     {
 339:Drivers/STM32F4xx_HAL_Driver/Src/stm32f4xx_hal_i2s_ex.c ****       /* Clear the Overrun Flag by a read operation on the SPI_DR register followed by a read
 340:Drivers/STM32F4xx_HAL_Driver/Src/stm32f4xx_hal_i2s_ex.c ****       access to the SPI_SR register. */
 341:Drivers/STM32F4xx_HAL_Driver/Src/stm32f4xx_hal_i2s_ex.c ****       __HAL_I2S_CLEAR_OVRFLAG(hi2s);
 342:Drivers/STM32F4xx_HAL_Driver/Src/stm32f4xx_hal_i2s_ex.c ****     }
 343:Drivers/STM32F4xx_HAL_Driver/Src/stm32f4xx_hal_i2s_ex.c **** 
 344:Drivers/STM32F4xx_HAL_Driver/Src/stm32f4xx_hal_i2s_ex.c ****     while ((hi2s->RxXferCount > 0U) || (hi2s->TxXferCount > 0U))
 345:Drivers/STM32F4xx_HAL_Driver/Src/stm32f4xx_hal_i2s_ex.c ****     {
 346:Drivers/STM32F4xx_HAL_Driver/Src/stm32f4xx_hal_i2s_ex.c ****       if (hi2s->TxXferCount > 0U)
 347:Drivers/STM32F4xx_HAL_Driver/Src/stm32f4xx_hal_i2s_ex.c ****       {
 348:Drivers/STM32F4xx_HAL_Driver/Src/stm32f4xx_hal_i2s_ex.c ****         /* Wait until TXE flag is set */
 349:Drivers/STM32F4xx_HAL_Driver/Src/stm32f4xx_hal_i2s_ex.c ****         if (I2SEx_FullDuplexWaitFlagStateUntilTimeout(hi2s, I2S_FLAG_TXE, SET, Timeout, I2S_USE_I2S
 350:Drivers/STM32F4xx_HAL_Driver/Src/stm32f4xx_hal_i2s_ex.c ****         {
 351:Drivers/STM32F4xx_HAL_Driver/Src/stm32f4xx_hal_i2s_ex.c ****           /* Set the error code */
 352:Drivers/STM32F4xx_HAL_Driver/Src/stm32f4xx_hal_i2s_ex.c ****           SET_BIT(hi2s->ErrorCode, HAL_I2S_ERROR_TIMEOUT);
 353:Drivers/STM32F4xx_HAL_Driver/Src/stm32f4xx_hal_i2s_ex.c ****           errorcode = HAL_ERROR;
 354:Drivers/STM32F4xx_HAL_Driver/Src/stm32f4xx_hal_i2s_ex.c ****           goto error;
 355:Drivers/STM32F4xx_HAL_Driver/Src/stm32f4xx_hal_i2s_ex.c ****         }
 356:Drivers/STM32F4xx_HAL_Driver/Src/stm32f4xx_hal_i2s_ex.c ****         /* Write Data on DR register */
 357:Drivers/STM32F4xx_HAL_Driver/Src/stm32f4xx_hal_i2s_ex.c ****         I2SxEXT(hi2s->Instance)->DR = (*pTxData++);
 358:Drivers/STM32F4xx_HAL_Driver/Src/stm32f4xx_hal_i2s_ex.c ****         hi2s->TxXferCount--;
 359:Drivers/STM32F4xx_HAL_Driver/Src/stm32f4xx_hal_i2s_ex.c **** 
 360:Drivers/STM32F4xx_HAL_Driver/Src/stm32f4xx_hal_i2s_ex.c ****         /* Check if an underrun occurs */
 361:Drivers/STM32F4xx_HAL_Driver/Src/stm32f4xx_hal_i2s_ex.c ****         if ((__HAL_I2SEXT_GET_FLAG(hi2s, I2S_FLAG_UDR) == SET) && (tmp1 == I2S_MODE_SLAVE_RX))
 362:Drivers/STM32F4xx_HAL_Driver/Src/stm32f4xx_hal_i2s_ex.c ****         {
 363:Drivers/STM32F4xx_HAL_Driver/Src/stm32f4xx_hal_i2s_ex.c ****           /* Clear Underrun flag */
 364:Drivers/STM32F4xx_HAL_Driver/Src/stm32f4xx_hal_i2s_ex.c ****           __HAL_I2S_CLEAR_UDRFLAG(hi2s);
 365:Drivers/STM32F4xx_HAL_Driver/Src/stm32f4xx_hal_i2s_ex.c **** 
 366:Drivers/STM32F4xx_HAL_Driver/Src/stm32f4xx_hal_i2s_ex.c ****           /* Set the error code */
 367:Drivers/STM32F4xx_HAL_Driver/Src/stm32f4xx_hal_i2s_ex.c ****           SET_BIT(hi2s->ErrorCode, HAL_I2S_ERROR_UDR);
 368:Drivers/STM32F4xx_HAL_Driver/Src/stm32f4xx_hal_i2s_ex.c ****         }
 369:Drivers/STM32F4xx_HAL_Driver/Src/stm32f4xx_hal_i2s_ex.c ****       }
 370:Drivers/STM32F4xx_HAL_Driver/Src/stm32f4xx_hal_i2s_ex.c ****       if (hi2s->RxXferCount > 0U)
 371:Drivers/STM32F4xx_HAL_Driver/Src/stm32f4xx_hal_i2s_ex.c ****       {
 372:Drivers/STM32F4xx_HAL_Driver/Src/stm32f4xx_hal_i2s_ex.c ****         /* Wait until RXNE flag is set */
 373:Drivers/STM32F4xx_HAL_Driver/Src/stm32f4xx_hal_i2s_ex.c ****         if (I2SEx_FullDuplexWaitFlagStateUntilTimeout(hi2s, I2S_FLAG_RXNE, SET, Timeout, I2S_USE_I2
 374:Drivers/STM32F4xx_HAL_Driver/Src/stm32f4xx_hal_i2s_ex.c ****         {
ARM GAS  C:\Users\User\AppData\Local\Temp\ccqG9tqA.s 			page 8


 375:Drivers/STM32F4xx_HAL_Driver/Src/stm32f4xx_hal_i2s_ex.c ****           /* Set the error code */
 376:Drivers/STM32F4xx_HAL_Driver/Src/stm32f4xx_hal_i2s_ex.c ****           SET_BIT(hi2s->ErrorCode, HAL_I2S_ERROR_TIMEOUT);
 377:Drivers/STM32F4xx_HAL_Driver/Src/stm32f4xx_hal_i2s_ex.c ****           errorcode = HAL_ERROR;
 378:Drivers/STM32F4xx_HAL_Driver/Src/stm32f4xx_hal_i2s_ex.c ****           goto error;
 379:Drivers/STM32F4xx_HAL_Driver/Src/stm32f4xx_hal_i2s_ex.c ****         }
 380:Drivers/STM32F4xx_HAL_Driver/Src/stm32f4xx_hal_i2s_ex.c ****         /* Read Data from DR register */
 381:Drivers/STM32F4xx_HAL_Driver/Src/stm32f4xx_hal_i2s_ex.c ****         (*pRxData++) = hi2s->Instance->DR;
 382:Drivers/STM32F4xx_HAL_Driver/Src/stm32f4xx_hal_i2s_ex.c ****         hi2s->RxXferCount--;
 383:Drivers/STM32F4xx_HAL_Driver/Src/stm32f4xx_hal_i2s_ex.c **** 
 384:Drivers/STM32F4xx_HAL_Driver/Src/stm32f4xx_hal_i2s_ex.c ****         /* Check if an overrun occurs */
 385:Drivers/STM32F4xx_HAL_Driver/Src/stm32f4xx_hal_i2s_ex.c ****         if (__HAL_I2S_GET_FLAG(hi2s, I2S_FLAG_OVR) == SET)
 386:Drivers/STM32F4xx_HAL_Driver/Src/stm32f4xx_hal_i2s_ex.c ****         {
 387:Drivers/STM32F4xx_HAL_Driver/Src/stm32f4xx_hal_i2s_ex.c ****           /* Clear Overrun flag */
 388:Drivers/STM32F4xx_HAL_Driver/Src/stm32f4xx_hal_i2s_ex.c ****           __HAL_I2S_CLEAR_OVRFLAG(hi2s);
 389:Drivers/STM32F4xx_HAL_Driver/Src/stm32f4xx_hal_i2s_ex.c **** 
 390:Drivers/STM32F4xx_HAL_Driver/Src/stm32f4xx_hal_i2s_ex.c ****           /* Set the error code */
 391:Drivers/STM32F4xx_HAL_Driver/Src/stm32f4xx_hal_i2s_ex.c ****           SET_BIT(hi2s->ErrorCode, HAL_I2S_ERROR_OVR);
 392:Drivers/STM32F4xx_HAL_Driver/Src/stm32f4xx_hal_i2s_ex.c ****         }
 393:Drivers/STM32F4xx_HAL_Driver/Src/stm32f4xx_hal_i2s_ex.c ****       }
 394:Drivers/STM32F4xx_HAL_Driver/Src/stm32f4xx_hal_i2s_ex.c ****     }
 395:Drivers/STM32F4xx_HAL_Driver/Src/stm32f4xx_hal_i2s_ex.c ****   }
 396:Drivers/STM32F4xx_HAL_Driver/Src/stm32f4xx_hal_i2s_ex.c **** 
 397:Drivers/STM32F4xx_HAL_Driver/Src/stm32f4xx_hal_i2s_ex.c ****   if (hi2s->ErrorCode != HAL_I2S_ERROR_NONE)
 398:Drivers/STM32F4xx_HAL_Driver/Src/stm32f4xx_hal_i2s_ex.c ****   {
 399:Drivers/STM32F4xx_HAL_Driver/Src/stm32f4xx_hal_i2s_ex.c ****     errorcode = HAL_ERROR;
 400:Drivers/STM32F4xx_HAL_Driver/Src/stm32f4xx_hal_i2s_ex.c ****   }
 401:Drivers/STM32F4xx_HAL_Driver/Src/stm32f4xx_hal_i2s_ex.c **** 
 402:Drivers/STM32F4xx_HAL_Driver/Src/stm32f4xx_hal_i2s_ex.c **** error :
 403:Drivers/STM32F4xx_HAL_Driver/Src/stm32f4xx_hal_i2s_ex.c ****   hi2s->State = HAL_I2S_STATE_READY;
 404:Drivers/STM32F4xx_HAL_Driver/Src/stm32f4xx_hal_i2s_ex.c ****   __HAL_UNLOCK(hi2s);
 405:Drivers/STM32F4xx_HAL_Driver/Src/stm32f4xx_hal_i2s_ex.c ****   return errorcode;
 406:Drivers/STM32F4xx_HAL_Driver/Src/stm32f4xx_hal_i2s_ex.c **** }
 407:Drivers/STM32F4xx_HAL_Driver/Src/stm32f4xx_hal_i2s_ex.c **** 
 408:Drivers/STM32F4xx_HAL_Driver/Src/stm32f4xx_hal_i2s_ex.c **** /**
 409:Drivers/STM32F4xx_HAL_Driver/Src/stm32f4xx_hal_i2s_ex.c ****   * @brief  Full-Duplex Transmit/Receive data in non-blocking mode using Interrupt
 410:Drivers/STM32F4xx_HAL_Driver/Src/stm32f4xx_hal_i2s_ex.c ****   * @param  hi2s pointer to a I2S_HandleTypeDef structure that contains
 411:Drivers/STM32F4xx_HAL_Driver/Src/stm32f4xx_hal_i2s_ex.c ****   *         the configuration information for I2S module
 412:Drivers/STM32F4xx_HAL_Driver/Src/stm32f4xx_hal_i2s_ex.c ****   * @param  pTxData a 16-bit pointer to the Transmit data buffer.
 413:Drivers/STM32F4xx_HAL_Driver/Src/stm32f4xx_hal_i2s_ex.c ****   * @param  pRxData a 16-bit pointer to the Receive data buffer.
 414:Drivers/STM32F4xx_HAL_Driver/Src/stm32f4xx_hal_i2s_ex.c ****   * @param  Size number of data sample to be sent:
 415:Drivers/STM32F4xx_HAL_Driver/Src/stm32f4xx_hal_i2s_ex.c ****   * @note   When a 16-bit data frame or a 16-bit data frame extended is selected during the I2S
 416:Drivers/STM32F4xx_HAL_Driver/Src/stm32f4xx_hal_i2s_ex.c ****   *         configuration phase, the Size parameter means the number of 16-bit data length
 417:Drivers/STM32F4xx_HAL_Driver/Src/stm32f4xx_hal_i2s_ex.c ****   *         in the transaction and when a 24-bit data frame or a 32-bit data frame is selected
 418:Drivers/STM32F4xx_HAL_Driver/Src/stm32f4xx_hal_i2s_ex.c ****   *         the Size parameter means the number of 16-bit data length.
 419:Drivers/STM32F4xx_HAL_Driver/Src/stm32f4xx_hal_i2s_ex.c ****   * @note   The I2S is kept enabled at the end of transaction to avoid the clock de-synchronization
 420:Drivers/STM32F4xx_HAL_Driver/Src/stm32f4xx_hal_i2s_ex.c ****   *         between Master and Slave(example: audio streaming).
 421:Drivers/STM32F4xx_HAL_Driver/Src/stm32f4xx_hal_i2s_ex.c ****   * @retval HAL status
 422:Drivers/STM32F4xx_HAL_Driver/Src/stm32f4xx_hal_i2s_ex.c ****   */
 423:Drivers/STM32F4xx_HAL_Driver/Src/stm32f4xx_hal_i2s_ex.c **** HAL_StatusTypeDef HAL_I2SEx_TransmitReceive_IT(I2S_HandleTypeDef *hi2s, uint16_t *pTxData, uint16_t
 424:Drivers/STM32F4xx_HAL_Driver/Src/stm32f4xx_hal_i2s_ex.c ****                                                uint16_t Size)
 425:Drivers/STM32F4xx_HAL_Driver/Src/stm32f4xx_hal_i2s_ex.c **** {
 426:Drivers/STM32F4xx_HAL_Driver/Src/stm32f4xx_hal_i2s_ex.c ****   uint32_t tmp1 = 0U;
 427:Drivers/STM32F4xx_HAL_Driver/Src/stm32f4xx_hal_i2s_ex.c ****   HAL_StatusTypeDef errorcode = HAL_OK;
 428:Drivers/STM32F4xx_HAL_Driver/Src/stm32f4xx_hal_i2s_ex.c **** 
 429:Drivers/STM32F4xx_HAL_Driver/Src/stm32f4xx_hal_i2s_ex.c ****   if (hi2s->State != HAL_I2S_STATE_READY)
 430:Drivers/STM32F4xx_HAL_Driver/Src/stm32f4xx_hal_i2s_ex.c ****   {
 431:Drivers/STM32F4xx_HAL_Driver/Src/stm32f4xx_hal_i2s_ex.c ****     errorcode = HAL_BUSY;
ARM GAS  C:\Users\User\AppData\Local\Temp\ccqG9tqA.s 			page 9


 432:Drivers/STM32F4xx_HAL_Driver/Src/stm32f4xx_hal_i2s_ex.c ****     goto error;
 433:Drivers/STM32F4xx_HAL_Driver/Src/stm32f4xx_hal_i2s_ex.c ****   }
 434:Drivers/STM32F4xx_HAL_Driver/Src/stm32f4xx_hal_i2s_ex.c **** 
 435:Drivers/STM32F4xx_HAL_Driver/Src/stm32f4xx_hal_i2s_ex.c ****   if ((pTxData == NULL) || (pRxData == NULL) || (Size == 0U))
 436:Drivers/STM32F4xx_HAL_Driver/Src/stm32f4xx_hal_i2s_ex.c ****   {
 437:Drivers/STM32F4xx_HAL_Driver/Src/stm32f4xx_hal_i2s_ex.c ****     return  HAL_ERROR;
 438:Drivers/STM32F4xx_HAL_Driver/Src/stm32f4xx_hal_i2s_ex.c ****   }
 439:Drivers/STM32F4xx_HAL_Driver/Src/stm32f4xx_hal_i2s_ex.c **** 
 440:Drivers/STM32F4xx_HAL_Driver/Src/stm32f4xx_hal_i2s_ex.c ****   /* Process Locked */
 441:Drivers/STM32F4xx_HAL_Driver/Src/stm32f4xx_hal_i2s_ex.c ****   __HAL_LOCK(hi2s);
 442:Drivers/STM32F4xx_HAL_Driver/Src/stm32f4xx_hal_i2s_ex.c **** 
 443:Drivers/STM32F4xx_HAL_Driver/Src/stm32f4xx_hal_i2s_ex.c ****   hi2s->pTxBuffPtr = pTxData;
 444:Drivers/STM32F4xx_HAL_Driver/Src/stm32f4xx_hal_i2s_ex.c ****   hi2s->pRxBuffPtr = pRxData;
 445:Drivers/STM32F4xx_HAL_Driver/Src/stm32f4xx_hal_i2s_ex.c **** 
 446:Drivers/STM32F4xx_HAL_Driver/Src/stm32f4xx_hal_i2s_ex.c ****   tmp1 = hi2s->Instance->I2SCFGR & (SPI_I2SCFGR_DATLEN | SPI_I2SCFGR_CHLEN);
 447:Drivers/STM32F4xx_HAL_Driver/Src/stm32f4xx_hal_i2s_ex.c ****   /* Check the Data format: When a 16-bit data frame or a 16-bit data frame extended
 448:Drivers/STM32F4xx_HAL_Driver/Src/stm32f4xx_hal_i2s_ex.c ****   is selected during the I2S configuration phase, the Size parameter means the number
 449:Drivers/STM32F4xx_HAL_Driver/Src/stm32f4xx_hal_i2s_ex.c ****   of 16-bit data length in the transaction and when a 24-bit data frame or a 32-bit data
 450:Drivers/STM32F4xx_HAL_Driver/Src/stm32f4xx_hal_i2s_ex.c ****   frame is selected the Size parameter means the number of 16-bit data length. */
 451:Drivers/STM32F4xx_HAL_Driver/Src/stm32f4xx_hal_i2s_ex.c ****   if ((tmp1 == I2S_DATAFORMAT_24B) || (tmp1 == I2S_DATAFORMAT_32B))
 452:Drivers/STM32F4xx_HAL_Driver/Src/stm32f4xx_hal_i2s_ex.c ****   {
 453:Drivers/STM32F4xx_HAL_Driver/Src/stm32f4xx_hal_i2s_ex.c ****     hi2s->TxXferSize  = (Size << 1U);
 454:Drivers/STM32F4xx_HAL_Driver/Src/stm32f4xx_hal_i2s_ex.c ****     hi2s->TxXferCount = (Size << 1U);
 455:Drivers/STM32F4xx_HAL_Driver/Src/stm32f4xx_hal_i2s_ex.c ****     hi2s->RxXferSize  = (Size << 1U);
 456:Drivers/STM32F4xx_HAL_Driver/Src/stm32f4xx_hal_i2s_ex.c ****     hi2s->RxXferCount = (Size << 1U);
 457:Drivers/STM32F4xx_HAL_Driver/Src/stm32f4xx_hal_i2s_ex.c ****   }
 458:Drivers/STM32F4xx_HAL_Driver/Src/stm32f4xx_hal_i2s_ex.c ****   else
 459:Drivers/STM32F4xx_HAL_Driver/Src/stm32f4xx_hal_i2s_ex.c ****   {
 460:Drivers/STM32F4xx_HAL_Driver/Src/stm32f4xx_hal_i2s_ex.c ****     hi2s->TxXferSize  = Size;
 461:Drivers/STM32F4xx_HAL_Driver/Src/stm32f4xx_hal_i2s_ex.c ****     hi2s->TxXferCount = Size;
 462:Drivers/STM32F4xx_HAL_Driver/Src/stm32f4xx_hal_i2s_ex.c ****     hi2s->RxXferSize  = Size;
 463:Drivers/STM32F4xx_HAL_Driver/Src/stm32f4xx_hal_i2s_ex.c ****     hi2s->RxXferCount = Size;
 464:Drivers/STM32F4xx_HAL_Driver/Src/stm32f4xx_hal_i2s_ex.c ****   }
 465:Drivers/STM32F4xx_HAL_Driver/Src/stm32f4xx_hal_i2s_ex.c **** 
 466:Drivers/STM32F4xx_HAL_Driver/Src/stm32f4xx_hal_i2s_ex.c ****   hi2s->ErrorCode = HAL_I2S_ERROR_NONE;
 467:Drivers/STM32F4xx_HAL_Driver/Src/stm32f4xx_hal_i2s_ex.c ****   hi2s->State     = HAL_I2S_STATE_BUSY_TX_RX;
 468:Drivers/STM32F4xx_HAL_Driver/Src/stm32f4xx_hal_i2s_ex.c **** 
 469:Drivers/STM32F4xx_HAL_Driver/Src/stm32f4xx_hal_i2s_ex.c ****   /* Set the function for IT treatment */
 470:Drivers/STM32F4xx_HAL_Driver/Src/stm32f4xx_hal_i2s_ex.c ****   if ((hi2s->Init.Mode == I2S_MODE_MASTER_TX) || (hi2s->Init.Mode == I2S_MODE_SLAVE_TX))
 471:Drivers/STM32F4xx_HAL_Driver/Src/stm32f4xx_hal_i2s_ex.c ****   {
 472:Drivers/STM32F4xx_HAL_Driver/Src/stm32f4xx_hal_i2s_ex.c ****     /* Enable I2Sext RXNE and ERR interrupts */
 473:Drivers/STM32F4xx_HAL_Driver/Src/stm32f4xx_hal_i2s_ex.c ****     __HAL_I2SEXT_ENABLE_IT(hi2s, (I2S_IT_RXNE | I2S_IT_ERR));
 474:Drivers/STM32F4xx_HAL_Driver/Src/stm32f4xx_hal_i2s_ex.c **** 
 475:Drivers/STM32F4xx_HAL_Driver/Src/stm32f4xx_hal_i2s_ex.c ****     /* Enable I2Sx TXE and ERR interrupts */
 476:Drivers/STM32F4xx_HAL_Driver/Src/stm32f4xx_hal_i2s_ex.c ****     __HAL_I2S_ENABLE_IT(hi2s, (I2S_IT_TXE | I2S_IT_ERR));
 477:Drivers/STM32F4xx_HAL_Driver/Src/stm32f4xx_hal_i2s_ex.c **** 
 478:Drivers/STM32F4xx_HAL_Driver/Src/stm32f4xx_hal_i2s_ex.c ****     /* Transmit First data */
 479:Drivers/STM32F4xx_HAL_Driver/Src/stm32f4xx_hal_i2s_ex.c ****     hi2s->Instance->DR = (*hi2s->pTxBuffPtr++);
 480:Drivers/STM32F4xx_HAL_Driver/Src/stm32f4xx_hal_i2s_ex.c ****     hi2s->TxXferCount--;
 481:Drivers/STM32F4xx_HAL_Driver/Src/stm32f4xx_hal_i2s_ex.c **** 
 482:Drivers/STM32F4xx_HAL_Driver/Src/stm32f4xx_hal_i2s_ex.c ****     if (hi2s->TxXferCount == 0U)
 483:Drivers/STM32F4xx_HAL_Driver/Src/stm32f4xx_hal_i2s_ex.c ****     {
 484:Drivers/STM32F4xx_HAL_Driver/Src/stm32f4xx_hal_i2s_ex.c ****       /* Disable TXE and ERR interrupt */
 485:Drivers/STM32F4xx_HAL_Driver/Src/stm32f4xx_hal_i2s_ex.c ****       __HAL_I2S_DISABLE_IT(hi2s, (I2S_IT_TXE | I2S_IT_ERR));
 486:Drivers/STM32F4xx_HAL_Driver/Src/stm32f4xx_hal_i2s_ex.c ****     }
 487:Drivers/STM32F4xx_HAL_Driver/Src/stm32f4xx_hal_i2s_ex.c ****   }
 488:Drivers/STM32F4xx_HAL_Driver/Src/stm32f4xx_hal_i2s_ex.c ****   else  /* The I2S_MODE_MASTER_RX or I2S_MODE_SLAVE_RX Mode is selected */
ARM GAS  C:\Users\User\AppData\Local\Temp\ccqG9tqA.s 			page 10


 489:Drivers/STM32F4xx_HAL_Driver/Src/stm32f4xx_hal_i2s_ex.c ****   {
 490:Drivers/STM32F4xx_HAL_Driver/Src/stm32f4xx_hal_i2s_ex.c ****     /* Enable I2Sext TXE and ERR interrupts */
 491:Drivers/STM32F4xx_HAL_Driver/Src/stm32f4xx_hal_i2s_ex.c ****     __HAL_I2SEXT_ENABLE_IT(hi2s, (I2S_IT_TXE | I2S_IT_ERR));
 492:Drivers/STM32F4xx_HAL_Driver/Src/stm32f4xx_hal_i2s_ex.c **** 
 493:Drivers/STM32F4xx_HAL_Driver/Src/stm32f4xx_hal_i2s_ex.c ****     /* Enable I2Sext RXNE and ERR interrupts */
 494:Drivers/STM32F4xx_HAL_Driver/Src/stm32f4xx_hal_i2s_ex.c ****     __HAL_I2S_ENABLE_IT(hi2s, (I2S_IT_RXNE | I2S_IT_ERR));
 495:Drivers/STM32F4xx_HAL_Driver/Src/stm32f4xx_hal_i2s_ex.c **** 
 496:Drivers/STM32F4xx_HAL_Driver/Src/stm32f4xx_hal_i2s_ex.c ****     /* Transmit First data */
 497:Drivers/STM32F4xx_HAL_Driver/Src/stm32f4xx_hal_i2s_ex.c ****     I2SxEXT(hi2s->Instance)->DR = (*hi2s->pTxBuffPtr++);
 498:Drivers/STM32F4xx_HAL_Driver/Src/stm32f4xx_hal_i2s_ex.c ****     hi2s->TxXferCount--;
 499:Drivers/STM32F4xx_HAL_Driver/Src/stm32f4xx_hal_i2s_ex.c **** 
 500:Drivers/STM32F4xx_HAL_Driver/Src/stm32f4xx_hal_i2s_ex.c ****     if (hi2s->TxXferCount == 0U)
 501:Drivers/STM32F4xx_HAL_Driver/Src/stm32f4xx_hal_i2s_ex.c ****     {
 502:Drivers/STM32F4xx_HAL_Driver/Src/stm32f4xx_hal_i2s_ex.c ****       /* Disable I2Sext TXE and ERR interrupt */
 503:Drivers/STM32F4xx_HAL_Driver/Src/stm32f4xx_hal_i2s_ex.c ****       __HAL_I2SEXT_DISABLE_IT(hi2s, (I2S_IT_TXE | I2S_IT_ERR));
 504:Drivers/STM32F4xx_HAL_Driver/Src/stm32f4xx_hal_i2s_ex.c ****     }
 505:Drivers/STM32F4xx_HAL_Driver/Src/stm32f4xx_hal_i2s_ex.c ****   }
 506:Drivers/STM32F4xx_HAL_Driver/Src/stm32f4xx_hal_i2s_ex.c **** 
 507:Drivers/STM32F4xx_HAL_Driver/Src/stm32f4xx_hal_i2s_ex.c ****   /* Enable I2Sext peripheral */
 508:Drivers/STM32F4xx_HAL_Driver/Src/stm32f4xx_hal_i2s_ex.c ****   __HAL_I2SEXT_ENABLE(hi2s);
 509:Drivers/STM32F4xx_HAL_Driver/Src/stm32f4xx_hal_i2s_ex.c **** 
 510:Drivers/STM32F4xx_HAL_Driver/Src/stm32f4xx_hal_i2s_ex.c ****   /* Enable I2S peripheral */
 511:Drivers/STM32F4xx_HAL_Driver/Src/stm32f4xx_hal_i2s_ex.c ****   __HAL_I2S_ENABLE(hi2s);
 512:Drivers/STM32F4xx_HAL_Driver/Src/stm32f4xx_hal_i2s_ex.c **** 
 513:Drivers/STM32F4xx_HAL_Driver/Src/stm32f4xx_hal_i2s_ex.c **** error :
 514:Drivers/STM32F4xx_HAL_Driver/Src/stm32f4xx_hal_i2s_ex.c ****   __HAL_UNLOCK(hi2s);
 515:Drivers/STM32F4xx_HAL_Driver/Src/stm32f4xx_hal_i2s_ex.c ****   return errorcode;
 516:Drivers/STM32F4xx_HAL_Driver/Src/stm32f4xx_hal_i2s_ex.c **** }
 517:Drivers/STM32F4xx_HAL_Driver/Src/stm32f4xx_hal_i2s_ex.c **** 
 518:Drivers/STM32F4xx_HAL_Driver/Src/stm32f4xx_hal_i2s_ex.c **** /**
 519:Drivers/STM32F4xx_HAL_Driver/Src/stm32f4xx_hal_i2s_ex.c ****   * @brief  Full-Duplex Transmit/Receive data in non-blocking mode using DMA
 520:Drivers/STM32F4xx_HAL_Driver/Src/stm32f4xx_hal_i2s_ex.c ****   * @param  hi2s pointer to a I2S_HandleTypeDef structure that contains
 521:Drivers/STM32F4xx_HAL_Driver/Src/stm32f4xx_hal_i2s_ex.c ****   *         the configuration information for I2S module
 522:Drivers/STM32F4xx_HAL_Driver/Src/stm32f4xx_hal_i2s_ex.c ****   * @param  pTxData a 16-bit pointer to the Transmit data buffer.
 523:Drivers/STM32F4xx_HAL_Driver/Src/stm32f4xx_hal_i2s_ex.c ****   * @param  pRxData a 16-bit pointer to the Receive data buffer.
 524:Drivers/STM32F4xx_HAL_Driver/Src/stm32f4xx_hal_i2s_ex.c ****   * @param  Size number of data sample to be sent:
 525:Drivers/STM32F4xx_HAL_Driver/Src/stm32f4xx_hal_i2s_ex.c ****   * @note   When a 16-bit data frame or a 16-bit data frame extended is selected during the I2S
 526:Drivers/STM32F4xx_HAL_Driver/Src/stm32f4xx_hal_i2s_ex.c ****   *         configuration phase, the Size parameter means the number of 16-bit data length
 527:Drivers/STM32F4xx_HAL_Driver/Src/stm32f4xx_hal_i2s_ex.c ****   *         in the transaction and when a 24-bit data frame or a 32-bit data frame is selected
 528:Drivers/STM32F4xx_HAL_Driver/Src/stm32f4xx_hal_i2s_ex.c ****   *         the Size parameter means the number of 16-bit data length.
 529:Drivers/STM32F4xx_HAL_Driver/Src/stm32f4xx_hal_i2s_ex.c ****   * @note   The I2S is kept enabled at the end of transaction to avoid the clock de-synchronization
 530:Drivers/STM32F4xx_HAL_Driver/Src/stm32f4xx_hal_i2s_ex.c ****   *         between Master and Slave(example: audio streaming).
 531:Drivers/STM32F4xx_HAL_Driver/Src/stm32f4xx_hal_i2s_ex.c ****   * @retval HAL status
 532:Drivers/STM32F4xx_HAL_Driver/Src/stm32f4xx_hal_i2s_ex.c ****   */
 533:Drivers/STM32F4xx_HAL_Driver/Src/stm32f4xx_hal_i2s_ex.c **** HAL_StatusTypeDef HAL_I2SEx_TransmitReceive_DMA(I2S_HandleTypeDef *hi2s, uint16_t *pTxData, uint16_
 534:Drivers/STM32F4xx_HAL_Driver/Src/stm32f4xx_hal_i2s_ex.c ****                                                 uint16_t Size)
 535:Drivers/STM32F4xx_HAL_Driver/Src/stm32f4xx_hal_i2s_ex.c **** {
 536:Drivers/STM32F4xx_HAL_Driver/Src/stm32f4xx_hal_i2s_ex.c ****   uint32_t *tmp = NULL;
 537:Drivers/STM32F4xx_HAL_Driver/Src/stm32f4xx_hal_i2s_ex.c ****   uint32_t tmp1 = 0U;
 538:Drivers/STM32F4xx_HAL_Driver/Src/stm32f4xx_hal_i2s_ex.c ****   HAL_StatusTypeDef errorcode = HAL_OK;
 539:Drivers/STM32F4xx_HAL_Driver/Src/stm32f4xx_hal_i2s_ex.c **** 
 540:Drivers/STM32F4xx_HAL_Driver/Src/stm32f4xx_hal_i2s_ex.c ****   if (hi2s->State != HAL_I2S_STATE_READY)
 541:Drivers/STM32F4xx_HAL_Driver/Src/stm32f4xx_hal_i2s_ex.c ****   {
 542:Drivers/STM32F4xx_HAL_Driver/Src/stm32f4xx_hal_i2s_ex.c ****     errorcode = HAL_BUSY;
 543:Drivers/STM32F4xx_HAL_Driver/Src/stm32f4xx_hal_i2s_ex.c ****     goto error;
 544:Drivers/STM32F4xx_HAL_Driver/Src/stm32f4xx_hal_i2s_ex.c ****   }
 545:Drivers/STM32F4xx_HAL_Driver/Src/stm32f4xx_hal_i2s_ex.c **** 
ARM GAS  C:\Users\User\AppData\Local\Temp\ccqG9tqA.s 			page 11


 546:Drivers/STM32F4xx_HAL_Driver/Src/stm32f4xx_hal_i2s_ex.c ****   if ((pTxData == NULL) || (pRxData == NULL) || (Size == 0U))
 547:Drivers/STM32F4xx_HAL_Driver/Src/stm32f4xx_hal_i2s_ex.c ****   {
 548:Drivers/STM32F4xx_HAL_Driver/Src/stm32f4xx_hal_i2s_ex.c ****     return  HAL_ERROR;
 549:Drivers/STM32F4xx_HAL_Driver/Src/stm32f4xx_hal_i2s_ex.c ****   }
 550:Drivers/STM32F4xx_HAL_Driver/Src/stm32f4xx_hal_i2s_ex.c **** 
 551:Drivers/STM32F4xx_HAL_Driver/Src/stm32f4xx_hal_i2s_ex.c ****   /* Process Locked */
 552:Drivers/STM32F4xx_HAL_Driver/Src/stm32f4xx_hal_i2s_ex.c ****   __HAL_LOCK(hi2s);
 553:Drivers/STM32F4xx_HAL_Driver/Src/stm32f4xx_hal_i2s_ex.c **** 
 554:Drivers/STM32F4xx_HAL_Driver/Src/stm32f4xx_hal_i2s_ex.c ****   hi2s->pTxBuffPtr = pTxData;
 555:Drivers/STM32F4xx_HAL_Driver/Src/stm32f4xx_hal_i2s_ex.c ****   hi2s->pRxBuffPtr = pRxData;
 556:Drivers/STM32F4xx_HAL_Driver/Src/stm32f4xx_hal_i2s_ex.c **** 
 557:Drivers/STM32F4xx_HAL_Driver/Src/stm32f4xx_hal_i2s_ex.c ****   tmp1 = hi2s->Instance->I2SCFGR & (SPI_I2SCFGR_DATLEN | SPI_I2SCFGR_CHLEN);
 558:Drivers/STM32F4xx_HAL_Driver/Src/stm32f4xx_hal_i2s_ex.c ****   /* Check the Data format: When a 16-bit data frame or a 16-bit data frame extended
 559:Drivers/STM32F4xx_HAL_Driver/Src/stm32f4xx_hal_i2s_ex.c ****   is selected during the I2S configuration phase, the Size parameter means the number
 560:Drivers/STM32F4xx_HAL_Driver/Src/stm32f4xx_hal_i2s_ex.c ****   of 16-bit data length in the transaction and when a 24-bit data frame or a 32-bit data
 561:Drivers/STM32F4xx_HAL_Driver/Src/stm32f4xx_hal_i2s_ex.c ****   frame is selected the Size parameter means the number of 16-bit data length. */
 562:Drivers/STM32F4xx_HAL_Driver/Src/stm32f4xx_hal_i2s_ex.c ****   if ((tmp1 == I2S_DATAFORMAT_24B) || (tmp1 == I2S_DATAFORMAT_32B))
 563:Drivers/STM32F4xx_HAL_Driver/Src/stm32f4xx_hal_i2s_ex.c ****   {
 564:Drivers/STM32F4xx_HAL_Driver/Src/stm32f4xx_hal_i2s_ex.c ****     hi2s->TxXferSize  = (Size << 1U);
 565:Drivers/STM32F4xx_HAL_Driver/Src/stm32f4xx_hal_i2s_ex.c ****     hi2s->TxXferCount = (Size << 1U);
 566:Drivers/STM32F4xx_HAL_Driver/Src/stm32f4xx_hal_i2s_ex.c ****     hi2s->RxXferSize  = (Size << 1U);
 567:Drivers/STM32F4xx_HAL_Driver/Src/stm32f4xx_hal_i2s_ex.c ****     hi2s->RxXferCount = (Size << 1U);
 568:Drivers/STM32F4xx_HAL_Driver/Src/stm32f4xx_hal_i2s_ex.c ****   }
 569:Drivers/STM32F4xx_HAL_Driver/Src/stm32f4xx_hal_i2s_ex.c ****   else
 570:Drivers/STM32F4xx_HAL_Driver/Src/stm32f4xx_hal_i2s_ex.c ****   {
 571:Drivers/STM32F4xx_HAL_Driver/Src/stm32f4xx_hal_i2s_ex.c ****     hi2s->TxXferSize  = Size;
 572:Drivers/STM32F4xx_HAL_Driver/Src/stm32f4xx_hal_i2s_ex.c ****     hi2s->TxXferCount = Size;
 573:Drivers/STM32F4xx_HAL_Driver/Src/stm32f4xx_hal_i2s_ex.c ****     hi2s->RxXferSize  = Size;
 574:Drivers/STM32F4xx_HAL_Driver/Src/stm32f4xx_hal_i2s_ex.c ****     hi2s->RxXferCount = Size;
 575:Drivers/STM32F4xx_HAL_Driver/Src/stm32f4xx_hal_i2s_ex.c ****   }
 576:Drivers/STM32F4xx_HAL_Driver/Src/stm32f4xx_hal_i2s_ex.c **** 
 577:Drivers/STM32F4xx_HAL_Driver/Src/stm32f4xx_hal_i2s_ex.c ****   hi2s->ErrorCode = HAL_I2S_ERROR_NONE;
 578:Drivers/STM32F4xx_HAL_Driver/Src/stm32f4xx_hal_i2s_ex.c ****   hi2s->State     = HAL_I2S_STATE_BUSY_TX_RX;
 579:Drivers/STM32F4xx_HAL_Driver/Src/stm32f4xx_hal_i2s_ex.c **** 
 580:Drivers/STM32F4xx_HAL_Driver/Src/stm32f4xx_hal_i2s_ex.c ****   /* Set the I2S Rx DMA Half transfer complete callback */
 581:Drivers/STM32F4xx_HAL_Driver/Src/stm32f4xx_hal_i2s_ex.c ****   hi2s->hdmarx->XferHalfCpltCallback = I2SEx_TxRxDMAHalfCplt;
 582:Drivers/STM32F4xx_HAL_Driver/Src/stm32f4xx_hal_i2s_ex.c **** 
 583:Drivers/STM32F4xx_HAL_Driver/Src/stm32f4xx_hal_i2s_ex.c ****   /* Set the I2S Rx DMA transfer complete callback */
 584:Drivers/STM32F4xx_HAL_Driver/Src/stm32f4xx_hal_i2s_ex.c ****   hi2s->hdmarx->XferCpltCallback  = I2SEx_TxRxDMACplt;
 585:Drivers/STM32F4xx_HAL_Driver/Src/stm32f4xx_hal_i2s_ex.c **** 
 586:Drivers/STM32F4xx_HAL_Driver/Src/stm32f4xx_hal_i2s_ex.c ****   /* Set the I2S Rx DMA error callback */
 587:Drivers/STM32F4xx_HAL_Driver/Src/stm32f4xx_hal_i2s_ex.c ****   hi2s->hdmarx->XferErrorCallback = I2SEx_TxRxDMAError;
 588:Drivers/STM32F4xx_HAL_Driver/Src/stm32f4xx_hal_i2s_ex.c **** 
 589:Drivers/STM32F4xx_HAL_Driver/Src/stm32f4xx_hal_i2s_ex.c ****   /* Set the I2S Tx DMA Half transfer complete callback */
 590:Drivers/STM32F4xx_HAL_Driver/Src/stm32f4xx_hal_i2s_ex.c ****   hi2s->hdmatx->XferHalfCpltCallback  = I2SEx_TxRxDMAHalfCplt;
 591:Drivers/STM32F4xx_HAL_Driver/Src/stm32f4xx_hal_i2s_ex.c **** 
 592:Drivers/STM32F4xx_HAL_Driver/Src/stm32f4xx_hal_i2s_ex.c ****   /* Set the I2S Tx DMA transfer complete callback */
 593:Drivers/STM32F4xx_HAL_Driver/Src/stm32f4xx_hal_i2s_ex.c ****   hi2s->hdmatx->XferCpltCallback  = I2SEx_TxRxDMACplt;
 594:Drivers/STM32F4xx_HAL_Driver/Src/stm32f4xx_hal_i2s_ex.c **** 
 595:Drivers/STM32F4xx_HAL_Driver/Src/stm32f4xx_hal_i2s_ex.c ****   /* Set the I2S Tx DMA error callback */
 596:Drivers/STM32F4xx_HAL_Driver/Src/stm32f4xx_hal_i2s_ex.c ****   hi2s->hdmatx->XferErrorCallback = I2SEx_TxRxDMAError;
 597:Drivers/STM32F4xx_HAL_Driver/Src/stm32f4xx_hal_i2s_ex.c **** 
 598:Drivers/STM32F4xx_HAL_Driver/Src/stm32f4xx_hal_i2s_ex.c ****   tmp1 = hi2s->Instance->I2SCFGR & SPI_I2SCFGR_I2SCFG;
 599:Drivers/STM32F4xx_HAL_Driver/Src/stm32f4xx_hal_i2s_ex.c ****   /* Check if the I2S_MODE_MASTER_TX or I2S_MODE_SLAVE_TX Mode is selected */
 600:Drivers/STM32F4xx_HAL_Driver/Src/stm32f4xx_hal_i2s_ex.c ****   if ((tmp1 == I2S_MODE_MASTER_TX) || (tmp1 == I2S_MODE_SLAVE_TX))
 601:Drivers/STM32F4xx_HAL_Driver/Src/stm32f4xx_hal_i2s_ex.c ****   {
 602:Drivers/STM32F4xx_HAL_Driver/Src/stm32f4xx_hal_i2s_ex.c ****     /* Enable the Rx DMA Stream */
ARM GAS  C:\Users\User\AppData\Local\Temp\ccqG9tqA.s 			page 12


 603:Drivers/STM32F4xx_HAL_Driver/Src/stm32f4xx_hal_i2s_ex.c ****     tmp = (uint32_t *)&pRxData;
 604:Drivers/STM32F4xx_HAL_Driver/Src/stm32f4xx_hal_i2s_ex.c ****     HAL_DMA_Start_IT(hi2s->hdmarx, (uint32_t)&I2SxEXT(hi2s->Instance)->DR, *(uint32_t *)tmp, hi2s->
 605:Drivers/STM32F4xx_HAL_Driver/Src/stm32f4xx_hal_i2s_ex.c **** 
 606:Drivers/STM32F4xx_HAL_Driver/Src/stm32f4xx_hal_i2s_ex.c ****     /* Enable Rx DMA Request */
 607:Drivers/STM32F4xx_HAL_Driver/Src/stm32f4xx_hal_i2s_ex.c ****     SET_BIT(I2SxEXT(hi2s->Instance)->CR2, SPI_CR2_RXDMAEN);
 608:Drivers/STM32F4xx_HAL_Driver/Src/stm32f4xx_hal_i2s_ex.c **** 
 609:Drivers/STM32F4xx_HAL_Driver/Src/stm32f4xx_hal_i2s_ex.c ****     /* Enable the Tx DMA Stream */
 610:Drivers/STM32F4xx_HAL_Driver/Src/stm32f4xx_hal_i2s_ex.c ****     tmp = (uint32_t *)&pTxData;
 611:Drivers/STM32F4xx_HAL_Driver/Src/stm32f4xx_hal_i2s_ex.c ****     HAL_DMA_Start_IT(hi2s->hdmatx, *(uint32_t *)tmp, (uint32_t)&hi2s->Instance->DR, hi2s->TxXferSiz
 612:Drivers/STM32F4xx_HAL_Driver/Src/stm32f4xx_hal_i2s_ex.c **** 
 613:Drivers/STM32F4xx_HAL_Driver/Src/stm32f4xx_hal_i2s_ex.c ****     /* Enable Tx DMA Request */
 614:Drivers/STM32F4xx_HAL_Driver/Src/stm32f4xx_hal_i2s_ex.c ****     SET_BIT(hi2s->Instance->CR2, SPI_CR2_TXDMAEN);
 615:Drivers/STM32F4xx_HAL_Driver/Src/stm32f4xx_hal_i2s_ex.c **** 
 616:Drivers/STM32F4xx_HAL_Driver/Src/stm32f4xx_hal_i2s_ex.c ****     /* Check if the I2S is already enabled */
 617:Drivers/STM32F4xx_HAL_Driver/Src/stm32f4xx_hal_i2s_ex.c ****     if ((hi2s->Instance->I2SCFGR & SPI_I2SCFGR_I2SE) != SPI_I2SCFGR_I2SE)
 618:Drivers/STM32F4xx_HAL_Driver/Src/stm32f4xx_hal_i2s_ex.c ****     {
 619:Drivers/STM32F4xx_HAL_Driver/Src/stm32f4xx_hal_i2s_ex.c ****       /* Enable I2Sext(receiver) before enabling I2Sx peripheral */
 620:Drivers/STM32F4xx_HAL_Driver/Src/stm32f4xx_hal_i2s_ex.c ****       __HAL_I2SEXT_ENABLE(hi2s);
 621:Drivers/STM32F4xx_HAL_Driver/Src/stm32f4xx_hal_i2s_ex.c **** 
 622:Drivers/STM32F4xx_HAL_Driver/Src/stm32f4xx_hal_i2s_ex.c ****       /* Enable I2S peripheral after the I2Sext */
 623:Drivers/STM32F4xx_HAL_Driver/Src/stm32f4xx_hal_i2s_ex.c ****       __HAL_I2S_ENABLE(hi2s);
 624:Drivers/STM32F4xx_HAL_Driver/Src/stm32f4xx_hal_i2s_ex.c ****     }
 625:Drivers/STM32F4xx_HAL_Driver/Src/stm32f4xx_hal_i2s_ex.c ****   }
 626:Drivers/STM32F4xx_HAL_Driver/Src/stm32f4xx_hal_i2s_ex.c ****   else
 627:Drivers/STM32F4xx_HAL_Driver/Src/stm32f4xx_hal_i2s_ex.c ****   {
 628:Drivers/STM32F4xx_HAL_Driver/Src/stm32f4xx_hal_i2s_ex.c ****     /* Check if Master Receiver mode is selected */
 629:Drivers/STM32F4xx_HAL_Driver/Src/stm32f4xx_hal_i2s_ex.c ****     if ((hi2s->Instance->I2SCFGR & SPI_I2SCFGR_I2SCFG) == I2S_MODE_MASTER_RX)
 630:Drivers/STM32F4xx_HAL_Driver/Src/stm32f4xx_hal_i2s_ex.c ****     {
 631:Drivers/STM32F4xx_HAL_Driver/Src/stm32f4xx_hal_i2s_ex.c ****       /* Clear the Overrun Flag by a read operation on the SPI_DR register followed by a read
 632:Drivers/STM32F4xx_HAL_Driver/Src/stm32f4xx_hal_i2s_ex.c ****       access to the SPI_SR register. */
 633:Drivers/STM32F4xx_HAL_Driver/Src/stm32f4xx_hal_i2s_ex.c ****       __HAL_I2S_CLEAR_OVRFLAG(hi2s);
 634:Drivers/STM32F4xx_HAL_Driver/Src/stm32f4xx_hal_i2s_ex.c ****     }
 635:Drivers/STM32F4xx_HAL_Driver/Src/stm32f4xx_hal_i2s_ex.c ****     /* Enable the Tx DMA Stream */
 636:Drivers/STM32F4xx_HAL_Driver/Src/stm32f4xx_hal_i2s_ex.c ****     tmp = (uint32_t *)&pTxData;
 637:Drivers/STM32F4xx_HAL_Driver/Src/stm32f4xx_hal_i2s_ex.c ****     HAL_DMA_Start_IT(hi2s->hdmatx, *(uint32_t *)tmp, (uint32_t)&I2SxEXT(hi2s->Instance)->DR, hi2s->
 638:Drivers/STM32F4xx_HAL_Driver/Src/stm32f4xx_hal_i2s_ex.c **** 
 639:Drivers/STM32F4xx_HAL_Driver/Src/stm32f4xx_hal_i2s_ex.c ****     /* Enable Tx DMA Request */
 640:Drivers/STM32F4xx_HAL_Driver/Src/stm32f4xx_hal_i2s_ex.c ****     SET_BIT(I2SxEXT(hi2s->Instance)->CR2, SPI_CR2_TXDMAEN);
 641:Drivers/STM32F4xx_HAL_Driver/Src/stm32f4xx_hal_i2s_ex.c **** 
 642:Drivers/STM32F4xx_HAL_Driver/Src/stm32f4xx_hal_i2s_ex.c ****     /* Enable the Rx DMA Stream */
 643:Drivers/STM32F4xx_HAL_Driver/Src/stm32f4xx_hal_i2s_ex.c ****     tmp = (uint32_t *)&pRxData;
 644:Drivers/STM32F4xx_HAL_Driver/Src/stm32f4xx_hal_i2s_ex.c ****     HAL_DMA_Start_IT(hi2s->hdmarx, (uint32_t)&hi2s->Instance->DR, *(uint32_t *)tmp, hi2s->RxXferSiz
 645:Drivers/STM32F4xx_HAL_Driver/Src/stm32f4xx_hal_i2s_ex.c **** 
 646:Drivers/STM32F4xx_HAL_Driver/Src/stm32f4xx_hal_i2s_ex.c ****     /* Enable Rx DMA Request */
 647:Drivers/STM32F4xx_HAL_Driver/Src/stm32f4xx_hal_i2s_ex.c ****     SET_BIT(hi2s->Instance->CR2, SPI_CR2_RXDMAEN);
 648:Drivers/STM32F4xx_HAL_Driver/Src/stm32f4xx_hal_i2s_ex.c **** 
 649:Drivers/STM32F4xx_HAL_Driver/Src/stm32f4xx_hal_i2s_ex.c ****     /* Check if the I2S is already enabled */
 650:Drivers/STM32F4xx_HAL_Driver/Src/stm32f4xx_hal_i2s_ex.c ****     if ((hi2s->Instance->I2SCFGR & SPI_I2SCFGR_I2SE) != SPI_I2SCFGR_I2SE)
 651:Drivers/STM32F4xx_HAL_Driver/Src/stm32f4xx_hal_i2s_ex.c ****     {
 652:Drivers/STM32F4xx_HAL_Driver/Src/stm32f4xx_hal_i2s_ex.c ****       /* Enable I2Sext(transmitter) before enabling I2Sx peripheral */
 653:Drivers/STM32F4xx_HAL_Driver/Src/stm32f4xx_hal_i2s_ex.c ****       __HAL_I2SEXT_ENABLE(hi2s);
 654:Drivers/STM32F4xx_HAL_Driver/Src/stm32f4xx_hal_i2s_ex.c ****       /* Enable I2S peripheral before the I2Sext */
 655:Drivers/STM32F4xx_HAL_Driver/Src/stm32f4xx_hal_i2s_ex.c ****       __HAL_I2S_ENABLE(hi2s);
 656:Drivers/STM32F4xx_HAL_Driver/Src/stm32f4xx_hal_i2s_ex.c ****     }
 657:Drivers/STM32F4xx_HAL_Driver/Src/stm32f4xx_hal_i2s_ex.c ****   }
 658:Drivers/STM32F4xx_HAL_Driver/Src/stm32f4xx_hal_i2s_ex.c **** 
 659:Drivers/STM32F4xx_HAL_Driver/Src/stm32f4xx_hal_i2s_ex.c **** error :
ARM GAS  C:\Users\User\AppData\Local\Temp\ccqG9tqA.s 			page 13


 660:Drivers/STM32F4xx_HAL_Driver/Src/stm32f4xx_hal_i2s_ex.c ****   __HAL_UNLOCK(hi2s);
 661:Drivers/STM32F4xx_HAL_Driver/Src/stm32f4xx_hal_i2s_ex.c ****   return errorcode;
 662:Drivers/STM32F4xx_HAL_Driver/Src/stm32f4xx_hal_i2s_ex.c **** }
 663:Drivers/STM32F4xx_HAL_Driver/Src/stm32f4xx_hal_i2s_ex.c **** 
 664:Drivers/STM32F4xx_HAL_Driver/Src/stm32f4xx_hal_i2s_ex.c **** /**
 665:Drivers/STM32F4xx_HAL_Driver/Src/stm32f4xx_hal_i2s_ex.c ****   * @brief  This function handles I2S/I2Sext interrupt requests in full-duplex mode.
 666:Drivers/STM32F4xx_HAL_Driver/Src/stm32f4xx_hal_i2s_ex.c ****   * @param  hi2s I2S handle
 667:Drivers/STM32F4xx_HAL_Driver/Src/stm32f4xx_hal_i2s_ex.c ****   * @retval HAL status
 668:Drivers/STM32F4xx_HAL_Driver/Src/stm32f4xx_hal_i2s_ex.c ****   */
 669:Drivers/STM32F4xx_HAL_Driver/Src/stm32f4xx_hal_i2s_ex.c **** void HAL_I2SEx_FullDuplex_IRQHandler(I2S_HandleTypeDef *hi2s)
 670:Drivers/STM32F4xx_HAL_Driver/Src/stm32f4xx_hal_i2s_ex.c **** {
 671:Drivers/STM32F4xx_HAL_Driver/Src/stm32f4xx_hal_i2s_ex.c ****   __IO uint32_t i2ssr     = hi2s->Instance->SR;
 672:Drivers/STM32F4xx_HAL_Driver/Src/stm32f4xx_hal_i2s_ex.c ****   __IO uint32_t i2sextsr  = I2SxEXT(hi2s->Instance)->SR;
 673:Drivers/STM32F4xx_HAL_Driver/Src/stm32f4xx_hal_i2s_ex.c ****   __IO uint32_t i2scr2    = hi2s->Instance->CR2;
 674:Drivers/STM32F4xx_HAL_Driver/Src/stm32f4xx_hal_i2s_ex.c ****   __IO uint32_t i2sextcr2 = I2SxEXT(hi2s->Instance)->CR2;
 675:Drivers/STM32F4xx_HAL_Driver/Src/stm32f4xx_hal_i2s_ex.c **** 
 676:Drivers/STM32F4xx_HAL_Driver/Src/stm32f4xx_hal_i2s_ex.c ****   /* Check if the I2S_MODE_MASTER_TX or I2S_MODE_SLAVE_TX Mode is selected */
 677:Drivers/STM32F4xx_HAL_Driver/Src/stm32f4xx_hal_i2s_ex.c ****   if ((hi2s->Init.Mode == I2S_MODE_MASTER_TX) || (hi2s->Init.Mode == I2S_MODE_SLAVE_TX))
 678:Drivers/STM32F4xx_HAL_Driver/Src/stm32f4xx_hal_i2s_ex.c ****   {
 679:Drivers/STM32F4xx_HAL_Driver/Src/stm32f4xx_hal_i2s_ex.c ****     /* I2S in mode Transmitter -------------------------------------------------*/
 680:Drivers/STM32F4xx_HAL_Driver/Src/stm32f4xx_hal_i2s_ex.c ****     if (((i2ssr & I2S_FLAG_TXE) == I2S_FLAG_TXE) && ((i2scr2 & I2S_IT_TXE) != RESET))
 681:Drivers/STM32F4xx_HAL_Driver/Src/stm32f4xx_hal_i2s_ex.c ****     {
 682:Drivers/STM32F4xx_HAL_Driver/Src/stm32f4xx_hal_i2s_ex.c ****       /* When the I2S mode is configured as I2S_MODE_MASTER_TX or I2S_MODE_SLAVE_TX,
 683:Drivers/STM32F4xx_HAL_Driver/Src/stm32f4xx_hal_i2s_ex.c ****       the I2S TXE interrupt will be generated to manage the full-duplex transmit phase. */
 684:Drivers/STM32F4xx_HAL_Driver/Src/stm32f4xx_hal_i2s_ex.c ****       I2SEx_TxISR_I2S(hi2s);
 685:Drivers/STM32F4xx_HAL_Driver/Src/stm32f4xx_hal_i2s_ex.c ****     }
 686:Drivers/STM32F4xx_HAL_Driver/Src/stm32f4xx_hal_i2s_ex.c **** 
 687:Drivers/STM32F4xx_HAL_Driver/Src/stm32f4xx_hal_i2s_ex.c ****     /* I2Sext in mode Receiver -----------------------------------------------*/
 688:Drivers/STM32F4xx_HAL_Driver/Src/stm32f4xx_hal_i2s_ex.c ****     if (((i2sextsr & I2S_FLAG_RXNE) == I2S_FLAG_RXNE) && ((i2sextcr2 & I2S_IT_RXNE) != RESET))
 689:Drivers/STM32F4xx_HAL_Driver/Src/stm32f4xx_hal_i2s_ex.c ****     {
 690:Drivers/STM32F4xx_HAL_Driver/Src/stm32f4xx_hal_i2s_ex.c ****       /* When the I2S mode is configured as I2S_MODE_MASTER_TX or I2S_MODE_SLAVE_TX,
 691:Drivers/STM32F4xx_HAL_Driver/Src/stm32f4xx_hal_i2s_ex.c ****       the I2Sext RXNE interrupt will be generated to manage the full-duplex receive phase. */
 692:Drivers/STM32F4xx_HAL_Driver/Src/stm32f4xx_hal_i2s_ex.c ****       I2SEx_RxISR_I2SExt(hi2s);
 693:Drivers/STM32F4xx_HAL_Driver/Src/stm32f4xx_hal_i2s_ex.c ****     }
 694:Drivers/STM32F4xx_HAL_Driver/Src/stm32f4xx_hal_i2s_ex.c **** 
 695:Drivers/STM32F4xx_HAL_Driver/Src/stm32f4xx_hal_i2s_ex.c ****     /* I2Sext Overrun error interrupt occurred --------------------------------*/
 696:Drivers/STM32F4xx_HAL_Driver/Src/stm32f4xx_hal_i2s_ex.c ****     if (((i2sextsr & I2S_FLAG_OVR) == I2S_FLAG_OVR) && ((i2sextcr2 & I2S_IT_ERR) != RESET))
 697:Drivers/STM32F4xx_HAL_Driver/Src/stm32f4xx_hal_i2s_ex.c ****     {
 698:Drivers/STM32F4xx_HAL_Driver/Src/stm32f4xx_hal_i2s_ex.c ****       /* Disable RXNE and ERR interrupt */
 699:Drivers/STM32F4xx_HAL_Driver/Src/stm32f4xx_hal_i2s_ex.c ****       __HAL_I2SEXT_DISABLE_IT(hi2s, (I2S_IT_RXNE | I2S_IT_ERR));
 700:Drivers/STM32F4xx_HAL_Driver/Src/stm32f4xx_hal_i2s_ex.c **** 
 701:Drivers/STM32F4xx_HAL_Driver/Src/stm32f4xx_hal_i2s_ex.c ****       /* Disable TXE and ERR interrupt */
 702:Drivers/STM32F4xx_HAL_Driver/Src/stm32f4xx_hal_i2s_ex.c ****       __HAL_I2S_DISABLE_IT(hi2s, (I2S_IT_TXE | I2S_IT_ERR));
 703:Drivers/STM32F4xx_HAL_Driver/Src/stm32f4xx_hal_i2s_ex.c **** 
 704:Drivers/STM32F4xx_HAL_Driver/Src/stm32f4xx_hal_i2s_ex.c ****       /* Clear Overrun flag */
 705:Drivers/STM32F4xx_HAL_Driver/Src/stm32f4xx_hal_i2s_ex.c ****       __HAL_I2S_CLEAR_OVRFLAG(hi2s);
 706:Drivers/STM32F4xx_HAL_Driver/Src/stm32f4xx_hal_i2s_ex.c **** 
 707:Drivers/STM32F4xx_HAL_Driver/Src/stm32f4xx_hal_i2s_ex.c ****       /* Set the I2S State ready */
 708:Drivers/STM32F4xx_HAL_Driver/Src/stm32f4xx_hal_i2s_ex.c ****       hi2s->State = HAL_I2S_STATE_READY;
 709:Drivers/STM32F4xx_HAL_Driver/Src/stm32f4xx_hal_i2s_ex.c **** 
 710:Drivers/STM32F4xx_HAL_Driver/Src/stm32f4xx_hal_i2s_ex.c ****       /* Set the error code and execute error callback*/
 711:Drivers/STM32F4xx_HAL_Driver/Src/stm32f4xx_hal_i2s_ex.c ****       SET_BIT(hi2s->ErrorCode, HAL_I2S_ERROR_OVR);
 712:Drivers/STM32F4xx_HAL_Driver/Src/stm32f4xx_hal_i2s_ex.c ****       /* Call user error callback */
 713:Drivers/STM32F4xx_HAL_Driver/Src/stm32f4xx_hal_i2s_ex.c **** #if (USE_HAL_I2S_REGISTER_CALLBACKS == 1U)
 714:Drivers/STM32F4xx_HAL_Driver/Src/stm32f4xx_hal_i2s_ex.c ****       hi2s->ErrorCallback(hi2s);
 715:Drivers/STM32F4xx_HAL_Driver/Src/stm32f4xx_hal_i2s_ex.c **** #else
 716:Drivers/STM32F4xx_HAL_Driver/Src/stm32f4xx_hal_i2s_ex.c ****       HAL_I2S_ErrorCallback(hi2s);
ARM GAS  C:\Users\User\AppData\Local\Temp\ccqG9tqA.s 			page 14


 717:Drivers/STM32F4xx_HAL_Driver/Src/stm32f4xx_hal_i2s_ex.c **** #endif /* USE_HAL_I2S_REGISTER_CALLBACKS */
 718:Drivers/STM32F4xx_HAL_Driver/Src/stm32f4xx_hal_i2s_ex.c ****     }
 719:Drivers/STM32F4xx_HAL_Driver/Src/stm32f4xx_hal_i2s_ex.c **** 
 720:Drivers/STM32F4xx_HAL_Driver/Src/stm32f4xx_hal_i2s_ex.c ****     /* I2S Underrun error interrupt occurred ----------------------------------*/
 721:Drivers/STM32F4xx_HAL_Driver/Src/stm32f4xx_hal_i2s_ex.c ****     if (((i2ssr & I2S_FLAG_UDR) == I2S_FLAG_UDR) && ((i2scr2 & I2S_IT_ERR) != RESET))
 722:Drivers/STM32F4xx_HAL_Driver/Src/stm32f4xx_hal_i2s_ex.c ****     {
 723:Drivers/STM32F4xx_HAL_Driver/Src/stm32f4xx_hal_i2s_ex.c ****       /* Disable TXE and ERR interrupt */
 724:Drivers/STM32F4xx_HAL_Driver/Src/stm32f4xx_hal_i2s_ex.c ****       __HAL_I2S_DISABLE_IT(hi2s, (I2S_IT_TXE | I2S_IT_ERR));
 725:Drivers/STM32F4xx_HAL_Driver/Src/stm32f4xx_hal_i2s_ex.c **** 
 726:Drivers/STM32F4xx_HAL_Driver/Src/stm32f4xx_hal_i2s_ex.c ****       /* Disable RXNE and ERR interrupt */
 727:Drivers/STM32F4xx_HAL_Driver/Src/stm32f4xx_hal_i2s_ex.c ****       __HAL_I2SEXT_DISABLE_IT(hi2s, (I2S_IT_RXNE | I2S_IT_ERR));
 728:Drivers/STM32F4xx_HAL_Driver/Src/stm32f4xx_hal_i2s_ex.c **** 
 729:Drivers/STM32F4xx_HAL_Driver/Src/stm32f4xx_hal_i2s_ex.c ****       /* Clear underrun flag */
 730:Drivers/STM32F4xx_HAL_Driver/Src/stm32f4xx_hal_i2s_ex.c ****       __HAL_I2S_CLEAR_UDRFLAG(hi2s);
 731:Drivers/STM32F4xx_HAL_Driver/Src/stm32f4xx_hal_i2s_ex.c **** 
 732:Drivers/STM32F4xx_HAL_Driver/Src/stm32f4xx_hal_i2s_ex.c ****       /* Set the I2S State ready */
 733:Drivers/STM32F4xx_HAL_Driver/Src/stm32f4xx_hal_i2s_ex.c ****       hi2s->State = HAL_I2S_STATE_READY;
 734:Drivers/STM32F4xx_HAL_Driver/Src/stm32f4xx_hal_i2s_ex.c **** 
 735:Drivers/STM32F4xx_HAL_Driver/Src/stm32f4xx_hal_i2s_ex.c ****       /* Set the error code and execute error callback*/
 736:Drivers/STM32F4xx_HAL_Driver/Src/stm32f4xx_hal_i2s_ex.c ****       SET_BIT(hi2s->ErrorCode, HAL_I2S_ERROR_UDR);
 737:Drivers/STM32F4xx_HAL_Driver/Src/stm32f4xx_hal_i2s_ex.c ****       /* Call user error callback */
 738:Drivers/STM32F4xx_HAL_Driver/Src/stm32f4xx_hal_i2s_ex.c **** #if (USE_HAL_I2S_REGISTER_CALLBACKS == 1U)
 739:Drivers/STM32F4xx_HAL_Driver/Src/stm32f4xx_hal_i2s_ex.c ****       hi2s->ErrorCallback(hi2s);
 740:Drivers/STM32F4xx_HAL_Driver/Src/stm32f4xx_hal_i2s_ex.c **** #else
 741:Drivers/STM32F4xx_HAL_Driver/Src/stm32f4xx_hal_i2s_ex.c ****       HAL_I2S_ErrorCallback(hi2s);
 742:Drivers/STM32F4xx_HAL_Driver/Src/stm32f4xx_hal_i2s_ex.c **** #endif /* USE_HAL_I2S_REGISTER_CALLBACKS */
 743:Drivers/STM32F4xx_HAL_Driver/Src/stm32f4xx_hal_i2s_ex.c ****     }
 744:Drivers/STM32F4xx_HAL_Driver/Src/stm32f4xx_hal_i2s_ex.c ****   }
 745:Drivers/STM32F4xx_HAL_Driver/Src/stm32f4xx_hal_i2s_ex.c ****   /* The I2S_MODE_MASTER_RX or I2S_MODE_SLAVE_RX Mode is selected */
 746:Drivers/STM32F4xx_HAL_Driver/Src/stm32f4xx_hal_i2s_ex.c ****   else
 747:Drivers/STM32F4xx_HAL_Driver/Src/stm32f4xx_hal_i2s_ex.c ****   {
 748:Drivers/STM32F4xx_HAL_Driver/Src/stm32f4xx_hal_i2s_ex.c ****     /* I2Sext in mode Transmitter ----------------------------------------------*/
 749:Drivers/STM32F4xx_HAL_Driver/Src/stm32f4xx_hal_i2s_ex.c ****     if (((i2sextsr & I2S_FLAG_TXE) == I2S_FLAG_TXE) && ((i2sextcr2 & I2S_IT_TXE) != RESET))
 750:Drivers/STM32F4xx_HAL_Driver/Src/stm32f4xx_hal_i2s_ex.c ****     {
 751:Drivers/STM32F4xx_HAL_Driver/Src/stm32f4xx_hal_i2s_ex.c ****       /* When the I2S mode is configured as I2S_MODE_MASTER_RX or I2S_MODE_SLAVE_RX,
 752:Drivers/STM32F4xx_HAL_Driver/Src/stm32f4xx_hal_i2s_ex.c ****       the I2Sext TXE interrupt will be generated to manage the full-duplex transmit phase. */
 753:Drivers/STM32F4xx_HAL_Driver/Src/stm32f4xx_hal_i2s_ex.c ****       I2SEx_TxISR_I2SExt(hi2s);
 754:Drivers/STM32F4xx_HAL_Driver/Src/stm32f4xx_hal_i2s_ex.c ****     }
 755:Drivers/STM32F4xx_HAL_Driver/Src/stm32f4xx_hal_i2s_ex.c **** 
 756:Drivers/STM32F4xx_HAL_Driver/Src/stm32f4xx_hal_i2s_ex.c ****     /* I2S in mode Receiver --------------------------------------------------*/
 757:Drivers/STM32F4xx_HAL_Driver/Src/stm32f4xx_hal_i2s_ex.c ****     if (((i2ssr & I2S_FLAG_RXNE) == I2S_FLAG_RXNE) && ((i2scr2 & I2S_IT_RXNE) != RESET))
 758:Drivers/STM32F4xx_HAL_Driver/Src/stm32f4xx_hal_i2s_ex.c ****     {
 759:Drivers/STM32F4xx_HAL_Driver/Src/stm32f4xx_hal_i2s_ex.c ****       /* When the I2S mode is configured as I2S_MODE_MASTER_RX or I2S_MODE_SLAVE_RX,
 760:Drivers/STM32F4xx_HAL_Driver/Src/stm32f4xx_hal_i2s_ex.c ****       the I2S RXNE interrupt will be generated to manage the full-duplex receive phase. */
 761:Drivers/STM32F4xx_HAL_Driver/Src/stm32f4xx_hal_i2s_ex.c ****       I2SEx_RxISR_I2S(hi2s);
 762:Drivers/STM32F4xx_HAL_Driver/Src/stm32f4xx_hal_i2s_ex.c ****     }
 763:Drivers/STM32F4xx_HAL_Driver/Src/stm32f4xx_hal_i2s_ex.c **** 
 764:Drivers/STM32F4xx_HAL_Driver/Src/stm32f4xx_hal_i2s_ex.c ****     /* I2S Overrun error interrupt occurred -------------------------------------*/
 765:Drivers/STM32F4xx_HAL_Driver/Src/stm32f4xx_hal_i2s_ex.c ****     if (((i2ssr & I2S_FLAG_OVR) == I2S_FLAG_OVR) && ((i2scr2 & I2S_IT_ERR) != RESET))
 766:Drivers/STM32F4xx_HAL_Driver/Src/stm32f4xx_hal_i2s_ex.c ****     {
 767:Drivers/STM32F4xx_HAL_Driver/Src/stm32f4xx_hal_i2s_ex.c ****       /* Disable RXNE and ERR interrupt */
 768:Drivers/STM32F4xx_HAL_Driver/Src/stm32f4xx_hal_i2s_ex.c ****       __HAL_I2S_DISABLE_IT(hi2s, (I2S_IT_RXNE | I2S_IT_ERR));
 769:Drivers/STM32F4xx_HAL_Driver/Src/stm32f4xx_hal_i2s_ex.c **** 
 770:Drivers/STM32F4xx_HAL_Driver/Src/stm32f4xx_hal_i2s_ex.c ****       /* Disable TXE and ERR interrupt */
 771:Drivers/STM32F4xx_HAL_Driver/Src/stm32f4xx_hal_i2s_ex.c ****       __HAL_I2SEXT_DISABLE_IT(hi2s, (I2S_IT_TXE | I2S_IT_ERR));
 772:Drivers/STM32F4xx_HAL_Driver/Src/stm32f4xx_hal_i2s_ex.c **** 
 773:Drivers/STM32F4xx_HAL_Driver/Src/stm32f4xx_hal_i2s_ex.c ****       /* Set the I2S State ready */
ARM GAS  C:\Users\User\AppData\Local\Temp\ccqG9tqA.s 			page 15


 774:Drivers/STM32F4xx_HAL_Driver/Src/stm32f4xx_hal_i2s_ex.c ****       hi2s->State = HAL_I2S_STATE_READY;
 775:Drivers/STM32F4xx_HAL_Driver/Src/stm32f4xx_hal_i2s_ex.c **** 
 776:Drivers/STM32F4xx_HAL_Driver/Src/stm32f4xx_hal_i2s_ex.c ****       /* Set the error code and execute error callback*/
 777:Drivers/STM32F4xx_HAL_Driver/Src/stm32f4xx_hal_i2s_ex.c ****       SET_BIT(hi2s->ErrorCode, HAL_I2S_ERROR_OVR);
 778:Drivers/STM32F4xx_HAL_Driver/Src/stm32f4xx_hal_i2s_ex.c ****       /* Call user error callback */
 779:Drivers/STM32F4xx_HAL_Driver/Src/stm32f4xx_hal_i2s_ex.c **** #if (USE_HAL_I2S_REGISTER_CALLBACKS == 1U)
 780:Drivers/STM32F4xx_HAL_Driver/Src/stm32f4xx_hal_i2s_ex.c ****       hi2s->ErrorCallback(hi2s);
 781:Drivers/STM32F4xx_HAL_Driver/Src/stm32f4xx_hal_i2s_ex.c **** #else
 782:Drivers/STM32F4xx_HAL_Driver/Src/stm32f4xx_hal_i2s_ex.c ****       HAL_I2S_ErrorCallback(hi2s);
 783:Drivers/STM32F4xx_HAL_Driver/Src/stm32f4xx_hal_i2s_ex.c **** #endif /* USE_HAL_I2S_REGISTER_CALLBACKS */
 784:Drivers/STM32F4xx_HAL_Driver/Src/stm32f4xx_hal_i2s_ex.c ****     }
 785:Drivers/STM32F4xx_HAL_Driver/Src/stm32f4xx_hal_i2s_ex.c **** 
 786:Drivers/STM32F4xx_HAL_Driver/Src/stm32f4xx_hal_i2s_ex.c ****     /* I2Sext Underrun error interrupt occurred -------------------------------*/
 787:Drivers/STM32F4xx_HAL_Driver/Src/stm32f4xx_hal_i2s_ex.c ****     if (((i2sextsr & I2S_FLAG_UDR) == I2S_FLAG_UDR) && ((i2sextcr2 & I2S_IT_ERR) != RESET))
 788:Drivers/STM32F4xx_HAL_Driver/Src/stm32f4xx_hal_i2s_ex.c ****     {
 789:Drivers/STM32F4xx_HAL_Driver/Src/stm32f4xx_hal_i2s_ex.c ****       /* Disable TXE and ERR interrupt */
 790:Drivers/STM32F4xx_HAL_Driver/Src/stm32f4xx_hal_i2s_ex.c ****       __HAL_I2SEXT_DISABLE_IT(hi2s, (I2S_IT_TXE | I2S_IT_ERR));
 791:Drivers/STM32F4xx_HAL_Driver/Src/stm32f4xx_hal_i2s_ex.c **** 
 792:Drivers/STM32F4xx_HAL_Driver/Src/stm32f4xx_hal_i2s_ex.c ****       /* Disable RXNE and ERR interrupt */
 793:Drivers/STM32F4xx_HAL_Driver/Src/stm32f4xx_hal_i2s_ex.c ****       __HAL_I2S_DISABLE_IT(hi2s, (I2S_IT_RXNE | I2S_IT_ERR));
 794:Drivers/STM32F4xx_HAL_Driver/Src/stm32f4xx_hal_i2s_ex.c **** 
 795:Drivers/STM32F4xx_HAL_Driver/Src/stm32f4xx_hal_i2s_ex.c ****       /* Set the I2S State ready */
 796:Drivers/STM32F4xx_HAL_Driver/Src/stm32f4xx_hal_i2s_ex.c ****       hi2s->State = HAL_I2S_STATE_READY;
 797:Drivers/STM32F4xx_HAL_Driver/Src/stm32f4xx_hal_i2s_ex.c **** 
 798:Drivers/STM32F4xx_HAL_Driver/Src/stm32f4xx_hal_i2s_ex.c ****       /* Set the error code and execute error callback*/
 799:Drivers/STM32F4xx_HAL_Driver/Src/stm32f4xx_hal_i2s_ex.c ****       SET_BIT(hi2s->ErrorCode, HAL_I2S_ERROR_UDR);
 800:Drivers/STM32F4xx_HAL_Driver/Src/stm32f4xx_hal_i2s_ex.c ****       /* Call user error callback */
 801:Drivers/STM32F4xx_HAL_Driver/Src/stm32f4xx_hal_i2s_ex.c **** #if (USE_HAL_I2S_REGISTER_CALLBACKS == 1U)
 802:Drivers/STM32F4xx_HAL_Driver/Src/stm32f4xx_hal_i2s_ex.c ****       hi2s->ErrorCallback(hi2s);
 803:Drivers/STM32F4xx_HAL_Driver/Src/stm32f4xx_hal_i2s_ex.c **** #else
 804:Drivers/STM32F4xx_HAL_Driver/Src/stm32f4xx_hal_i2s_ex.c ****       HAL_I2S_ErrorCallback(hi2s);
 805:Drivers/STM32F4xx_HAL_Driver/Src/stm32f4xx_hal_i2s_ex.c **** #endif /* USE_HAL_I2S_REGISTER_CALLBACKS */
 806:Drivers/STM32F4xx_HAL_Driver/Src/stm32f4xx_hal_i2s_ex.c ****     }
 807:Drivers/STM32F4xx_HAL_Driver/Src/stm32f4xx_hal_i2s_ex.c ****   }
 808:Drivers/STM32F4xx_HAL_Driver/Src/stm32f4xx_hal_i2s_ex.c **** }
 809:Drivers/STM32F4xx_HAL_Driver/Src/stm32f4xx_hal_i2s_ex.c **** 
 810:Drivers/STM32F4xx_HAL_Driver/Src/stm32f4xx_hal_i2s_ex.c **** /**
 811:Drivers/STM32F4xx_HAL_Driver/Src/stm32f4xx_hal_i2s_ex.c ****   * @brief  Tx and Rx Transfer half completed callback
 812:Drivers/STM32F4xx_HAL_Driver/Src/stm32f4xx_hal_i2s_ex.c ****   * @param  hi2s I2S handle
 813:Drivers/STM32F4xx_HAL_Driver/Src/stm32f4xx_hal_i2s_ex.c ****   * @retval None
 814:Drivers/STM32F4xx_HAL_Driver/Src/stm32f4xx_hal_i2s_ex.c ****   */
 815:Drivers/STM32F4xx_HAL_Driver/Src/stm32f4xx_hal_i2s_ex.c **** __weak void HAL_I2SEx_TxRxHalfCpltCallback(I2S_HandleTypeDef *hi2s)
 816:Drivers/STM32F4xx_HAL_Driver/Src/stm32f4xx_hal_i2s_ex.c **** {
 817:Drivers/STM32F4xx_HAL_Driver/Src/stm32f4xx_hal_i2s_ex.c ****   /* Prevent unused argument(s) compilation warning */
 818:Drivers/STM32F4xx_HAL_Driver/Src/stm32f4xx_hal_i2s_ex.c ****   UNUSED(hi2s);
 819:Drivers/STM32F4xx_HAL_Driver/Src/stm32f4xx_hal_i2s_ex.c **** 
 820:Drivers/STM32F4xx_HAL_Driver/Src/stm32f4xx_hal_i2s_ex.c ****   /* NOTE : This function Should not be modified, when the callback is needed,
 821:Drivers/STM32F4xx_HAL_Driver/Src/stm32f4xx_hal_i2s_ex.c ****             the HAL_I2SEx_TxRxHalfCpltCallback could be implemented in the user file
 822:Drivers/STM32F4xx_HAL_Driver/Src/stm32f4xx_hal_i2s_ex.c ****    */
 823:Drivers/STM32F4xx_HAL_Driver/Src/stm32f4xx_hal_i2s_ex.c **** }
 824:Drivers/STM32F4xx_HAL_Driver/Src/stm32f4xx_hal_i2s_ex.c **** 
 825:Drivers/STM32F4xx_HAL_Driver/Src/stm32f4xx_hal_i2s_ex.c **** /**
 826:Drivers/STM32F4xx_HAL_Driver/Src/stm32f4xx_hal_i2s_ex.c ****   * @brief  Tx and Rx Transfer completed callback
 827:Drivers/STM32F4xx_HAL_Driver/Src/stm32f4xx_hal_i2s_ex.c ****   * @param  hi2s I2S handle
 828:Drivers/STM32F4xx_HAL_Driver/Src/stm32f4xx_hal_i2s_ex.c ****   * @retval None
 829:Drivers/STM32F4xx_HAL_Driver/Src/stm32f4xx_hal_i2s_ex.c ****   */
 830:Drivers/STM32F4xx_HAL_Driver/Src/stm32f4xx_hal_i2s_ex.c **** __weak void HAL_I2SEx_TxRxCpltCallback(I2S_HandleTypeDef *hi2s)
ARM GAS  C:\Users\User\AppData\Local\Temp\ccqG9tqA.s 			page 16


 831:Drivers/STM32F4xx_HAL_Driver/Src/stm32f4xx_hal_i2s_ex.c **** {
 832:Drivers/STM32F4xx_HAL_Driver/Src/stm32f4xx_hal_i2s_ex.c ****   /* Prevent unused argument(s) compilation warning */
 833:Drivers/STM32F4xx_HAL_Driver/Src/stm32f4xx_hal_i2s_ex.c ****   UNUSED(hi2s);
 834:Drivers/STM32F4xx_HAL_Driver/Src/stm32f4xx_hal_i2s_ex.c **** 
 835:Drivers/STM32F4xx_HAL_Driver/Src/stm32f4xx_hal_i2s_ex.c ****   /* NOTE : This function should not be modified, when the callback is needed,
 836:Drivers/STM32F4xx_HAL_Driver/Src/stm32f4xx_hal_i2s_ex.c ****             the HAL_I2SEx_TxRxCpltCallback could be implemented in the user file
 837:Drivers/STM32F4xx_HAL_Driver/Src/stm32f4xx_hal_i2s_ex.c ****    */
 838:Drivers/STM32F4xx_HAL_Driver/Src/stm32f4xx_hal_i2s_ex.c **** }
 839:Drivers/STM32F4xx_HAL_Driver/Src/stm32f4xx_hal_i2s_ex.c **** 
 840:Drivers/STM32F4xx_HAL_Driver/Src/stm32f4xx_hal_i2s_ex.c **** /**
 841:Drivers/STM32F4xx_HAL_Driver/Src/stm32f4xx_hal_i2s_ex.c ****   * @}
 842:Drivers/STM32F4xx_HAL_Driver/Src/stm32f4xx_hal_i2s_ex.c ****   */
 843:Drivers/STM32F4xx_HAL_Driver/Src/stm32f4xx_hal_i2s_ex.c **** 
 844:Drivers/STM32F4xx_HAL_Driver/Src/stm32f4xx_hal_i2s_ex.c **** /**
 845:Drivers/STM32F4xx_HAL_Driver/Src/stm32f4xx_hal_i2s_ex.c ****   * @}
 846:Drivers/STM32F4xx_HAL_Driver/Src/stm32f4xx_hal_i2s_ex.c ****   */
 847:Drivers/STM32F4xx_HAL_Driver/Src/stm32f4xx_hal_i2s_ex.c **** 
 848:Drivers/STM32F4xx_HAL_Driver/Src/stm32f4xx_hal_i2s_ex.c **** /** @addtogroup I2SEx_Private_Functions I2S Extended Private Functions
 849:Drivers/STM32F4xx_HAL_Driver/Src/stm32f4xx_hal_i2s_ex.c ****   * @{
 850:Drivers/STM32F4xx_HAL_Driver/Src/stm32f4xx_hal_i2s_ex.c ****   */
 851:Drivers/STM32F4xx_HAL_Driver/Src/stm32f4xx_hal_i2s_ex.c **** 
 852:Drivers/STM32F4xx_HAL_Driver/Src/stm32f4xx_hal_i2s_ex.c **** /**
 853:Drivers/STM32F4xx_HAL_Driver/Src/stm32f4xx_hal_i2s_ex.c ****   * @brief  DMA I2S transmit receive process half complete callback
 854:Drivers/STM32F4xx_HAL_Driver/Src/stm32f4xx_hal_i2s_ex.c ****   * @param  hdma pointer to a DMA_HandleTypeDef structure that contains
 855:Drivers/STM32F4xx_HAL_Driver/Src/stm32f4xx_hal_i2s_ex.c ****   *               the configuration information for the specified DMA module.
 856:Drivers/STM32F4xx_HAL_Driver/Src/stm32f4xx_hal_i2s_ex.c ****   * @retval None
 857:Drivers/STM32F4xx_HAL_Driver/Src/stm32f4xx_hal_i2s_ex.c ****   */
 858:Drivers/STM32F4xx_HAL_Driver/Src/stm32f4xx_hal_i2s_ex.c **** static void I2SEx_TxRxDMAHalfCplt(DMA_HandleTypeDef *hdma)
 859:Drivers/STM32F4xx_HAL_Driver/Src/stm32f4xx_hal_i2s_ex.c **** {
 860:Drivers/STM32F4xx_HAL_Driver/Src/stm32f4xx_hal_i2s_ex.c ****   I2S_HandleTypeDef *hi2s = (I2S_HandleTypeDef *)((DMA_HandleTypeDef *)hdma)->Parent;
 861:Drivers/STM32F4xx_HAL_Driver/Src/stm32f4xx_hal_i2s_ex.c **** 
 862:Drivers/STM32F4xx_HAL_Driver/Src/stm32f4xx_hal_i2s_ex.c ****   /* Call user TxRx Half complete callback */
 863:Drivers/STM32F4xx_HAL_Driver/Src/stm32f4xx_hal_i2s_ex.c **** #if (USE_HAL_I2S_REGISTER_CALLBACKS == 1U)
 864:Drivers/STM32F4xx_HAL_Driver/Src/stm32f4xx_hal_i2s_ex.c ****   hi2s->TxRxHalfCpltCallback(hi2s);
 865:Drivers/STM32F4xx_HAL_Driver/Src/stm32f4xx_hal_i2s_ex.c **** #else
 866:Drivers/STM32F4xx_HAL_Driver/Src/stm32f4xx_hal_i2s_ex.c ****   HAL_I2SEx_TxRxHalfCpltCallback(hi2s);
 867:Drivers/STM32F4xx_HAL_Driver/Src/stm32f4xx_hal_i2s_ex.c **** #endif /* USE_HAL_I2S_REGISTER_CALLBACKS */
 868:Drivers/STM32F4xx_HAL_Driver/Src/stm32f4xx_hal_i2s_ex.c **** }
 869:Drivers/STM32F4xx_HAL_Driver/Src/stm32f4xx_hal_i2s_ex.c **** 
 870:Drivers/STM32F4xx_HAL_Driver/Src/stm32f4xx_hal_i2s_ex.c **** /**
 871:Drivers/STM32F4xx_HAL_Driver/Src/stm32f4xx_hal_i2s_ex.c ****   * @brief  DMA I2S transmit receive process complete callback
 872:Drivers/STM32F4xx_HAL_Driver/Src/stm32f4xx_hal_i2s_ex.c ****   * @param  hdma pointer to a DMA_HandleTypeDef structure that contains
 873:Drivers/STM32F4xx_HAL_Driver/Src/stm32f4xx_hal_i2s_ex.c ****   *               the configuration information for the specified DMA module.
 874:Drivers/STM32F4xx_HAL_Driver/Src/stm32f4xx_hal_i2s_ex.c ****   * @retval None
 875:Drivers/STM32F4xx_HAL_Driver/Src/stm32f4xx_hal_i2s_ex.c ****   */
 876:Drivers/STM32F4xx_HAL_Driver/Src/stm32f4xx_hal_i2s_ex.c **** static void I2SEx_TxRxDMACplt(DMA_HandleTypeDef *hdma)
 877:Drivers/STM32F4xx_HAL_Driver/Src/stm32f4xx_hal_i2s_ex.c **** {
 878:Drivers/STM32F4xx_HAL_Driver/Src/stm32f4xx_hal_i2s_ex.c ****   I2S_HandleTypeDef *hi2s = (I2S_HandleTypeDef *)((DMA_HandleTypeDef *)hdma)->Parent;
 879:Drivers/STM32F4xx_HAL_Driver/Src/stm32f4xx_hal_i2s_ex.c **** 
 880:Drivers/STM32F4xx_HAL_Driver/Src/stm32f4xx_hal_i2s_ex.c ****   /* if DMA is configured in DMA_NORMAL mode */
 881:Drivers/STM32F4xx_HAL_Driver/Src/stm32f4xx_hal_i2s_ex.c ****   if (hdma->Init.Mode == DMA_NORMAL)
 882:Drivers/STM32F4xx_HAL_Driver/Src/stm32f4xx_hal_i2s_ex.c ****   {
 883:Drivers/STM32F4xx_HAL_Driver/Src/stm32f4xx_hal_i2s_ex.c ****     if (hi2s->hdmarx == hdma)
 884:Drivers/STM32F4xx_HAL_Driver/Src/stm32f4xx_hal_i2s_ex.c ****     {
 885:Drivers/STM32F4xx_HAL_Driver/Src/stm32f4xx_hal_i2s_ex.c ****       /* Disable Rx DMA Request */
 886:Drivers/STM32F4xx_HAL_Driver/Src/stm32f4xx_hal_i2s_ex.c ****       if (((hi2s->Instance->I2SCFGR & SPI_I2SCFGR_I2SCFG) == I2S_MODE_MASTER_TX) || \
 887:Drivers/STM32F4xx_HAL_Driver/Src/stm32f4xx_hal_i2s_ex.c ****           ((hi2s->Instance->I2SCFGR & SPI_I2SCFGR_I2SCFG) == I2S_MODE_SLAVE_TX))
ARM GAS  C:\Users\User\AppData\Local\Temp\ccqG9tqA.s 			page 17


 888:Drivers/STM32F4xx_HAL_Driver/Src/stm32f4xx_hal_i2s_ex.c ****       {
 889:Drivers/STM32F4xx_HAL_Driver/Src/stm32f4xx_hal_i2s_ex.c ****         CLEAR_BIT(I2SxEXT(hi2s->Instance)->CR2, SPI_CR2_RXDMAEN);
 890:Drivers/STM32F4xx_HAL_Driver/Src/stm32f4xx_hal_i2s_ex.c ****       }
 891:Drivers/STM32F4xx_HAL_Driver/Src/stm32f4xx_hal_i2s_ex.c ****       else
 892:Drivers/STM32F4xx_HAL_Driver/Src/stm32f4xx_hal_i2s_ex.c ****       {
 893:Drivers/STM32F4xx_HAL_Driver/Src/stm32f4xx_hal_i2s_ex.c ****         CLEAR_BIT(hi2s->Instance->CR2, SPI_CR2_RXDMAEN);
 894:Drivers/STM32F4xx_HAL_Driver/Src/stm32f4xx_hal_i2s_ex.c ****       }
 895:Drivers/STM32F4xx_HAL_Driver/Src/stm32f4xx_hal_i2s_ex.c **** 
 896:Drivers/STM32F4xx_HAL_Driver/Src/stm32f4xx_hal_i2s_ex.c ****       hi2s->RxXferCount = 0U;
 897:Drivers/STM32F4xx_HAL_Driver/Src/stm32f4xx_hal_i2s_ex.c **** 
 898:Drivers/STM32F4xx_HAL_Driver/Src/stm32f4xx_hal_i2s_ex.c ****       if (hi2s->TxXferCount == 0U)
 899:Drivers/STM32F4xx_HAL_Driver/Src/stm32f4xx_hal_i2s_ex.c ****       {
 900:Drivers/STM32F4xx_HAL_Driver/Src/stm32f4xx_hal_i2s_ex.c ****         hi2s->State = HAL_I2S_STATE_READY;
 901:Drivers/STM32F4xx_HAL_Driver/Src/stm32f4xx_hal_i2s_ex.c **** 
 902:Drivers/STM32F4xx_HAL_Driver/Src/stm32f4xx_hal_i2s_ex.c ****         /* Call user TxRx complete callback */
 903:Drivers/STM32F4xx_HAL_Driver/Src/stm32f4xx_hal_i2s_ex.c **** #if (USE_HAL_I2S_REGISTER_CALLBACKS == 1U)
 904:Drivers/STM32F4xx_HAL_Driver/Src/stm32f4xx_hal_i2s_ex.c ****         hi2s->TxRxCpltCallback(hi2s);
 905:Drivers/STM32F4xx_HAL_Driver/Src/stm32f4xx_hal_i2s_ex.c **** #else
 906:Drivers/STM32F4xx_HAL_Driver/Src/stm32f4xx_hal_i2s_ex.c ****         HAL_I2SEx_TxRxCpltCallback(hi2s);
 907:Drivers/STM32F4xx_HAL_Driver/Src/stm32f4xx_hal_i2s_ex.c **** #endif /* USE_HAL_I2S_REGISTER_CALLBACKS */
 908:Drivers/STM32F4xx_HAL_Driver/Src/stm32f4xx_hal_i2s_ex.c ****       }
 909:Drivers/STM32F4xx_HAL_Driver/Src/stm32f4xx_hal_i2s_ex.c ****     }
 910:Drivers/STM32F4xx_HAL_Driver/Src/stm32f4xx_hal_i2s_ex.c **** 
 911:Drivers/STM32F4xx_HAL_Driver/Src/stm32f4xx_hal_i2s_ex.c ****     if (hi2s->hdmatx == hdma)
 912:Drivers/STM32F4xx_HAL_Driver/Src/stm32f4xx_hal_i2s_ex.c ****     {
 913:Drivers/STM32F4xx_HAL_Driver/Src/stm32f4xx_hal_i2s_ex.c ****       /* Disable Tx DMA Request */
 914:Drivers/STM32F4xx_HAL_Driver/Src/stm32f4xx_hal_i2s_ex.c ****       if (((hi2s->Instance->I2SCFGR & SPI_I2SCFGR_I2SCFG) == I2S_MODE_MASTER_TX) || \
 915:Drivers/STM32F4xx_HAL_Driver/Src/stm32f4xx_hal_i2s_ex.c ****           ((hi2s->Instance->I2SCFGR & SPI_I2SCFGR_I2SCFG) == I2S_MODE_SLAVE_TX))
 916:Drivers/STM32F4xx_HAL_Driver/Src/stm32f4xx_hal_i2s_ex.c ****       {
 917:Drivers/STM32F4xx_HAL_Driver/Src/stm32f4xx_hal_i2s_ex.c ****         CLEAR_BIT(hi2s->Instance->CR2, SPI_CR2_TXDMAEN);
 918:Drivers/STM32F4xx_HAL_Driver/Src/stm32f4xx_hal_i2s_ex.c ****       }
 919:Drivers/STM32F4xx_HAL_Driver/Src/stm32f4xx_hal_i2s_ex.c ****       else
 920:Drivers/STM32F4xx_HAL_Driver/Src/stm32f4xx_hal_i2s_ex.c ****       {
 921:Drivers/STM32F4xx_HAL_Driver/Src/stm32f4xx_hal_i2s_ex.c ****         CLEAR_BIT(I2SxEXT(hi2s->Instance)->CR2, SPI_CR2_TXDMAEN);
 922:Drivers/STM32F4xx_HAL_Driver/Src/stm32f4xx_hal_i2s_ex.c ****       }
 923:Drivers/STM32F4xx_HAL_Driver/Src/stm32f4xx_hal_i2s_ex.c **** 
 924:Drivers/STM32F4xx_HAL_Driver/Src/stm32f4xx_hal_i2s_ex.c ****       hi2s->TxXferCount = 0U;
 925:Drivers/STM32F4xx_HAL_Driver/Src/stm32f4xx_hal_i2s_ex.c **** 
 926:Drivers/STM32F4xx_HAL_Driver/Src/stm32f4xx_hal_i2s_ex.c ****       if (hi2s->RxXferCount == 0U)
 927:Drivers/STM32F4xx_HAL_Driver/Src/stm32f4xx_hal_i2s_ex.c ****       {
 928:Drivers/STM32F4xx_HAL_Driver/Src/stm32f4xx_hal_i2s_ex.c ****         hi2s->State = HAL_I2S_STATE_READY;
 929:Drivers/STM32F4xx_HAL_Driver/Src/stm32f4xx_hal_i2s_ex.c **** 
 930:Drivers/STM32F4xx_HAL_Driver/Src/stm32f4xx_hal_i2s_ex.c ****         /* Call user TxRx complete callback */
 931:Drivers/STM32F4xx_HAL_Driver/Src/stm32f4xx_hal_i2s_ex.c **** #if (USE_HAL_I2S_REGISTER_CALLBACKS == 1U)
 932:Drivers/STM32F4xx_HAL_Driver/Src/stm32f4xx_hal_i2s_ex.c ****         hi2s->TxRxCpltCallback(hi2s);
 933:Drivers/STM32F4xx_HAL_Driver/Src/stm32f4xx_hal_i2s_ex.c **** #else
 934:Drivers/STM32F4xx_HAL_Driver/Src/stm32f4xx_hal_i2s_ex.c ****         HAL_I2SEx_TxRxCpltCallback(hi2s);
 935:Drivers/STM32F4xx_HAL_Driver/Src/stm32f4xx_hal_i2s_ex.c **** #endif /* USE_HAL_I2S_REGISTER_CALLBACKS */
 936:Drivers/STM32F4xx_HAL_Driver/Src/stm32f4xx_hal_i2s_ex.c ****       }
 937:Drivers/STM32F4xx_HAL_Driver/Src/stm32f4xx_hal_i2s_ex.c ****     }
 938:Drivers/STM32F4xx_HAL_Driver/Src/stm32f4xx_hal_i2s_ex.c ****   }
 939:Drivers/STM32F4xx_HAL_Driver/Src/stm32f4xx_hal_i2s_ex.c **** }
 940:Drivers/STM32F4xx_HAL_Driver/Src/stm32f4xx_hal_i2s_ex.c **** 
 941:Drivers/STM32F4xx_HAL_Driver/Src/stm32f4xx_hal_i2s_ex.c **** /**
 942:Drivers/STM32F4xx_HAL_Driver/Src/stm32f4xx_hal_i2s_ex.c ****   * @brief  DMA I2S communication error callback
 943:Drivers/STM32F4xx_HAL_Driver/Src/stm32f4xx_hal_i2s_ex.c ****   * @param  hdma DMA handle
 944:Drivers/STM32F4xx_HAL_Driver/Src/stm32f4xx_hal_i2s_ex.c ****   * @retval None
ARM GAS  C:\Users\User\AppData\Local\Temp\ccqG9tqA.s 			page 18


 945:Drivers/STM32F4xx_HAL_Driver/Src/stm32f4xx_hal_i2s_ex.c ****   */
 946:Drivers/STM32F4xx_HAL_Driver/Src/stm32f4xx_hal_i2s_ex.c **** static void I2SEx_TxRxDMAError(DMA_HandleTypeDef *hdma)
 947:Drivers/STM32F4xx_HAL_Driver/Src/stm32f4xx_hal_i2s_ex.c **** {
 948:Drivers/STM32F4xx_HAL_Driver/Src/stm32f4xx_hal_i2s_ex.c ****   I2S_HandleTypeDef *hi2s = (I2S_HandleTypeDef *)((DMA_HandleTypeDef *)hdma)->Parent;
 949:Drivers/STM32F4xx_HAL_Driver/Src/stm32f4xx_hal_i2s_ex.c **** 
 950:Drivers/STM32F4xx_HAL_Driver/Src/stm32f4xx_hal_i2s_ex.c ****   /* Disable Rx and Tx DMA Request */
 951:Drivers/STM32F4xx_HAL_Driver/Src/stm32f4xx_hal_i2s_ex.c ****   CLEAR_BIT(hi2s->Instance->CR2, (SPI_CR2_RXDMAEN | SPI_CR2_TXDMAEN));
 952:Drivers/STM32F4xx_HAL_Driver/Src/stm32f4xx_hal_i2s_ex.c ****   CLEAR_BIT(I2SxEXT(hi2s->Instance)->CR2, (SPI_CR2_RXDMAEN | SPI_CR2_TXDMAEN));
 953:Drivers/STM32F4xx_HAL_Driver/Src/stm32f4xx_hal_i2s_ex.c **** 
 954:Drivers/STM32F4xx_HAL_Driver/Src/stm32f4xx_hal_i2s_ex.c ****   hi2s->TxXferCount = 0U;
 955:Drivers/STM32F4xx_HAL_Driver/Src/stm32f4xx_hal_i2s_ex.c ****   hi2s->RxXferCount = 0U;
 956:Drivers/STM32F4xx_HAL_Driver/Src/stm32f4xx_hal_i2s_ex.c **** 
 957:Drivers/STM32F4xx_HAL_Driver/Src/stm32f4xx_hal_i2s_ex.c ****   hi2s->State = HAL_I2S_STATE_READY;
 958:Drivers/STM32F4xx_HAL_Driver/Src/stm32f4xx_hal_i2s_ex.c **** 
 959:Drivers/STM32F4xx_HAL_Driver/Src/stm32f4xx_hal_i2s_ex.c ****   /* Set the error code and execute error callback*/
 960:Drivers/STM32F4xx_HAL_Driver/Src/stm32f4xx_hal_i2s_ex.c ****   SET_BIT(hi2s->ErrorCode, HAL_I2S_ERROR_DMA);
 961:Drivers/STM32F4xx_HAL_Driver/Src/stm32f4xx_hal_i2s_ex.c ****   /* Call user error callback */
 962:Drivers/STM32F4xx_HAL_Driver/Src/stm32f4xx_hal_i2s_ex.c **** #if (USE_HAL_I2S_REGISTER_CALLBACKS == 1U)
 963:Drivers/STM32F4xx_HAL_Driver/Src/stm32f4xx_hal_i2s_ex.c ****   hi2s->ErrorCallback(hi2s);
 964:Drivers/STM32F4xx_HAL_Driver/Src/stm32f4xx_hal_i2s_ex.c **** #else
 965:Drivers/STM32F4xx_HAL_Driver/Src/stm32f4xx_hal_i2s_ex.c ****   HAL_I2S_ErrorCallback(hi2s);
 966:Drivers/STM32F4xx_HAL_Driver/Src/stm32f4xx_hal_i2s_ex.c **** #endif /* USE_HAL_I2S_REGISTER_CALLBACKS */
 967:Drivers/STM32F4xx_HAL_Driver/Src/stm32f4xx_hal_i2s_ex.c **** }
 968:Drivers/STM32F4xx_HAL_Driver/Src/stm32f4xx_hal_i2s_ex.c **** 
 969:Drivers/STM32F4xx_HAL_Driver/Src/stm32f4xx_hal_i2s_ex.c **** /**
 970:Drivers/STM32F4xx_HAL_Driver/Src/stm32f4xx_hal_i2s_ex.c ****   * @brief  I2S Full-Duplex IT handler transmit function
 971:Drivers/STM32F4xx_HAL_Driver/Src/stm32f4xx_hal_i2s_ex.c ****   * @param  hi2s I2S handle
 972:Drivers/STM32F4xx_HAL_Driver/Src/stm32f4xx_hal_i2s_ex.c ****   * @retval None
 973:Drivers/STM32F4xx_HAL_Driver/Src/stm32f4xx_hal_i2s_ex.c ****   */
 974:Drivers/STM32F4xx_HAL_Driver/Src/stm32f4xx_hal_i2s_ex.c **** static void I2SEx_TxISR_I2S(I2S_HandleTypeDef *hi2s)
 975:Drivers/STM32F4xx_HAL_Driver/Src/stm32f4xx_hal_i2s_ex.c **** {
 976:Drivers/STM32F4xx_HAL_Driver/Src/stm32f4xx_hal_i2s_ex.c ****   /* Write Data on DR register */
 977:Drivers/STM32F4xx_HAL_Driver/Src/stm32f4xx_hal_i2s_ex.c ****   hi2s->Instance->DR = (*hi2s->pTxBuffPtr++);
 978:Drivers/STM32F4xx_HAL_Driver/Src/stm32f4xx_hal_i2s_ex.c ****   hi2s->TxXferCount--;
 979:Drivers/STM32F4xx_HAL_Driver/Src/stm32f4xx_hal_i2s_ex.c **** 
 980:Drivers/STM32F4xx_HAL_Driver/Src/stm32f4xx_hal_i2s_ex.c ****   if (hi2s->TxXferCount == 0U)
 981:Drivers/STM32F4xx_HAL_Driver/Src/stm32f4xx_hal_i2s_ex.c ****   {
 982:Drivers/STM32F4xx_HAL_Driver/Src/stm32f4xx_hal_i2s_ex.c ****     /* Disable TXE and ERR interrupt */
 983:Drivers/STM32F4xx_HAL_Driver/Src/stm32f4xx_hal_i2s_ex.c ****     __HAL_I2S_DISABLE_IT(hi2s, (I2S_IT_TXE | I2S_IT_ERR));
 984:Drivers/STM32F4xx_HAL_Driver/Src/stm32f4xx_hal_i2s_ex.c **** 
 985:Drivers/STM32F4xx_HAL_Driver/Src/stm32f4xx_hal_i2s_ex.c ****     if (hi2s->RxXferCount == 0U)
 986:Drivers/STM32F4xx_HAL_Driver/Src/stm32f4xx_hal_i2s_ex.c ****     {
 987:Drivers/STM32F4xx_HAL_Driver/Src/stm32f4xx_hal_i2s_ex.c ****       hi2s->State = HAL_I2S_STATE_READY;
 988:Drivers/STM32F4xx_HAL_Driver/Src/stm32f4xx_hal_i2s_ex.c ****       /* Call user TxRx complete callback */
 989:Drivers/STM32F4xx_HAL_Driver/Src/stm32f4xx_hal_i2s_ex.c **** #if (USE_HAL_I2S_REGISTER_CALLBACKS == 1U)
 990:Drivers/STM32F4xx_HAL_Driver/Src/stm32f4xx_hal_i2s_ex.c ****       hi2s->TxRxCpltCallback(hi2s);
 991:Drivers/STM32F4xx_HAL_Driver/Src/stm32f4xx_hal_i2s_ex.c **** #else
 992:Drivers/STM32F4xx_HAL_Driver/Src/stm32f4xx_hal_i2s_ex.c ****       HAL_I2SEx_TxRxCpltCallback(hi2s);
 993:Drivers/STM32F4xx_HAL_Driver/Src/stm32f4xx_hal_i2s_ex.c **** #endif /* USE_HAL_I2S_REGISTER_CALLBACKS */
 994:Drivers/STM32F4xx_HAL_Driver/Src/stm32f4xx_hal_i2s_ex.c ****     }
 995:Drivers/STM32F4xx_HAL_Driver/Src/stm32f4xx_hal_i2s_ex.c ****   }
 996:Drivers/STM32F4xx_HAL_Driver/Src/stm32f4xx_hal_i2s_ex.c **** }
 997:Drivers/STM32F4xx_HAL_Driver/Src/stm32f4xx_hal_i2s_ex.c **** 
 998:Drivers/STM32F4xx_HAL_Driver/Src/stm32f4xx_hal_i2s_ex.c **** /**
 999:Drivers/STM32F4xx_HAL_Driver/Src/stm32f4xx_hal_i2s_ex.c ****   * @brief  I2SExt Full-Duplex IT handler transmit function
1000:Drivers/STM32F4xx_HAL_Driver/Src/stm32f4xx_hal_i2s_ex.c ****   * @param  hi2s I2S handle
1001:Drivers/STM32F4xx_HAL_Driver/Src/stm32f4xx_hal_i2s_ex.c ****   * @retval None
ARM GAS  C:\Users\User\AppData\Local\Temp\ccqG9tqA.s 			page 19


1002:Drivers/STM32F4xx_HAL_Driver/Src/stm32f4xx_hal_i2s_ex.c ****   */
1003:Drivers/STM32F4xx_HAL_Driver/Src/stm32f4xx_hal_i2s_ex.c **** static void I2SEx_TxISR_I2SExt(I2S_HandleTypeDef *hi2s)
1004:Drivers/STM32F4xx_HAL_Driver/Src/stm32f4xx_hal_i2s_ex.c **** {
1005:Drivers/STM32F4xx_HAL_Driver/Src/stm32f4xx_hal_i2s_ex.c ****   /* Write Data on DR register */
1006:Drivers/STM32F4xx_HAL_Driver/Src/stm32f4xx_hal_i2s_ex.c ****   I2SxEXT(hi2s->Instance)->DR = (*hi2s->pTxBuffPtr++);
1007:Drivers/STM32F4xx_HAL_Driver/Src/stm32f4xx_hal_i2s_ex.c ****   hi2s->TxXferCount--;
1008:Drivers/STM32F4xx_HAL_Driver/Src/stm32f4xx_hal_i2s_ex.c **** 
1009:Drivers/STM32F4xx_HAL_Driver/Src/stm32f4xx_hal_i2s_ex.c ****   if (hi2s->TxXferCount == 0U)
1010:Drivers/STM32F4xx_HAL_Driver/Src/stm32f4xx_hal_i2s_ex.c ****   {
1011:Drivers/STM32F4xx_HAL_Driver/Src/stm32f4xx_hal_i2s_ex.c ****     /* Disable I2Sext TXE and ERR interrupt */
1012:Drivers/STM32F4xx_HAL_Driver/Src/stm32f4xx_hal_i2s_ex.c ****     __HAL_I2SEXT_DISABLE_IT(hi2s, (I2S_IT_TXE | I2S_IT_ERR));
1013:Drivers/STM32F4xx_HAL_Driver/Src/stm32f4xx_hal_i2s_ex.c **** 
1014:Drivers/STM32F4xx_HAL_Driver/Src/stm32f4xx_hal_i2s_ex.c ****     if (hi2s->RxXferCount == 0U)
1015:Drivers/STM32F4xx_HAL_Driver/Src/stm32f4xx_hal_i2s_ex.c ****     {
1016:Drivers/STM32F4xx_HAL_Driver/Src/stm32f4xx_hal_i2s_ex.c ****       hi2s->State = HAL_I2S_STATE_READY;
1017:Drivers/STM32F4xx_HAL_Driver/Src/stm32f4xx_hal_i2s_ex.c ****       /* Call user TxRx complete callback */
1018:Drivers/STM32F4xx_HAL_Driver/Src/stm32f4xx_hal_i2s_ex.c **** #if (USE_HAL_I2S_REGISTER_CALLBACKS == 1U)
1019:Drivers/STM32F4xx_HAL_Driver/Src/stm32f4xx_hal_i2s_ex.c ****       hi2s->TxRxCpltCallback(hi2s);
1020:Drivers/STM32F4xx_HAL_Driver/Src/stm32f4xx_hal_i2s_ex.c **** #else
1021:Drivers/STM32F4xx_HAL_Driver/Src/stm32f4xx_hal_i2s_ex.c ****       HAL_I2SEx_TxRxCpltCallback(hi2s);
1022:Drivers/STM32F4xx_HAL_Driver/Src/stm32f4xx_hal_i2s_ex.c **** #endif /* USE_HAL_I2S_REGISTER_CALLBACKS */
1023:Drivers/STM32F4xx_HAL_Driver/Src/stm32f4xx_hal_i2s_ex.c ****     }
1024:Drivers/STM32F4xx_HAL_Driver/Src/stm32f4xx_hal_i2s_ex.c ****   }
1025:Drivers/STM32F4xx_HAL_Driver/Src/stm32f4xx_hal_i2s_ex.c **** }
1026:Drivers/STM32F4xx_HAL_Driver/Src/stm32f4xx_hal_i2s_ex.c **** 
1027:Drivers/STM32F4xx_HAL_Driver/Src/stm32f4xx_hal_i2s_ex.c **** /**
1028:Drivers/STM32F4xx_HAL_Driver/Src/stm32f4xx_hal_i2s_ex.c ****   * @brief  I2S Full-Duplex IT handler receive function
1029:Drivers/STM32F4xx_HAL_Driver/Src/stm32f4xx_hal_i2s_ex.c ****   * @param  hi2s I2S handle
1030:Drivers/STM32F4xx_HAL_Driver/Src/stm32f4xx_hal_i2s_ex.c ****   * @retval None
1031:Drivers/STM32F4xx_HAL_Driver/Src/stm32f4xx_hal_i2s_ex.c ****   */
1032:Drivers/STM32F4xx_HAL_Driver/Src/stm32f4xx_hal_i2s_ex.c **** static void I2SEx_RxISR_I2S(I2S_HandleTypeDef *hi2s)
1033:Drivers/STM32F4xx_HAL_Driver/Src/stm32f4xx_hal_i2s_ex.c **** {
1034:Drivers/STM32F4xx_HAL_Driver/Src/stm32f4xx_hal_i2s_ex.c ****   /* Read Data from DR register */
1035:Drivers/STM32F4xx_HAL_Driver/Src/stm32f4xx_hal_i2s_ex.c ****   (*hi2s->pRxBuffPtr++) = hi2s->Instance->DR;
1036:Drivers/STM32F4xx_HAL_Driver/Src/stm32f4xx_hal_i2s_ex.c ****   hi2s->RxXferCount--;
1037:Drivers/STM32F4xx_HAL_Driver/Src/stm32f4xx_hal_i2s_ex.c **** 
1038:Drivers/STM32F4xx_HAL_Driver/Src/stm32f4xx_hal_i2s_ex.c ****   if (hi2s->RxXferCount == 0U)
1039:Drivers/STM32F4xx_HAL_Driver/Src/stm32f4xx_hal_i2s_ex.c ****   {
1040:Drivers/STM32F4xx_HAL_Driver/Src/stm32f4xx_hal_i2s_ex.c ****     /* Disable RXNE and ERR interrupt */
1041:Drivers/STM32F4xx_HAL_Driver/Src/stm32f4xx_hal_i2s_ex.c ****     __HAL_I2S_DISABLE_IT(hi2s, (I2S_IT_RXNE | I2S_IT_ERR));
1042:Drivers/STM32F4xx_HAL_Driver/Src/stm32f4xx_hal_i2s_ex.c **** 
1043:Drivers/STM32F4xx_HAL_Driver/Src/stm32f4xx_hal_i2s_ex.c ****     if (hi2s->TxXferCount == 0U)
1044:Drivers/STM32F4xx_HAL_Driver/Src/stm32f4xx_hal_i2s_ex.c ****     {
1045:Drivers/STM32F4xx_HAL_Driver/Src/stm32f4xx_hal_i2s_ex.c ****       hi2s->State = HAL_I2S_STATE_READY;
1046:Drivers/STM32F4xx_HAL_Driver/Src/stm32f4xx_hal_i2s_ex.c ****       /* Call user TxRx complete callback */
1047:Drivers/STM32F4xx_HAL_Driver/Src/stm32f4xx_hal_i2s_ex.c **** #if (USE_HAL_I2S_REGISTER_CALLBACKS == 1U)
1048:Drivers/STM32F4xx_HAL_Driver/Src/stm32f4xx_hal_i2s_ex.c ****       hi2s->TxRxCpltCallback(hi2s);
1049:Drivers/STM32F4xx_HAL_Driver/Src/stm32f4xx_hal_i2s_ex.c **** #else
1050:Drivers/STM32F4xx_HAL_Driver/Src/stm32f4xx_hal_i2s_ex.c ****       HAL_I2SEx_TxRxCpltCallback(hi2s);
1051:Drivers/STM32F4xx_HAL_Driver/Src/stm32f4xx_hal_i2s_ex.c **** #endif /* USE_HAL_I2S_REGISTER_CALLBACKS */
1052:Drivers/STM32F4xx_HAL_Driver/Src/stm32f4xx_hal_i2s_ex.c ****     }
1053:Drivers/STM32F4xx_HAL_Driver/Src/stm32f4xx_hal_i2s_ex.c ****   }
1054:Drivers/STM32F4xx_HAL_Driver/Src/stm32f4xx_hal_i2s_ex.c **** }
1055:Drivers/STM32F4xx_HAL_Driver/Src/stm32f4xx_hal_i2s_ex.c **** 
1056:Drivers/STM32F4xx_HAL_Driver/Src/stm32f4xx_hal_i2s_ex.c **** /**
1057:Drivers/STM32F4xx_HAL_Driver/Src/stm32f4xx_hal_i2s_ex.c ****   * @brief  I2SExt Full-Duplex IT handler receive function
1058:Drivers/STM32F4xx_HAL_Driver/Src/stm32f4xx_hal_i2s_ex.c ****   * @param  hi2s I2S handle
ARM GAS  C:\Users\User\AppData\Local\Temp\ccqG9tqA.s 			page 20


1059:Drivers/STM32F4xx_HAL_Driver/Src/stm32f4xx_hal_i2s_ex.c ****   * @retval None
1060:Drivers/STM32F4xx_HAL_Driver/Src/stm32f4xx_hal_i2s_ex.c ****   */
1061:Drivers/STM32F4xx_HAL_Driver/Src/stm32f4xx_hal_i2s_ex.c **** static void I2SEx_RxISR_I2SExt(I2S_HandleTypeDef *hi2s)
1062:Drivers/STM32F4xx_HAL_Driver/Src/stm32f4xx_hal_i2s_ex.c **** {
1063:Drivers/STM32F4xx_HAL_Driver/Src/stm32f4xx_hal_i2s_ex.c ****   /* Read Data from DR register */
1064:Drivers/STM32F4xx_HAL_Driver/Src/stm32f4xx_hal_i2s_ex.c ****   (*hi2s->pRxBuffPtr++) = I2SxEXT(hi2s->Instance)->DR;
1065:Drivers/STM32F4xx_HAL_Driver/Src/stm32f4xx_hal_i2s_ex.c ****   hi2s->RxXferCount--;
1066:Drivers/STM32F4xx_HAL_Driver/Src/stm32f4xx_hal_i2s_ex.c **** 
1067:Drivers/STM32F4xx_HAL_Driver/Src/stm32f4xx_hal_i2s_ex.c ****   if (hi2s->RxXferCount == 0U)
1068:Drivers/STM32F4xx_HAL_Driver/Src/stm32f4xx_hal_i2s_ex.c ****   {
1069:Drivers/STM32F4xx_HAL_Driver/Src/stm32f4xx_hal_i2s_ex.c ****     /* Disable I2Sext RXNE and ERR interrupt */
1070:Drivers/STM32F4xx_HAL_Driver/Src/stm32f4xx_hal_i2s_ex.c ****     __HAL_I2SEXT_DISABLE_IT(hi2s, (I2S_IT_RXNE | I2S_IT_ERR));
1071:Drivers/STM32F4xx_HAL_Driver/Src/stm32f4xx_hal_i2s_ex.c **** 
1072:Drivers/STM32F4xx_HAL_Driver/Src/stm32f4xx_hal_i2s_ex.c ****     if (hi2s->TxXferCount == 0U)
1073:Drivers/STM32F4xx_HAL_Driver/Src/stm32f4xx_hal_i2s_ex.c ****     {
1074:Drivers/STM32F4xx_HAL_Driver/Src/stm32f4xx_hal_i2s_ex.c ****       hi2s->State = HAL_I2S_STATE_READY;
1075:Drivers/STM32F4xx_HAL_Driver/Src/stm32f4xx_hal_i2s_ex.c ****       /* Call user TxRx complete callback */
1076:Drivers/STM32F4xx_HAL_Driver/Src/stm32f4xx_hal_i2s_ex.c **** #if (USE_HAL_I2S_REGISTER_CALLBACKS == 1U)
1077:Drivers/STM32F4xx_HAL_Driver/Src/stm32f4xx_hal_i2s_ex.c ****       hi2s->TxRxCpltCallback(hi2s);
1078:Drivers/STM32F4xx_HAL_Driver/Src/stm32f4xx_hal_i2s_ex.c **** #else
1079:Drivers/STM32F4xx_HAL_Driver/Src/stm32f4xx_hal_i2s_ex.c ****       HAL_I2SEx_TxRxCpltCallback(hi2s);
1080:Drivers/STM32F4xx_HAL_Driver/Src/stm32f4xx_hal_i2s_ex.c **** #endif /* USE_HAL_I2S_REGISTER_CALLBACKS */
1081:Drivers/STM32F4xx_HAL_Driver/Src/stm32f4xx_hal_i2s_ex.c ****     }
1082:Drivers/STM32F4xx_HAL_Driver/Src/stm32f4xx_hal_i2s_ex.c ****   }
1083:Drivers/STM32F4xx_HAL_Driver/Src/stm32f4xx_hal_i2s_ex.c **** }
1084:Drivers/STM32F4xx_HAL_Driver/Src/stm32f4xx_hal_i2s_ex.c **** 
1085:Drivers/STM32F4xx_HAL_Driver/Src/stm32f4xx_hal_i2s_ex.c **** /**
1086:Drivers/STM32F4xx_HAL_Driver/Src/stm32f4xx_hal_i2s_ex.c ****   * @brief This function handles I2S Communication Timeout.
1087:Drivers/STM32F4xx_HAL_Driver/Src/stm32f4xx_hal_i2s_ex.c ****   * @param hi2s I2S handle
1088:Drivers/STM32F4xx_HAL_Driver/Src/stm32f4xx_hal_i2s_ex.c ****   * @param Flag Flag checked
1089:Drivers/STM32F4xx_HAL_Driver/Src/stm32f4xx_hal_i2s_ex.c ****   * @param State Value of the flag expected
1090:Drivers/STM32F4xx_HAL_Driver/Src/stm32f4xx_hal_i2s_ex.c ****   * @param Timeout Duration of the timeout
1091:Drivers/STM32F4xx_HAL_Driver/Src/stm32f4xx_hal_i2s_ex.c ****   * @param i2sUsed I2S instance reference
1092:Drivers/STM32F4xx_HAL_Driver/Src/stm32f4xx_hal_i2s_ex.c ****   * @retval HAL status
1093:Drivers/STM32F4xx_HAL_Driver/Src/stm32f4xx_hal_i2s_ex.c ****   */
1094:Drivers/STM32F4xx_HAL_Driver/Src/stm32f4xx_hal_i2s_ex.c **** static HAL_StatusTypeDef I2SEx_FullDuplexWaitFlagStateUntilTimeout(I2S_HandleTypeDef *hi2s, uint32_
1095:Drivers/STM32F4xx_HAL_Driver/Src/stm32f4xx_hal_i2s_ex.c ****                                                                    uint32_t State, uint32_t Timeout
1096:Drivers/STM32F4xx_HAL_Driver/Src/stm32f4xx_hal_i2s_ex.c **** {
  27              		.loc 1 1096 0
  28              		.cfi_startproc
  29              		@ args = 4, pretend = 0, frame = 0
  30              		@ frame_needed = 0, uses_anonymous_args = 0
  31              	.LVL0:
  32 0000 2DE9F843 		push	{r3, r4, r5, r6, r7, r8, r9, lr}
  33              	.LCFI0:
  34              		.cfi_def_cfa_offset 32
  35              		.cfi_offset 3, -32
  36              		.cfi_offset 4, -28
  37              		.cfi_offset 5, -24
  38              		.cfi_offset 6, -20
  39              		.cfi_offset 7, -16
  40              		.cfi_offset 8, -12
  41              		.cfi_offset 9, -8
  42              		.cfi_offset 14, -4
  43 0004 0546     		mov	r5, r0
  44 0006 0E46     		mov	r6, r1
  45 0008 1746     		mov	r7, r2
ARM GAS  C:\Users\User\AppData\Local\Temp\ccqG9tqA.s 			page 21


  46 000a 1C46     		mov	r4, r3
  47 000c 9DF82090 		ldrb	r9, [sp, #32]	@ zero_extendqisi2
1097:Drivers/STM32F4xx_HAL_Driver/Src/stm32f4xx_hal_i2s_ex.c ****   uint32_t tickstart = HAL_GetTick();
  48              		.loc 1 1097 0
  49 0010 FFF7FEFF 		bl	HAL_GetTick
  50              	.LVL1:
  51 0014 8046     		mov	r8, r0
  52              	.LVL2:
1098:Drivers/STM32F4xx_HAL_Driver/Src/stm32f4xx_hal_i2s_ex.c **** 
1099:Drivers/STM32F4xx_HAL_Driver/Src/stm32f4xx_hal_i2s_ex.c ****   if (i2sUsed == I2S_USE_I2S)
  53              		.loc 1 1099 0
  54 0016 B9F1000F 		cmp	r9, #0
  55 001a 15D0     		beq	.L4
  56 001c 36E0     		b	.L9
  57              	.LVL3:
  58              	.L19:
1100:Drivers/STM32F4xx_HAL_Driver/Src/stm32f4xx_hal_i2s_ex.c ****   {
1101:Drivers/STM32F4xx_HAL_Driver/Src/stm32f4xx_hal_i2s_ex.c ****     /* Wait until flag is reset */
1102:Drivers/STM32F4xx_HAL_Driver/Src/stm32f4xx_hal_i2s_ex.c ****     while (((__HAL_I2S_GET_FLAG(hi2s, Flag)) ? SET : RESET) != State)
1103:Drivers/STM32F4xx_HAL_Driver/Src/stm32f4xx_hal_i2s_ex.c ****     {
1104:Drivers/STM32F4xx_HAL_Driver/Src/stm32f4xx_hal_i2s_ex.c ****       if (Timeout != HAL_MAX_DELAY)
1105:Drivers/STM32F4xx_HAL_Driver/Src/stm32f4xx_hal_i2s_ex.c ****       {
1106:Drivers/STM32F4xx_HAL_Driver/Src/stm32f4xx_hal_i2s_ex.c ****         if ((Timeout == 0U) || ((HAL_GetTick() - tickstart) > Timeout))
  59              		.loc 1 1106 0
  60 001e 2CB1     		cbz	r4, .L5
  61              		.loc 1 1106 0 is_stmt 0 discriminator 1
  62 0020 FFF7FEFF 		bl	HAL_GetTick
  63              	.LVL4:
  64 0024 A0EB0800 		sub	r0, r0, r8
  65 0028 A042     		cmp	r0, r4
  66 002a 0DD9     		bls	.L4
  67              	.L5:
1107:Drivers/STM32F4xx_HAL_Driver/Src/stm32f4xx_hal_i2s_ex.c ****         {
1108:Drivers/STM32F4xx_HAL_Driver/Src/stm32f4xx_hal_i2s_ex.c ****           /* Set the I2S State ready */
1109:Drivers/STM32F4xx_HAL_Driver/Src/stm32f4xx_hal_i2s_ex.c ****           hi2s->State = HAL_I2S_STATE_READY;
  68              		.loc 1 1109 0 is_stmt 1
  69 002c 0123     		movs	r3, #1
  70 002e 85F84130 		strb	r3, [r5, #65]
1110:Drivers/STM32F4xx_HAL_Driver/Src/stm32f4xx_hal_i2s_ex.c **** 
1111:Drivers/STM32F4xx_HAL_Driver/Src/stm32f4xx_hal_i2s_ex.c ****           /* Process Unlocked */
1112:Drivers/STM32F4xx_HAL_Driver/Src/stm32f4xx_hal_i2s_ex.c ****           __HAL_UNLOCK(hi2s);
  71              		.loc 1 1112 0
  72 0032 0023     		movs	r3, #0
  73 0034 85F84030 		strb	r3, [r5, #64]
1113:Drivers/STM32F4xx_HAL_Driver/Src/stm32f4xx_hal_i2s_ex.c **** 
1114:Drivers/STM32F4xx_HAL_Driver/Src/stm32f4xx_hal_i2s_ex.c ****           return HAL_TIMEOUT;
  74              		.loc 1 1114 0
  75 0038 0320     		movs	r0, #3
  76 003a 0DE0     		b	.L6
  77              	.L20:
1102:Drivers/STM32F4xx_HAL_Driver/Src/stm32f4xx_hal_i2s_ex.c ****     {
  78              		.loc 1 1102 0
  79 003c 0123     		movs	r3, #1
  80              	.L7:
1102:Drivers/STM32F4xx_HAL_Driver/Src/stm32f4xx_hal_i2s_ex.c ****     {
  81              		.loc 1 1102 0 is_stmt 0 discriminator 4
  82 003e BB42     		cmp	r3, r7
ARM GAS  C:\Users\User\AppData\Local\Temp\ccqG9tqA.s 			page 22


  83 0040 09D0     		beq	.L18
1104:Drivers/STM32F4xx_HAL_Driver/Src/stm32f4xx_hal_i2s_ex.c ****       {
  84              		.loc 1 1104 0 is_stmt 1
  85 0042 B4F1FF3F 		cmp	r4, #-1
  86 0046 EAD1     		bne	.L19
  87              	.L4:
1102:Drivers/STM32F4xx_HAL_Driver/Src/stm32f4xx_hal_i2s_ex.c ****     {
  88              		.loc 1 1102 0
  89 0048 2B68     		ldr	r3, [r5]
  90 004a 9B68     		ldr	r3, [r3, #8]
  91 004c 36EA0303 		bics	r3, r6, r3
  92 0050 F4D0     		beq	.L20
  93 0052 0023     		movs	r3, #0
  94 0054 F3E7     		b	.L7
  95              	.L18:
1115:Drivers/STM32F4xx_HAL_Driver/Src/stm32f4xx_hal_i2s_ex.c ****         }
1116:Drivers/STM32F4xx_HAL_Driver/Src/stm32f4xx_hal_i2s_ex.c ****       }
1117:Drivers/STM32F4xx_HAL_Driver/Src/stm32f4xx_hal_i2s_ex.c ****     }
1118:Drivers/STM32F4xx_HAL_Driver/Src/stm32f4xx_hal_i2s_ex.c ****   }
1119:Drivers/STM32F4xx_HAL_Driver/Src/stm32f4xx_hal_i2s_ex.c ****   else /* i2sUsed == I2S_USE_I2SEXT */
1120:Drivers/STM32F4xx_HAL_Driver/Src/stm32f4xx_hal_i2s_ex.c ****   {
1121:Drivers/STM32F4xx_HAL_Driver/Src/stm32f4xx_hal_i2s_ex.c ****     /* Wait until flag is reset */
1122:Drivers/STM32F4xx_HAL_Driver/Src/stm32f4xx_hal_i2s_ex.c ****     while (((__HAL_I2SEXT_GET_FLAG(hi2s, Flag)) ? SET : RESET) != State)
1123:Drivers/STM32F4xx_HAL_Driver/Src/stm32f4xx_hal_i2s_ex.c ****     {
1124:Drivers/STM32F4xx_HAL_Driver/Src/stm32f4xx_hal_i2s_ex.c ****       if (Timeout != HAL_MAX_DELAY)
1125:Drivers/STM32F4xx_HAL_Driver/Src/stm32f4xx_hal_i2s_ex.c ****       {
1126:Drivers/STM32F4xx_HAL_Driver/Src/stm32f4xx_hal_i2s_ex.c ****         if ((Timeout == 0U) || ((HAL_GetTick() - tickstart) > Timeout))
1127:Drivers/STM32F4xx_HAL_Driver/Src/stm32f4xx_hal_i2s_ex.c ****         {
1128:Drivers/STM32F4xx_HAL_Driver/Src/stm32f4xx_hal_i2s_ex.c ****           /* Set the I2S State ready */
1129:Drivers/STM32F4xx_HAL_Driver/Src/stm32f4xx_hal_i2s_ex.c ****           hi2s->State = HAL_I2S_STATE_READY;
1130:Drivers/STM32F4xx_HAL_Driver/Src/stm32f4xx_hal_i2s_ex.c **** 
1131:Drivers/STM32F4xx_HAL_Driver/Src/stm32f4xx_hal_i2s_ex.c ****           /* Process Unlocked */
1132:Drivers/STM32F4xx_HAL_Driver/Src/stm32f4xx_hal_i2s_ex.c ****           __HAL_UNLOCK(hi2s);
1133:Drivers/STM32F4xx_HAL_Driver/Src/stm32f4xx_hal_i2s_ex.c **** 
1134:Drivers/STM32F4xx_HAL_Driver/Src/stm32f4xx_hal_i2s_ex.c ****           return HAL_TIMEOUT;
1135:Drivers/STM32F4xx_HAL_Driver/Src/stm32f4xx_hal_i2s_ex.c ****         }
1136:Drivers/STM32F4xx_HAL_Driver/Src/stm32f4xx_hal_i2s_ex.c ****       }
1137:Drivers/STM32F4xx_HAL_Driver/Src/stm32f4xx_hal_i2s_ex.c ****     }
1138:Drivers/STM32F4xx_HAL_Driver/Src/stm32f4xx_hal_i2s_ex.c ****   }
1139:Drivers/STM32F4xx_HAL_Driver/Src/stm32f4xx_hal_i2s_ex.c ****   return HAL_OK;
  96              		.loc 1 1139 0
  97 0056 0020     		movs	r0, #0
  98              	.L6:
1140:Drivers/STM32F4xx_HAL_Driver/Src/stm32f4xx_hal_i2s_ex.c **** }
  99              		.loc 1 1140 0
 100 0058 BDE8F883 		pop	{r3, r4, r5, r6, r7, r8, r9, pc}
 101              	.LVL5:
 102              	.L22:
1126:Drivers/STM32F4xx_HAL_Driver/Src/stm32f4xx_hal_i2s_ex.c ****         {
 103              		.loc 1 1126 0
 104 005c 2CB1     		cbz	r4, .L10
1126:Drivers/STM32F4xx_HAL_Driver/Src/stm32f4xx_hal_i2s_ex.c ****         {
 105              		.loc 1 1126 0 is_stmt 0 discriminator 1
 106 005e FFF7FEFF 		bl	HAL_GetTick
 107              	.LVL6:
 108 0062 A0EB0800 		sub	r0, r0, r8
 109 0066 A042     		cmp	r0, r4
ARM GAS  C:\Users\User\AppData\Local\Temp\ccqG9tqA.s 			page 23


 110 0068 10D9     		bls	.L9
 111              	.L10:
1129:Drivers/STM32F4xx_HAL_Driver/Src/stm32f4xx_hal_i2s_ex.c **** 
 112              		.loc 1 1129 0 is_stmt 1
 113 006a 0123     		movs	r3, #1
 114 006c 85F84130 		strb	r3, [r5, #65]
1132:Drivers/STM32F4xx_HAL_Driver/Src/stm32f4xx_hal_i2s_ex.c **** 
 115              		.loc 1 1132 0
 116 0070 0023     		movs	r3, #0
 117 0072 85F84030 		strb	r3, [r5, #64]
1134:Drivers/STM32F4xx_HAL_Driver/Src/stm32f4xx_hal_i2s_ex.c ****         }
 118              		.loc 1 1134 0
 119 0076 0320     		movs	r0, #3
 120 0078 EEE7     		b	.L6
 121              	.L23:
1122:Drivers/STM32F4xx_HAL_Driver/Src/stm32f4xx_hal_i2s_ex.c ****     {
 122              		.loc 1 1122 0
 123 007a A3F58063 		sub	r3, r3, #1024
 124 007e 0BE0     		b	.L11
 125              	.L24:
 126 0080 0123     		movs	r3, #1
 127              	.L12:
1122:Drivers/STM32F4xx_HAL_Driver/Src/stm32f4xx_hal_i2s_ex.c ****     {
 128              		.loc 1 1122 0 is_stmt 0 discriminator 8
 129 0082 BB42     		cmp	r3, r7
 130 0084 0ED0     		beq	.L21
1124:Drivers/STM32F4xx_HAL_Driver/Src/stm32f4xx_hal_i2s_ex.c ****       {
 131              		.loc 1 1124 0 is_stmt 1
 132 0086 B4F1FF3F 		cmp	r4, #-1
 133 008a E7D1     		bne	.L22
 134              	.L9:
1122:Drivers/STM32F4xx_HAL_Driver/Src/stm32f4xx_hal_i2s_ex.c ****     {
 135              		.loc 1 1122 0
 136 008c 2A68     		ldr	r2, [r5]
 137 008e 064B     		ldr	r3, .L25
 138 0090 9A42     		cmp	r2, r3
 139 0092 F2D0     		beq	.L23
 140 0094 4FF04023 		mov	r3, #1073758208
 141              	.L11:
1122:Drivers/STM32F4xx_HAL_Driver/Src/stm32f4xx_hal_i2s_ex.c ****     {
 142              		.loc 1 1122 0 is_stmt 0 discriminator 4
 143 0098 9B68     		ldr	r3, [r3, #8]
 144 009a 36EA0303 		bics	r3, r6, r3
 145 009e EFD0     		beq	.L24
1122:Drivers/STM32F4xx_HAL_Driver/Src/stm32f4xx_hal_i2s_ex.c ****     {
 146              		.loc 1 1122 0
 147 00a0 0023     		movs	r3, #0
 148 00a2 EEE7     		b	.L12
 149              	.L21:
1139:Drivers/STM32F4xx_HAL_Driver/Src/stm32f4xx_hal_i2s_ex.c **** }
 150              		.loc 1 1139 0 is_stmt 1
 151 00a4 0020     		movs	r0, #0
 152 00a6 D7E7     		b	.L6
 153              	.L26:
 154              		.align	2
 155              	.L25:
 156 00a8 00380040 		.word	1073756160
ARM GAS  C:\Users\User\AppData\Local\Temp\ccqG9tqA.s 			page 24


 157              		.cfi_endproc
 158              	.LFE143:
 160              		.section	.text.I2SEx_TxRxDMAError,"ax",%progbits
 161              		.align	1
 162              		.syntax unified
 163              		.thumb
 164              		.thumb_func
 165              		.fpu fpv4-sp-d16
 167              	I2SEx_TxRxDMAError:
 168              	.LFB138:
 947:Drivers/STM32F4xx_HAL_Driver/Src/stm32f4xx_hal_i2s_ex.c ****   I2S_HandleTypeDef *hi2s = (I2S_HandleTypeDef *)((DMA_HandleTypeDef *)hdma)->Parent;
 169              		.loc 1 947 0
 170              		.cfi_startproc
 171              		@ args = 0, pretend = 0, frame = 0
 172              		@ frame_needed = 0, uses_anonymous_args = 0
 173              	.LVL7:
 174 0000 08B5     		push	{r3, lr}
 175              	.LCFI1:
 176              		.cfi_def_cfa_offset 8
 177              		.cfi_offset 3, -8
 178              		.cfi_offset 14, -4
 948:Drivers/STM32F4xx_HAL_Driver/Src/stm32f4xx_hal_i2s_ex.c **** 
 179              		.loc 1 948 0
 180 0002 806B     		ldr	r0, [r0, #56]
 181              	.LVL8:
 951:Drivers/STM32F4xx_HAL_Driver/Src/stm32f4xx_hal_i2s_ex.c ****   CLEAR_BIT(I2SxEXT(hi2s->Instance)->CR2, (SPI_CR2_RXDMAEN | SPI_CR2_TXDMAEN));
 182              		.loc 1 951 0
 183 0004 0268     		ldr	r2, [r0]
 184 0006 5368     		ldr	r3, [r2, #4]
 185 0008 23F00303 		bic	r3, r3, #3
 186 000c 5360     		str	r3, [r2, #4]
 952:Drivers/STM32F4xx_HAL_Driver/Src/stm32f4xx_hal_i2s_ex.c **** 
 187              		.loc 1 952 0
 188 000e 0268     		ldr	r2, [r0]
 189 0010 0B4B     		ldr	r3, .L32
 190 0012 9A42     		cmp	r2, r3
 191 0014 12D0     		beq	.L31
 192 0016 4FF04022 		mov	r2, #1073758208
 193              	.L28:
 952:Drivers/STM32F4xx_HAL_Driver/Src/stm32f4xx_hal_i2s_ex.c **** 
 194              		.loc 1 952 0 is_stmt 0 discriminator 4
 195 001a 5368     		ldr	r3, [r2, #4]
 196 001c 23F00303 		bic	r3, r3, #3
 197 0020 5360     		str	r3, [r2, #4]
 954:Drivers/STM32F4xx_HAL_Driver/Src/stm32f4xx_hal_i2s_ex.c ****   hi2s->RxXferCount = 0U;
 198              		.loc 1 954 0 is_stmt 1 discriminator 4
 199 0022 0023     		movs	r3, #0
 200 0024 4385     		strh	r3, [r0, #42]	@ movhi
 955:Drivers/STM32F4xx_HAL_Driver/Src/stm32f4xx_hal_i2s_ex.c **** 
 201              		.loc 1 955 0 discriminator 4
 202 0026 4386     		strh	r3, [r0, #50]	@ movhi
 957:Drivers/STM32F4xx_HAL_Driver/Src/stm32f4xx_hal_i2s_ex.c **** 
 203              		.loc 1 957 0 discriminator 4
 204 0028 0123     		movs	r3, #1
 205 002a 80F84130 		strb	r3, [r0, #65]
 960:Drivers/STM32F4xx_HAL_Driver/Src/stm32f4xx_hal_i2s_ex.c ****   /* Call user error callback */
 206              		.loc 1 960 0 discriminator 4
ARM GAS  C:\Users\User\AppData\Local\Temp\ccqG9tqA.s 			page 25


 207 002e 436C     		ldr	r3, [r0, #68]
 208 0030 43F00803 		orr	r3, r3, #8
 209 0034 4364     		str	r3, [r0, #68]
 965:Drivers/STM32F4xx_HAL_Driver/Src/stm32f4xx_hal_i2s_ex.c **** #endif /* USE_HAL_I2S_REGISTER_CALLBACKS */
 210              		.loc 1 965 0 discriminator 4
 211 0036 FFF7FEFF 		bl	HAL_I2S_ErrorCallback
 212              	.LVL9:
 967:Drivers/STM32F4xx_HAL_Driver/Src/stm32f4xx_hal_i2s_ex.c **** 
 213              		.loc 1 967 0 discriminator 4
 214 003a 08BD     		pop	{r3, pc}
 215              	.LVL10:
 216              	.L31:
 952:Drivers/STM32F4xx_HAL_Driver/Src/stm32f4xx_hal_i2s_ex.c **** 
 217              		.loc 1 952 0
 218 003c 014A     		ldr	r2, .L32+4
 219 003e ECE7     		b	.L28
 220              	.L33:
 221              		.align	2
 222              	.L32:
 223 0040 00380040 		.word	1073756160
 224 0044 00340040 		.word	1073755136
 225              		.cfi_endproc
 226              	.LFE138:
 228              		.section	.text.HAL_I2SEx_TransmitReceive,"ax",%progbits
 229              		.align	1
 230              		.global	HAL_I2SEx_TransmitReceive
 231              		.syntax unified
 232              		.thumb
 233              		.thumb_func
 234              		.fpu fpv4-sp-d16
 236              	HAL_I2SEx_TransmitReceive:
 237              	.LFB130:
 207:Drivers/STM32F4xx_HAL_Driver/Src/stm32f4xx_hal_i2s_ex.c ****   uint32_t tmp1 = 0U;
 238              		.loc 1 207 0
 239              		.cfi_startproc
 240              		@ args = 4, pretend = 0, frame = 24
 241              		@ frame_needed = 0, uses_anonymous_args = 0
 242              	.LVL11:
 243 0000 F0B5     		push	{r4, r5, r6, r7, lr}
 244              	.LCFI2:
 245              		.cfi_def_cfa_offset 20
 246              		.cfi_offset 4, -20
 247              		.cfi_offset 5, -16
 248              		.cfi_offset 6, -12
 249              		.cfi_offset 7, -8
 250              		.cfi_offset 14, -4
 251 0002 89B0     		sub	sp, sp, #36
 252              	.LCFI3:
 253              		.cfi_def_cfa_offset 56
 254 0004 0446     		mov	r4, r0
 255 0006 1546     		mov	r5, r2
 256              	.LVL12:
 211:Drivers/STM32F4xx_HAL_Driver/Src/stm32f4xx_hal_i2s_ex.c ****   {
 257              		.loc 1 211 0
 258 0008 90F84120 		ldrb	r2, [r0, #65]	@ zero_extendqisi2
 259              	.LVL13:
 260 000c D2B2     		uxtb	r2, r2
ARM GAS  C:\Users\User\AppData\Local\Temp\ccqG9tqA.s 			page 26


 261 000e 012A     		cmp	r2, #1
 262 0010 08D0     		beq	.L86
 213:Drivers/STM32F4xx_HAL_Driver/Src/stm32f4xx_hal_i2s_ex.c ****     goto error;
 263              		.loc 1 213 0
 264 0012 0220     		movs	r0, #2
 265              	.LVL14:
 266              	.L35:
 403:Drivers/STM32F4xx_HAL_Driver/Src/stm32f4xx_hal_i2s_ex.c ****   __HAL_UNLOCK(hi2s);
 267              		.loc 1 403 0
 268 0014 0123     		movs	r3, #1
 269 0016 84F84130 		strb	r3, [r4, #65]
 404:Drivers/STM32F4xx_HAL_Driver/Src/stm32f4xx_hal_i2s_ex.c ****   return errorcode;
 270              		.loc 1 404 0
 271 001a 0023     		movs	r3, #0
 272 001c 84F84030 		strb	r3, [r4, #64]
 273              	.LVL15:
 274              	.L36:
 406:Drivers/STM32F4xx_HAL_Driver/Src/stm32f4xx_hal_i2s_ex.c **** 
 275              		.loc 1 406 0
 276 0020 09B0     		add	sp, sp, #36
 277              	.LCFI4:
 278              		.cfi_remember_state
 279              		.cfi_def_cfa_offset 20
 280              		@ sp needed
 281 0022 F0BD     		pop	{r4, r5, r6, r7, pc}
 282              	.LVL16:
 283              	.L86:
 284              	.LCFI5:
 285              		.cfi_restore_state
 217:Drivers/STM32F4xx_HAL_Driver/Src/stm32f4xx_hal_i2s_ex.c ****   {
 286              		.loc 1 217 0
 287 0024 0029     		cmp	r1, #0
 288 0026 00F08881 		beq	.L66
 217:Drivers/STM32F4xx_HAL_Driver/Src/stm32f4xx_hal_i2s_ex.c ****   {
 289              		.loc 1 217 0 is_stmt 0 discriminator 1
 290 002a 002D     		cmp	r5, #0
 291 002c 00F08781 		beq	.L67
 217:Drivers/STM32F4xx_HAL_Driver/Src/stm32f4xx_hal_i2s_ex.c ****   {
 292              		.loc 1 217 0 discriminator 2
 293 0030 002B     		cmp	r3, #0
 294 0032 00F08681 		beq	.L68
 223:Drivers/STM32F4xx_HAL_Driver/Src/stm32f4xx_hal_i2s_ex.c **** 
 295              		.loc 1 223 0 is_stmt 1
 296 0036 90F84020 		ldrb	r2, [r0, #64]	@ zero_extendqisi2
 297 003a D2B2     		uxtb	r2, r2
 298 003c 012A     		cmp	r2, #1
 299 003e 00F08281 		beq	.L69
 223:Drivers/STM32F4xx_HAL_Driver/Src/stm32f4xx_hal_i2s_ex.c **** 
 300              		.loc 1 223 0 is_stmt 0 discriminator 2
 301 0042 0122     		movs	r2, #1
 302 0044 80F84020 		strb	r2, [r0, #64]
 225:Drivers/STM32F4xx_HAL_Driver/Src/stm32f4xx_hal_i2s_ex.c ****   /* Check the Data format: When a 16-bit data frame or a 16-bit data frame extended
 303              		.loc 1 225 0 is_stmt 1 discriminator 2
 304 0048 0268     		ldr	r2, [r0]
 305 004a D269     		ldr	r2, [r2, #28]
 306 004c 02F00702 		and	r2, r2, #7
 307              	.LVL17:
ARM GAS  C:\Users\User\AppData\Local\Temp\ccqG9tqA.s 			page 27


 230:Drivers/STM32F4xx_HAL_Driver/Src/stm32f4xx_hal_i2s_ex.c ****   {
 308              		.loc 1 230 0 discriminator 2
 309 0050 032A     		cmp	r2, #3
 310 0052 06D0     		beq	.L37
 230:Drivers/STM32F4xx_HAL_Driver/Src/stm32f4xx_hal_i2s_ex.c ****   {
 311              		.loc 1 230 0 is_stmt 0 discriminator 1
 312 0054 052A     		cmp	r2, #5
 313 0056 04D0     		beq	.L37
 239:Drivers/STM32F4xx_HAL_Driver/Src/stm32f4xx_hal_i2s_ex.c ****     hi2s->TxXferCount = Size;
 314              		.loc 1 239 0 is_stmt 1
 315 0058 0385     		strh	r3, [r0, #40]	@ movhi
 240:Drivers/STM32F4xx_HAL_Driver/Src/stm32f4xx_hal_i2s_ex.c ****     hi2s->RxXferSize  = Size;
 316              		.loc 1 240 0
 317 005a 4385     		strh	r3, [r0, #42]	@ movhi
 241:Drivers/STM32F4xx_HAL_Driver/Src/stm32f4xx_hal_i2s_ex.c ****     hi2s->RxXferCount = Size;
 318              		.loc 1 241 0
 319 005c 0386     		strh	r3, [r0, #48]	@ movhi
 242:Drivers/STM32F4xx_HAL_Driver/Src/stm32f4xx_hal_i2s_ex.c ****   }
 320              		.loc 1 242 0
 321 005e 4386     		strh	r3, [r0, #50]	@ movhi
 322 0060 05E0     		b	.L39
 323              	.L37:
 232:Drivers/STM32F4xx_HAL_Driver/Src/stm32f4xx_hal_i2s_ex.c ****     hi2s->TxXferCount = (Size << 1U);
 324              		.loc 1 232 0
 325 0062 5B00     		lsls	r3, r3, #1
 326              	.LVL18:
 327 0064 9BB2     		uxth	r3, r3
 328 0066 2385     		strh	r3, [r4, #40]	@ movhi
 233:Drivers/STM32F4xx_HAL_Driver/Src/stm32f4xx_hal_i2s_ex.c ****     hi2s->RxXferSize  = (Size << 1U);
 329              		.loc 1 233 0
 330 0068 6385     		strh	r3, [r4, #42]	@ movhi
 234:Drivers/STM32F4xx_HAL_Driver/Src/stm32f4xx_hal_i2s_ex.c ****     hi2s->RxXferCount = (Size << 1U);
 331              		.loc 1 234 0
 332 006a 2386     		strh	r3, [r4, #48]	@ movhi
 235:Drivers/STM32F4xx_HAL_Driver/Src/stm32f4xx_hal_i2s_ex.c ****   }
 333              		.loc 1 235 0
 334 006c 6386     		strh	r3, [r4, #50]	@ movhi
 335              	.L39:
 246:Drivers/STM32F4xx_HAL_Driver/Src/stm32f4xx_hal_i2s_ex.c ****   hi2s->State = HAL_I2S_STATE_BUSY_TX_RX;
 336              		.loc 1 246 0
 337 006e 0023     		movs	r3, #0
 338 0070 6364     		str	r3, [r4, #68]
 247:Drivers/STM32F4xx_HAL_Driver/Src/stm32f4xx_hal_i2s_ex.c **** 
 339              		.loc 1 247 0
 340 0072 0523     		movs	r3, #5
 341 0074 84F84130 		strb	r3, [r4, #65]
 249:Drivers/STM32F4xx_HAL_Driver/Src/stm32f4xx_hal_i2s_ex.c ****   /* Check if the I2S_MODE_MASTER_TX or I2S_MODE_SLAVE_TX Mode is selected */
 342              		.loc 1 249 0
 343 0078 2368     		ldr	r3, [r4]
 344 007a DF69     		ldr	r7, [r3, #28]
 345 007c 07F44077 		and	r7, r7, #768
 346              	.LVL19:
 251:Drivers/STM32F4xx_HAL_Driver/Src/stm32f4xx_hal_i2s_ex.c ****   {
 347              		.loc 1 251 0
 348 0080 B7F5007F 		cmp	r7, #512
 349 0084 02D0     		beq	.L40
 251:Drivers/STM32F4xx_HAL_Driver/Src/stm32f4xx_hal_i2s_ex.c ****   {
ARM GAS  C:\Users\User\AppData\Local\Temp\ccqG9tqA.s 			page 28


 350              		.loc 1 251 0 is_stmt 0 discriminator 1
 351 0086 002F     		cmp	r7, #0
 352 0088 40F0AA80 		bne	.L41
 353              	.L40:
 254:Drivers/STM32F4xx_HAL_Driver/Src/stm32f4xx_hal_i2s_ex.c ****     hi2s->TxXferCount--;
 354              		.loc 1 254 0 is_stmt 1
 355 008c 8E1C     		adds	r6, r1, #2
 356              	.LVL20:
 357 008e 0A88     		ldrh	r2, [r1]
 358 0090 DA60     		str	r2, [r3, #12]
 255:Drivers/STM32F4xx_HAL_Driver/Src/stm32f4xx_hal_i2s_ex.c **** 
 359              		.loc 1 255 0
 360 0092 638D     		ldrh	r3, [r4, #42]
 361 0094 013B     		subs	r3, r3, #1
 362 0096 9BB2     		uxth	r3, r3
 363 0098 6385     		strh	r3, [r4, #42]	@ movhi
 258:Drivers/STM32F4xx_HAL_Driver/Src/stm32f4xx_hal_i2s_ex.c **** 
 364              		.loc 1 258 0
 365 009a 2268     		ldr	r2, [r4]
 366 009c 8E4B     		ldr	r3, .L104
 367 009e 9A42     		cmp	r2, r3
 368 00a0 1ED0     		beq	.L87
 369 00a2 4FF04022 		mov	r2, #1073758208
 370              	.L42:
 258:Drivers/STM32F4xx_HAL_Driver/Src/stm32f4xx_hal_i2s_ex.c **** 
 371              		.loc 1 258 0 is_stmt 0 discriminator 4
 372 00a6 D369     		ldr	r3, [r2, #28]
 373 00a8 43F48063 		orr	r3, r3, #1024
 374 00ac D361     		str	r3, [r2, #28]
 261:Drivers/STM32F4xx_HAL_Driver/Src/stm32f4xx_hal_i2s_ex.c **** 
 375              		.loc 1 261 0 is_stmt 1 discriminator 4
 376 00ae 2268     		ldr	r2, [r4]
 377 00b0 D369     		ldr	r3, [r2, #28]
 378 00b2 43F48063 		orr	r3, r3, #1024
 379 00b6 D361     		str	r3, [r2, #28]
 264:Drivers/STM32F4xx_HAL_Driver/Src/stm32f4xx_hal_i2s_ex.c ****     {
 380              		.loc 1 264 0 discriminator 4
 381 00b8 2268     		ldr	r2, [r4]
 382 00ba D369     		ldr	r3, [r2, #28]
 383 00bc 03F44073 		and	r3, r3, #768
 384 00c0 B3F5007F 		cmp	r3, #512
 385 00c4 18D1     		bne	.L45
 386              	.LBB2:
 268:Drivers/STM32F4xx_HAL_Driver/Src/stm32f4xx_hal_i2s_ex.c ****     }
 387              		.loc 1 268 0
 388 00c6 0023     		movs	r3, #0
 389 00c8 0293     		str	r3, [sp, #8]
 390 00ca 834B     		ldr	r3, .L104
 391 00cc 9A42     		cmp	r2, r3
 392 00ce 09D0     		beq	.L88
 393 00d0 4FF04023 		mov	r3, #1073758208
 394              	.L44:
 268:Drivers/STM32F4xx_HAL_Driver/Src/stm32f4xx_hal_i2s_ex.c ****     }
 395              		.loc 1 268 0 is_stmt 0 discriminator 4
 396 00d4 DA68     		ldr	r2, [r3, #12]
 397 00d6 0292     		str	r2, [sp, #8]
 398 00d8 9B68     		ldr	r3, [r3, #8]
ARM GAS  C:\Users\User\AppData\Local\Temp\ccqG9tqA.s 			page 29


 399 00da 0293     		str	r3, [sp, #8]
 400 00dc 029B     		ldr	r3, [sp, #8]
 401 00de 0BE0     		b	.L45
 402              	.L87:
 403              	.LBE2:
 258:Drivers/STM32F4xx_HAL_Driver/Src/stm32f4xx_hal_i2s_ex.c **** 
 404              		.loc 1 258 0 is_stmt 1
 405 00e0 7E4A     		ldr	r2, .L104+4
 406 00e2 E0E7     		b	.L42
 407              	.L88:
 408              	.LBB3:
 268:Drivers/STM32F4xx_HAL_Driver/Src/stm32f4xx_hal_i2s_ex.c ****     }
 409              		.loc 1 268 0
 410 00e4 A3F58063 		sub	r3, r3, #1024
 411 00e8 F4E7     		b	.L44
 412              	.LVL21:
 413              	.L52:
 414              	.LBE3:
 273:Drivers/STM32F4xx_HAL_Driver/Src/stm32f4xx_hal_i2s_ex.c ****       {
 415              		.loc 1 273 0
 416 00ea 638D     		ldrh	r3, [r4, #42]
 417 00ec 9BB2     		uxth	r3, r3
 418 00ee 8BB9     		cbnz	r3, .L89
 419              	.L46:
 297:Drivers/STM32F4xx_HAL_Driver/Src/stm32f4xx_hal_i2s_ex.c ****       {
 420              		.loc 1 297 0
 421 00f0 638E     		ldrh	r3, [r4, #50]
 422 00f2 9BB2     		uxth	r3, r3
 423 00f4 002B     		cmp	r3, #0
 424 00f6 39D1     		bne	.L90
 425              	.L45:
 271:Drivers/STM32F4xx_HAL_Driver/Src/stm32f4xx_hal_i2s_ex.c ****     {
 426              		.loc 1 271 0
 427 00f8 638E     		ldrh	r3, [r4, #50]
 428 00fa 9BB2     		uxth	r3, r3
 429 00fc 002B     		cmp	r3, #0
 430 00fe F4D1     		bne	.L52
 271:Drivers/STM32F4xx_HAL_Driver/Src/stm32f4xx_hal_i2s_ex.c ****     {
 431              		.loc 1 271 0 is_stmt 0 discriminator 1
 432 0100 638D     		ldrh	r3, [r4, #42]
 433 0102 9BB2     		uxth	r3, r3
 434 0104 002B     		cmp	r3, #0
 435 0106 F0D1     		bne	.L52
 436              	.L53:
 397:Drivers/STM32F4xx_HAL_Driver/Src/stm32f4xx_hal_i2s_ex.c ****   {
 437              		.loc 1 397 0 is_stmt 1
 438 0108 636C     		ldr	r3, [r4, #68]
 439 010a 002B     		cmp	r3, #0
 440 010c 40F01381 		bne	.L84
 209:Drivers/STM32F4xx_HAL_Driver/Src/stm32f4xx_hal_i2s_ex.c **** 
 441              		.loc 1 209 0
 442 0110 0020     		movs	r0, #0
 443 0112 7FE7     		b	.L35
 444              	.L89:
 276:Drivers/STM32F4xx_HAL_Driver/Src/stm32f4xx_hal_i2s_ex.c ****         {
 445              		.loc 1 276 0
 446 0114 0023     		movs	r3, #0
ARM GAS  C:\Users\User\AppData\Local\Temp\ccqG9tqA.s 			page 30


 447 0116 0093     		str	r3, [sp]
 448 0118 0E9B     		ldr	r3, [sp, #56]
 449 011a 0122     		movs	r2, #1
 450 011c 0221     		movs	r1, #2
 451 011e 2046     		mov	r0, r4
 452 0120 FFF7FEFF 		bl	I2SEx_FullDuplexWaitFlagStateUntilTimeout
 453              	.LVL22:
 454 0124 C0B9     		cbnz	r0, .L91
 284:Drivers/STM32F4xx_HAL_Driver/Src/stm32f4xx_hal_i2s_ex.c ****         hi2s->TxXferCount--;
 455              		.loc 1 284 0
 456 0126 B21C     		adds	r2, r6, #2
 457              	.LVL23:
 458 0128 2368     		ldr	r3, [r4]
 459 012a 3188     		ldrh	r1, [r6]
 460 012c D960     		str	r1, [r3, #12]
 285:Drivers/STM32F4xx_HAL_Driver/Src/stm32f4xx_hal_i2s_ex.c **** 
 461              		.loc 1 285 0
 462 012e 638D     		ldrh	r3, [r4, #42]
 463 0130 013B     		subs	r3, r3, #1
 464 0132 9BB2     		uxth	r3, r3
 465 0134 6385     		strh	r3, [r4, #42]	@ movhi
 288:Drivers/STM32F4xx_HAL_Driver/Src/stm32f4xx_hal_i2s_ex.c ****         {
 466              		.loc 1 288 0
 467 0136 2368     		ldr	r3, [r4]
 468 0138 9968     		ldr	r1, [r3, #8]
 469 013a 11F0080F 		tst	r1, #8
 470 013e 11D0     		beq	.L72
 288:Drivers/STM32F4xx_HAL_Driver/Src/stm32f4xx_hal_i2s_ex.c ****         {
 471              		.loc 1 288 0 is_stmt 0 discriminator 1
 472 0140 97B9     		cbnz	r7, .L73
 473              	.LBB4:
 291:Drivers/STM32F4xx_HAL_Driver/Src/stm32f4xx_hal_i2s_ex.c **** 
 474              		.loc 1 291 0 is_stmt 1
 475 0142 0021     		movs	r1, #0
 476 0144 0391     		str	r1, [sp, #12]
 477 0146 9B68     		ldr	r3, [r3, #8]
 478 0148 0393     		str	r3, [sp, #12]
 479 014a 039B     		ldr	r3, [sp, #12]
 480              	.LBE4:
 294:Drivers/STM32F4xx_HAL_Driver/Src/stm32f4xx_hal_i2s_ex.c ****         }
 481              		.loc 1 294 0
 482 014c 636C     		ldr	r3, [r4, #68]
 483 014e 43F00403 		orr	r3, r3, #4
 484 0152 6364     		str	r3, [r4, #68]
 284:Drivers/STM32F4xx_HAL_Driver/Src/stm32f4xx_hal_i2s_ex.c ****         hi2s->TxXferCount--;
 485              		.loc 1 284 0
 486 0154 1646     		mov	r6, r2
 487 0156 CBE7     		b	.L46
 488              	.LVL24:
 489              	.L91:
 279:Drivers/STM32F4xx_HAL_Driver/Src/stm32f4xx_hal_i2s_ex.c ****           errorcode = HAL_ERROR;
 490              		.loc 1 279 0
 491 0158 636C     		ldr	r3, [r4, #68]
 492 015a 43F00103 		orr	r3, r3, #1
 493 015e 6364     		str	r3, [r4, #68]
 494              	.LVL25:
 280:Drivers/STM32F4xx_HAL_Driver/Src/stm32f4xx_hal_i2s_ex.c ****           goto error;
ARM GAS  C:\Users\User\AppData\Local\Temp\ccqG9tqA.s 			page 31


 495              		.loc 1 280 0
 496 0160 0120     		movs	r0, #1
 281:Drivers/STM32F4xx_HAL_Driver/Src/stm32f4xx_hal_i2s_ex.c ****         }
 497              		.loc 1 281 0
 498 0162 57E7     		b	.L35
 499              	.LVL26:
 500              	.L72:
 284:Drivers/STM32F4xx_HAL_Driver/Src/stm32f4xx_hal_i2s_ex.c ****         hi2s->TxXferCount--;
 501              		.loc 1 284 0
 502 0164 1646     		mov	r6, r2
 503 0166 C3E7     		b	.L46
 504              	.L73:
 505 0168 1646     		mov	r6, r2
 506 016a C1E7     		b	.L46
 507              	.LVL27:
 508              	.L90:
 300:Drivers/STM32F4xx_HAL_Driver/Src/stm32f4xx_hal_i2s_ex.c ****         {
 509              		.loc 1 300 0
 510 016c 0121     		movs	r1, #1
 511 016e 0091     		str	r1, [sp]
 512 0170 0E9B     		ldr	r3, [sp, #56]
 513 0172 0A46     		mov	r2, r1
 514 0174 2046     		mov	r0, r4
 515 0176 FFF7FEFF 		bl	I2SEx_FullDuplexWaitFlagStateUntilTimeout
 516              	.LVL28:
 517 017a 18BB     		cbnz	r0, .L92
 308:Drivers/STM32F4xx_HAL_Driver/Src/stm32f4xx_hal_i2s_ex.c ****         hi2s->RxXferCount--;
 518              		.loc 1 308 0
 519 017c 2268     		ldr	r2, [r4]
 520 017e 564B     		ldr	r3, .L104
 521 0180 9A42     		cmp	r2, r3
 522 0182 25D0     		beq	.L93
 523 0184 4FF04023 		mov	r3, #1073758208
 524              	.L50:
 308:Drivers/STM32F4xx_HAL_Driver/Src/stm32f4xx_hal_i2s_ex.c ****         hi2s->RxXferCount--;
 525              		.loc 1 308 0 is_stmt 0 discriminator 4
 526 0188 DB68     		ldr	r3, [r3, #12]
 527 018a A91C     		adds	r1, r5, #2
 528              	.LVL29:
 529 018c 2B80     		strh	r3, [r5]	@ movhi
 309:Drivers/STM32F4xx_HAL_Driver/Src/stm32f4xx_hal_i2s_ex.c **** 
 530              		.loc 1 309 0 is_stmt 1 discriminator 4
 531 018e 638E     		ldrh	r3, [r4, #50]
 532 0190 013B     		subs	r3, r3, #1
 533 0192 9BB2     		uxth	r3, r3
 534 0194 6386     		strh	r3, [r4, #50]	@ movhi
 312:Drivers/STM32F4xx_HAL_Driver/Src/stm32f4xx_hal_i2s_ex.c ****         {
 535              		.loc 1 312 0 discriminator 4
 536 0196 2368     		ldr	r3, [r4]
 537 0198 4F4A     		ldr	r2, .L104
 538 019a 9342     		cmp	r3, r2
 539 019c 1BD0     		beq	.L94
 312:Drivers/STM32F4xx_HAL_Driver/Src/stm32f4xx_hal_i2s_ex.c ****         {
 540              		.loc 1 312 0 is_stmt 0
 541 019e 4FF04022 		mov	r2, #1073758208
 542              	.L51:
 312:Drivers/STM32F4xx_HAL_Driver/Src/stm32f4xx_hal_i2s_ex.c ****         {
ARM GAS  C:\Users\User\AppData\Local\Temp\ccqG9tqA.s 			page 32


 543              		.loc 1 312 0 discriminator 4
 544 01a2 9268     		ldr	r2, [r2, #8]
 545 01a4 12F0400F 		tst	r2, #64
 546 01a8 18D0     		beq	.L76
 547              	.LBB5:
 315:Drivers/STM32F4xx_HAL_Driver/Src/stm32f4xx_hal_i2s_ex.c **** 
 548              		.loc 1 315 0 is_stmt 1
 549 01aa 0022     		movs	r2, #0
 550 01ac 0492     		str	r2, [sp, #16]
 551 01ae DA68     		ldr	r2, [r3, #12]
 552 01b0 0492     		str	r2, [sp, #16]
 553 01b2 9B68     		ldr	r3, [r3, #8]
 554 01b4 0493     		str	r3, [sp, #16]
 555 01b6 049B     		ldr	r3, [sp, #16]
 556              	.LBE5:
 318:Drivers/STM32F4xx_HAL_Driver/Src/stm32f4xx_hal_i2s_ex.c ****         }
 557              		.loc 1 318 0
 558 01b8 636C     		ldr	r3, [r4, #68]
 559 01ba 43F00203 		orr	r3, r3, #2
 560 01be 6364     		str	r3, [r4, #68]
 308:Drivers/STM32F4xx_HAL_Driver/Src/stm32f4xx_hal_i2s_ex.c ****         hi2s->RxXferCount--;
 561              		.loc 1 308 0
 562 01c0 0D46     		mov	r5, r1
 563 01c2 99E7     		b	.L45
 564              	.LVL30:
 565              	.L92:
 303:Drivers/STM32F4xx_HAL_Driver/Src/stm32f4xx_hal_i2s_ex.c ****           errorcode = HAL_ERROR;
 566              		.loc 1 303 0
 567 01c4 636C     		ldr	r3, [r4, #68]
 568 01c6 43F00103 		orr	r3, r3, #1
 569 01ca 6364     		str	r3, [r4, #68]
 570              	.LVL31:
 304:Drivers/STM32F4xx_HAL_Driver/Src/stm32f4xx_hal_i2s_ex.c ****           goto error;
 571              		.loc 1 304 0
 572 01cc 0120     		movs	r0, #1
 305:Drivers/STM32F4xx_HAL_Driver/Src/stm32f4xx_hal_i2s_ex.c ****         }
 573              		.loc 1 305 0
 574 01ce 21E7     		b	.L35
 575              	.LVL32:
 576              	.L93:
 308:Drivers/STM32F4xx_HAL_Driver/Src/stm32f4xx_hal_i2s_ex.c ****         hi2s->RxXferCount--;
 577              		.loc 1 308 0
 578 01d0 A3F58063 		sub	r3, r3, #1024
 579 01d4 D8E7     		b	.L50
 580              	.LVL33:
 581              	.L94:
 312:Drivers/STM32F4xx_HAL_Driver/Src/stm32f4xx_hal_i2s_ex.c ****         {
 582              		.loc 1 312 0
 583 01d6 A2F58062 		sub	r2, r2, #1024
 584 01da E2E7     		b	.L51
 585              	.L76:
 308:Drivers/STM32F4xx_HAL_Driver/Src/stm32f4xx_hal_i2s_ex.c ****         hi2s->RxXferCount--;
 586              		.loc 1 308 0
 587 01dc 0D46     		mov	r5, r1
 588 01de 8BE7     		b	.L45
 589              	.LVL34:
 590              	.L41:
ARM GAS  C:\Users\User\AppData\Local\Temp\ccqG9tqA.s 			page 33


 327:Drivers/STM32F4xx_HAL_Driver/Src/stm32f4xx_hal_i2s_ex.c ****     hi2s->TxXferCount--;
 591              		.loc 1 327 0
 592 01e0 8E1C     		adds	r6, r1, #2
 593              	.LVL35:
 594 01e2 0A88     		ldrh	r2, [r1]
 595 01e4 3C49     		ldr	r1, .L104
 596 01e6 8B42     		cmp	r3, r1
 597 01e8 24D0     		beq	.L95
 598 01ea 4FF04023 		mov	r3, #1073758208
 599              	.L54:
 327:Drivers/STM32F4xx_HAL_Driver/Src/stm32f4xx_hal_i2s_ex.c ****     hi2s->TxXferCount--;
 600              		.loc 1 327 0 is_stmt 0 discriminator 4
 601 01ee DA60     		str	r2, [r3, #12]
 328:Drivers/STM32F4xx_HAL_Driver/Src/stm32f4xx_hal_i2s_ex.c **** 
 602              		.loc 1 328 0 is_stmt 1 discriminator 4
 603 01f0 638D     		ldrh	r3, [r4, #42]
 604 01f2 013B     		subs	r3, r3, #1
 605 01f4 9BB2     		uxth	r3, r3
 606 01f6 6385     		strh	r3, [r4, #42]	@ movhi
 331:Drivers/STM32F4xx_HAL_Driver/Src/stm32f4xx_hal_i2s_ex.c **** 
 607              		.loc 1 331 0 discriminator 4
 608 01f8 2268     		ldr	r2, [r4]
 609 01fa 374B     		ldr	r3, .L104
 610 01fc 9A42     		cmp	r2, r3
 611 01fe 1BD0     		beq	.L96
 331:Drivers/STM32F4xx_HAL_Driver/Src/stm32f4xx_hal_i2s_ex.c **** 
 612              		.loc 1 331 0 is_stmt 0
 613 0200 4FF04022 		mov	r2, #1073758208
 614              	.L55:
 331:Drivers/STM32F4xx_HAL_Driver/Src/stm32f4xx_hal_i2s_ex.c **** 
 615              		.loc 1 331 0 discriminator 4
 616 0204 D369     		ldr	r3, [r2, #28]
 617 0206 43F48063 		orr	r3, r3, #1024
 618 020a D361     		str	r3, [r2, #28]
 334:Drivers/STM32F4xx_HAL_Driver/Src/stm32f4xx_hal_i2s_ex.c **** 
 619              		.loc 1 334 0 is_stmt 1 discriminator 4
 620 020c 2268     		ldr	r2, [r4]
 621 020e D369     		ldr	r3, [r2, #28]
 622 0210 43F48063 		orr	r3, r3, #1024
 623 0214 D361     		str	r3, [r2, #28]
 337:Drivers/STM32F4xx_HAL_Driver/Src/stm32f4xx_hal_i2s_ex.c ****     {
 624              		.loc 1 337 0 discriminator 4
 625 0216 2268     		ldr	r2, [r4]
 626 0218 D369     		ldr	r3, [r2, #28]
 627 021a 03F44073 		and	r3, r3, #768
 628 021e B3F5407F 		cmp	r3, #768
 629 0222 12D1     		bne	.L57
 630              	.LBB6:
 341:Drivers/STM32F4xx_HAL_Driver/Src/stm32f4xx_hal_i2s_ex.c ****     }
 631              		.loc 1 341 0
 632 0224 0023     		movs	r3, #0
 633 0226 0593     		str	r3, [sp, #20]
 634 0228 D368     		ldr	r3, [r2, #12]
 635 022a 0593     		str	r3, [sp, #20]
 636 022c 9368     		ldr	r3, [r2, #8]
 637 022e 0593     		str	r3, [sp, #20]
 638 0230 059B     		ldr	r3, [sp, #20]
ARM GAS  C:\Users\User\AppData\Local\Temp\ccqG9tqA.s 			page 34


 639 0232 0AE0     		b	.L57
 640              	.L95:
 641              	.LBE6:
 327:Drivers/STM32F4xx_HAL_Driver/Src/stm32f4xx_hal_i2s_ex.c ****     hi2s->TxXferCount--;
 642              		.loc 1 327 0
 643 0234 294B     		ldr	r3, .L104+4
 644 0236 DAE7     		b	.L54
 645              	.L96:
 331:Drivers/STM32F4xx_HAL_Driver/Src/stm32f4xx_hal_i2s_ex.c **** 
 646              		.loc 1 331 0
 647 0238 284A     		ldr	r2, .L104+4
 648 023a E3E7     		b	.L55
 649              	.LVL36:
 650              	.L64:
 346:Drivers/STM32F4xx_HAL_Driver/Src/stm32f4xx_hal_i2s_ex.c ****       {
 651              		.loc 1 346 0
 652 023c 638D     		ldrh	r3, [r4, #42]
 653 023e 9BB2     		uxth	r3, r3
 654 0240 63B9     		cbnz	r3, .L97
 655              	.L58:
 370:Drivers/STM32F4xx_HAL_Driver/Src/stm32f4xx_hal_i2s_ex.c ****       {
 656              		.loc 1 370 0
 657 0242 638E     		ldrh	r3, [r4, #50]
 658 0244 9BB2     		uxth	r3, r3
 659 0246 002B     		cmp	r3, #0
 660 0248 4AD1     		bne	.L98
 661              	.L57:
 344:Drivers/STM32F4xx_HAL_Driver/Src/stm32f4xx_hal_i2s_ex.c ****     {
 662              		.loc 1 344 0
 663 024a 638E     		ldrh	r3, [r4, #50]
 664 024c 9BB2     		uxth	r3, r3
 665 024e 002B     		cmp	r3, #0
 666 0250 F4D1     		bne	.L64
 344:Drivers/STM32F4xx_HAL_Driver/Src/stm32f4xx_hal_i2s_ex.c ****     {
 667              		.loc 1 344 0 is_stmt 0 discriminator 1
 668 0252 638D     		ldrh	r3, [r4, #42]
 669 0254 9BB2     		uxth	r3, r3
 670 0256 002B     		cmp	r3, #0
 671 0258 F0D1     		bne	.L64
 672 025a 55E7     		b	.L53
 673              	.L97:
 349:Drivers/STM32F4xx_HAL_Driver/Src/stm32f4xx_hal_i2s_ex.c ****         {
 674              		.loc 1 349 0 is_stmt 1
 675 025c 0122     		movs	r2, #1
 676 025e 0092     		str	r2, [sp]
 677 0260 0E9B     		ldr	r3, [sp, #56]
 678 0262 0221     		movs	r1, #2
 679 0264 2046     		mov	r0, r4
 680 0266 FFF7FEFF 		bl	I2SEx_FullDuplexWaitFlagStateUntilTimeout
 681              	.LVL37:
 682 026a D8B9     		cbnz	r0, .L99
 357:Drivers/STM32F4xx_HAL_Driver/Src/stm32f4xx_hal_i2s_ex.c ****         hi2s->TxXferCount--;
 683              		.loc 1 357 0
 684 026c B11C     		adds	r1, r6, #2
 685              	.LVL38:
 686 026e 3288     		ldrh	r2, [r6]
 687 0270 2068     		ldr	r0, [r4]
ARM GAS  C:\Users\User\AppData\Local\Temp\ccqG9tqA.s 			page 35


 688 0272 194B     		ldr	r3, .L104
 689 0274 9842     		cmp	r0, r3
 690 0276 1BD0     		beq	.L100
 691 0278 4FF04023 		mov	r3, #1073758208
 692              	.L60:
 357:Drivers/STM32F4xx_HAL_Driver/Src/stm32f4xx_hal_i2s_ex.c ****         hi2s->TxXferCount--;
 693              		.loc 1 357 0 is_stmt 0 discriminator 4
 694 027c DA60     		str	r2, [r3, #12]
 358:Drivers/STM32F4xx_HAL_Driver/Src/stm32f4xx_hal_i2s_ex.c **** 
 695              		.loc 1 358 0 is_stmt 1 discriminator 4
 696 027e 638D     		ldrh	r3, [r4, #42]
 697 0280 013B     		subs	r3, r3, #1
 698 0282 9BB2     		uxth	r3, r3
 699 0284 6385     		strh	r3, [r4, #42]	@ movhi
 361:Drivers/STM32F4xx_HAL_Driver/Src/stm32f4xx_hal_i2s_ex.c ****         {
 700              		.loc 1 361 0 discriminator 4
 701 0286 2368     		ldr	r3, [r4]
 702 0288 134A     		ldr	r2, .L104
 703 028a 9342     		cmp	r3, r2
 704 028c 13D0     		beq	.L101
 361:Drivers/STM32F4xx_HAL_Driver/Src/stm32f4xx_hal_i2s_ex.c ****         {
 705              		.loc 1 361 0 is_stmt 0
 706 028e 4FF04022 		mov	r2, #1073758208
 707              	.L61:
 361:Drivers/STM32F4xx_HAL_Driver/Src/stm32f4xx_hal_i2s_ex.c ****         {
 708              		.loc 1 361 0 discriminator 4
 709 0292 9268     		ldr	r2, [r2, #8]
 710 0294 12F0080F 		tst	r2, #8
 711 0298 1BD0     		beq	.L81
 361:Drivers/STM32F4xx_HAL_Driver/Src/stm32f4xx_hal_i2s_ex.c ****         {
 712              		.loc 1 361 0 discriminator 5
 713 029a B7F5807F 		cmp	r7, #256
 714 029e 0DD0     		beq	.L102
 357:Drivers/STM32F4xx_HAL_Driver/Src/stm32f4xx_hal_i2s_ex.c ****         hi2s->TxXferCount--;
 715              		.loc 1 357 0 is_stmt 1
 716 02a0 0E46     		mov	r6, r1
 717 02a2 CEE7     		b	.L58
 718              	.LVL39:
 719              	.L99:
 352:Drivers/STM32F4xx_HAL_Driver/Src/stm32f4xx_hal_i2s_ex.c ****           errorcode = HAL_ERROR;
 720              		.loc 1 352 0
 721 02a4 636C     		ldr	r3, [r4, #68]
 722 02a6 43F00103 		orr	r3, r3, #1
 723 02aa 6364     		str	r3, [r4, #68]
 724              	.LVL40:
 353:Drivers/STM32F4xx_HAL_Driver/Src/stm32f4xx_hal_i2s_ex.c ****           goto error;
 725              		.loc 1 353 0
 726 02ac 0120     		movs	r0, #1
 354:Drivers/STM32F4xx_HAL_Driver/Src/stm32f4xx_hal_i2s_ex.c ****         }
 727              		.loc 1 354 0
 728 02ae B1E6     		b	.L35
 729              	.LVL41:
 730              	.L100:
 357:Drivers/STM32F4xx_HAL_Driver/Src/stm32f4xx_hal_i2s_ex.c ****         hi2s->TxXferCount--;
 731              		.loc 1 357 0
 732 02b0 A3F58063 		sub	r3, r3, #1024
 733 02b4 E2E7     		b	.L60
ARM GAS  C:\Users\User\AppData\Local\Temp\ccqG9tqA.s 			page 36


 734              	.L101:
 361:Drivers/STM32F4xx_HAL_Driver/Src/stm32f4xx_hal_i2s_ex.c ****         {
 735              		.loc 1 361 0
 736 02b6 A2F58062 		sub	r2, r2, #1024
 737 02ba EAE7     		b	.L61
 738              	.L102:
 739              	.LBB7:
 364:Drivers/STM32F4xx_HAL_Driver/Src/stm32f4xx_hal_i2s_ex.c **** 
 740              		.loc 1 364 0
 741 02bc 0022     		movs	r2, #0
 742 02be 0692     		str	r2, [sp, #24]
 743 02c0 9B68     		ldr	r3, [r3, #8]
 744 02c2 0693     		str	r3, [sp, #24]
 745 02c4 069B     		ldr	r3, [sp, #24]
 746              	.LBE7:
 367:Drivers/STM32F4xx_HAL_Driver/Src/stm32f4xx_hal_i2s_ex.c ****         }
 747              		.loc 1 367 0
 748 02c6 636C     		ldr	r3, [r4, #68]
 749 02c8 43F00403 		orr	r3, r3, #4
 750 02cc 6364     		str	r3, [r4, #68]
 357:Drivers/STM32F4xx_HAL_Driver/Src/stm32f4xx_hal_i2s_ex.c ****         hi2s->TxXferCount--;
 751              		.loc 1 357 0
 752 02ce 0E46     		mov	r6, r1
 753 02d0 B7E7     		b	.L58
 754              	.L81:
 755 02d2 0E46     		mov	r6, r1
 756 02d4 B5E7     		b	.L58
 757              	.L105:
 758 02d6 00BF     		.align	2
 759              	.L104:
 760 02d8 00380040 		.word	1073756160
 761 02dc 00340040 		.word	1073755136
 762              	.LVL42:
 763              	.L98:
 373:Drivers/STM32F4xx_HAL_Driver/Src/stm32f4xx_hal_i2s_ex.c ****         {
 764              		.loc 1 373 0
 765 02e0 0023     		movs	r3, #0
 766 02e2 0093     		str	r3, [sp]
 767 02e4 0E9B     		ldr	r3, [sp, #56]
 768 02e6 0122     		movs	r2, #1
 769 02e8 1146     		mov	r1, r2
 770 02ea 2046     		mov	r0, r4
 771 02ec FFF7FEFF 		bl	I2SEx_FullDuplexWaitFlagStateUntilTimeout
 772              	.LVL43:
 773 02f0 C8B9     		cbnz	r0, .L103
 381:Drivers/STM32F4xx_HAL_Driver/Src/stm32f4xx_hal_i2s_ex.c ****         hi2s->RxXferCount--;
 774              		.loc 1 381 0
 775 02f2 2368     		ldr	r3, [r4]
 776 02f4 DB68     		ldr	r3, [r3, #12]
 777 02f6 A91C     		adds	r1, r5, #2
 778              	.LVL44:
 779 02f8 2B80     		strh	r3, [r5]	@ movhi
 382:Drivers/STM32F4xx_HAL_Driver/Src/stm32f4xx_hal_i2s_ex.c **** 
 780              		.loc 1 382 0
 781 02fa 638E     		ldrh	r3, [r4, #50]
 782 02fc 013B     		subs	r3, r3, #1
 783 02fe 9BB2     		uxth	r3, r3
ARM GAS  C:\Users\User\AppData\Local\Temp\ccqG9tqA.s 			page 37


 784 0300 6386     		strh	r3, [r4, #50]	@ movhi
 385:Drivers/STM32F4xx_HAL_Driver/Src/stm32f4xx_hal_i2s_ex.c ****         {
 785              		.loc 1 385 0
 786 0302 2368     		ldr	r3, [r4]
 787 0304 9A68     		ldr	r2, [r3, #8]
 788 0306 12F0400F 		tst	r2, #64
 789 030a 12D0     		beq	.L83
 790              	.LBB8:
 388:Drivers/STM32F4xx_HAL_Driver/Src/stm32f4xx_hal_i2s_ex.c **** 
 791              		.loc 1 388 0
 792 030c 0022     		movs	r2, #0
 793 030e 0792     		str	r2, [sp, #28]
 794 0310 DA68     		ldr	r2, [r3, #12]
 795 0312 0792     		str	r2, [sp, #28]
 796 0314 9B68     		ldr	r3, [r3, #8]
 797 0316 0793     		str	r3, [sp, #28]
 798 0318 079B     		ldr	r3, [sp, #28]
 799              	.LBE8:
 391:Drivers/STM32F4xx_HAL_Driver/Src/stm32f4xx_hal_i2s_ex.c ****         }
 800              		.loc 1 391 0
 801 031a 636C     		ldr	r3, [r4, #68]
 802 031c 43F00203 		orr	r3, r3, #2
 803 0320 6364     		str	r3, [r4, #68]
 381:Drivers/STM32F4xx_HAL_Driver/Src/stm32f4xx_hal_i2s_ex.c ****         hi2s->RxXferCount--;
 804              		.loc 1 381 0
 805 0322 0D46     		mov	r5, r1
 806 0324 91E7     		b	.L57
 807              	.LVL45:
 808              	.L103:
 376:Drivers/STM32F4xx_HAL_Driver/Src/stm32f4xx_hal_i2s_ex.c ****           errorcode = HAL_ERROR;
 809              		.loc 1 376 0
 810 0326 636C     		ldr	r3, [r4, #68]
 811 0328 43F00103 		orr	r3, r3, #1
 812 032c 6364     		str	r3, [r4, #68]
 813              	.LVL46:
 377:Drivers/STM32F4xx_HAL_Driver/Src/stm32f4xx_hal_i2s_ex.c ****           goto error;
 814              		.loc 1 377 0
 815 032e 0120     		movs	r0, #1
 378:Drivers/STM32F4xx_HAL_Driver/Src/stm32f4xx_hal_i2s_ex.c ****         }
 816              		.loc 1 378 0
 817 0330 70E6     		b	.L35
 818              	.LVL47:
 819              	.L83:
 381:Drivers/STM32F4xx_HAL_Driver/Src/stm32f4xx_hal_i2s_ex.c ****         hi2s->RxXferCount--;
 820              		.loc 1 381 0
 821 0332 0D46     		mov	r5, r1
 822 0334 89E7     		b	.L57
 823              	.LVL48:
 824              	.L84:
 399:Drivers/STM32F4xx_HAL_Driver/Src/stm32f4xx_hal_i2s_ex.c ****   }
 825              		.loc 1 399 0
 826 0336 0120     		movs	r0, #1
 827 0338 6CE6     		b	.L35
 828              	.LVL49:
 829              	.L66:
 219:Drivers/STM32F4xx_HAL_Driver/Src/stm32f4xx_hal_i2s_ex.c ****   }
 830              		.loc 1 219 0
ARM GAS  C:\Users\User\AppData\Local\Temp\ccqG9tqA.s 			page 38


 831 033a 0120     		movs	r0, #1
 832              	.LVL50:
 833 033c 70E6     		b	.L36
 834              	.LVL51:
 835              	.L67:
 836 033e 0120     		movs	r0, #1
 837              	.LVL52:
 838 0340 6EE6     		b	.L36
 839              	.LVL53:
 840              	.L68:
 841 0342 0120     		movs	r0, #1
 842              	.LVL54:
 843 0344 6CE6     		b	.L36
 844              	.LVL55:
 845              	.L69:
 223:Drivers/STM32F4xx_HAL_Driver/Src/stm32f4xx_hal_i2s_ex.c **** 
 846              		.loc 1 223 0
 847 0346 0220     		movs	r0, #2
 848              	.LVL56:
 849 0348 6AE6     		b	.L36
 850              		.cfi_endproc
 851              	.LFE130:
 853 034a 00BF     		.section	.text.HAL_I2SEx_TransmitReceive_IT,"ax",%progbits
 854              		.align	1
 855              		.global	HAL_I2SEx_TransmitReceive_IT
 856              		.syntax unified
 857              		.thumb
 858              		.thumb_func
 859              		.fpu fpv4-sp-d16
 861              	HAL_I2SEx_TransmitReceive_IT:
 862              	.LFB131:
 425:Drivers/STM32F4xx_HAL_Driver/Src/stm32f4xx_hal_i2s_ex.c ****   uint32_t tmp1 = 0U;
 863              		.loc 1 425 0
 864              		.cfi_startproc
 865              		@ args = 0, pretend = 0, frame = 0
 866              		@ frame_needed = 0, uses_anonymous_args = 0
 867              		@ link register save eliminated.
 868              	.LVL57:
 869 0000 10B4     		push	{r4}
 870              	.LCFI6:
 871              		.cfi_def_cfa_offset 4
 872              		.cfi_offset 4, -4
 873              	.LVL58:
 429:Drivers/STM32F4xx_HAL_Driver/Src/stm32f4xx_hal_i2s_ex.c ****   {
 874              		.loc 1 429 0
 875 0002 90F84140 		ldrb	r4, [r0, #65]	@ zero_extendqisi2
 876 0006 E4B2     		uxtb	r4, r4
 877 0008 012C     		cmp	r4, #1
 878 000a 07D0     		beq	.L131
 431:Drivers/STM32F4xx_HAL_Driver/Src/stm32f4xx_hal_i2s_ex.c ****     goto error;
 879              		.loc 1 431 0
 880 000c 0223     		movs	r3, #2
 881              	.LVL59:
 882              	.L107:
 514:Drivers/STM32F4xx_HAL_Driver/Src/stm32f4xx_hal_i2s_ex.c ****   return errorcode;
 883              		.loc 1 514 0
 884 000e 0022     		movs	r2, #0
ARM GAS  C:\Users\User\AppData\Local\Temp\ccqG9tqA.s 			page 39


 885 0010 80F84020 		strb	r2, [r0, #64]
 886              	.LVL60:
 887              	.L108:
 516:Drivers/STM32F4xx_HAL_Driver/Src/stm32f4xx_hal_i2s_ex.c **** 
 888              		.loc 1 516 0
 889 0014 1846     		mov	r0, r3
 890              	.LVL61:
 891 0016 5DF8044B 		ldr	r4, [sp], #4
 892              	.LCFI7:
 893              		.cfi_remember_state
 894              		.cfi_restore 4
 895              		.cfi_def_cfa_offset 0
 896 001a 7047     		bx	lr
 897              	.LVL62:
 898              	.L131:
 899              	.LCFI8:
 900              		.cfi_restore_state
 435:Drivers/STM32F4xx_HAL_Driver/Src/stm32f4xx_hal_i2s_ex.c ****   {
 901              		.loc 1 435 0
 902 001c 0029     		cmp	r1, #0
 903 001e 00F09980 		beq	.L121
 435:Drivers/STM32F4xx_HAL_Driver/Src/stm32f4xx_hal_i2s_ex.c ****   {
 904              		.loc 1 435 0 is_stmt 0 discriminator 1
 905 0022 002A     		cmp	r2, #0
 906 0024 00F09880 		beq	.L122
 435:Drivers/STM32F4xx_HAL_Driver/Src/stm32f4xx_hal_i2s_ex.c ****   {
 907              		.loc 1 435 0 discriminator 2
 908 0028 002B     		cmp	r3, #0
 909 002a 00F09780 		beq	.L123
 441:Drivers/STM32F4xx_HAL_Driver/Src/stm32f4xx_hal_i2s_ex.c **** 
 910              		.loc 1 441 0 is_stmt 1
 911 002e 90F84040 		ldrb	r4, [r0, #64]	@ zero_extendqisi2
 912 0032 E4B2     		uxtb	r4, r4
 913 0034 012C     		cmp	r4, #1
 914 0036 00F09380 		beq	.L124
 441:Drivers/STM32F4xx_HAL_Driver/Src/stm32f4xx_hal_i2s_ex.c **** 
 915              		.loc 1 441 0 is_stmt 0 discriminator 2
 916 003a 0124     		movs	r4, #1
 917 003c 80F84040 		strb	r4, [r0, #64]
 443:Drivers/STM32F4xx_HAL_Driver/Src/stm32f4xx_hal_i2s_ex.c ****   hi2s->pRxBuffPtr = pRxData;
 918              		.loc 1 443 0 is_stmt 1 discriminator 2
 919 0040 4162     		str	r1, [r0, #36]
 444:Drivers/STM32F4xx_HAL_Driver/Src/stm32f4xx_hal_i2s_ex.c **** 
 920              		.loc 1 444 0 discriminator 2
 921 0042 C262     		str	r2, [r0, #44]
 446:Drivers/STM32F4xx_HAL_Driver/Src/stm32f4xx_hal_i2s_ex.c ****   /* Check the Data format: When a 16-bit data frame or a 16-bit data frame extended
 922              		.loc 1 446 0 discriminator 2
 923 0044 0268     		ldr	r2, [r0]
 924              	.LVL63:
 925 0046 D269     		ldr	r2, [r2, #28]
 926 0048 02F00702 		and	r2, r2, #7
 927              	.LVL64:
 451:Drivers/STM32F4xx_HAL_Driver/Src/stm32f4xx_hal_i2s_ex.c ****   {
 928              		.loc 1 451 0 discriminator 2
 929 004c 032A     		cmp	r2, #3
 930 004e 06D0     		beq	.L109
 451:Drivers/STM32F4xx_HAL_Driver/Src/stm32f4xx_hal_i2s_ex.c ****   {
ARM GAS  C:\Users\User\AppData\Local\Temp\ccqG9tqA.s 			page 40


 931              		.loc 1 451 0 is_stmt 0 discriminator 1
 932 0050 052A     		cmp	r2, #5
 933 0052 04D0     		beq	.L109
 460:Drivers/STM32F4xx_HAL_Driver/Src/stm32f4xx_hal_i2s_ex.c ****     hi2s->TxXferCount = Size;
 934              		.loc 1 460 0 is_stmt 1
 935 0054 0385     		strh	r3, [r0, #40]	@ movhi
 461:Drivers/STM32F4xx_HAL_Driver/Src/stm32f4xx_hal_i2s_ex.c ****     hi2s->RxXferSize  = Size;
 936              		.loc 1 461 0
 937 0056 4385     		strh	r3, [r0, #42]	@ movhi
 462:Drivers/STM32F4xx_HAL_Driver/Src/stm32f4xx_hal_i2s_ex.c ****     hi2s->RxXferCount = Size;
 938              		.loc 1 462 0
 939 0058 0386     		strh	r3, [r0, #48]	@ movhi
 463:Drivers/STM32F4xx_HAL_Driver/Src/stm32f4xx_hal_i2s_ex.c ****   }
 940              		.loc 1 463 0
 941 005a 4386     		strh	r3, [r0, #50]	@ movhi
 942 005c 05E0     		b	.L111
 943              	.L109:
 453:Drivers/STM32F4xx_HAL_Driver/Src/stm32f4xx_hal_i2s_ex.c ****     hi2s->TxXferCount = (Size << 1U);
 944              		.loc 1 453 0
 945 005e 5B00     		lsls	r3, r3, #1
 946              	.LVL65:
 947 0060 9BB2     		uxth	r3, r3
 948 0062 0385     		strh	r3, [r0, #40]	@ movhi
 454:Drivers/STM32F4xx_HAL_Driver/Src/stm32f4xx_hal_i2s_ex.c ****     hi2s->RxXferSize  = (Size << 1U);
 949              		.loc 1 454 0
 950 0064 4385     		strh	r3, [r0, #42]	@ movhi
 455:Drivers/STM32F4xx_HAL_Driver/Src/stm32f4xx_hal_i2s_ex.c ****     hi2s->RxXferCount = (Size << 1U);
 951              		.loc 1 455 0
 952 0066 0386     		strh	r3, [r0, #48]	@ movhi
 456:Drivers/STM32F4xx_HAL_Driver/Src/stm32f4xx_hal_i2s_ex.c ****   }
 953              		.loc 1 456 0
 954 0068 4386     		strh	r3, [r0, #50]	@ movhi
 955              	.L111:
 466:Drivers/STM32F4xx_HAL_Driver/Src/stm32f4xx_hal_i2s_ex.c ****   hi2s->State     = HAL_I2S_STATE_BUSY_TX_RX;
 956              		.loc 1 466 0
 957 006a 0023     		movs	r3, #0
 958 006c 4364     		str	r3, [r0, #68]
 467:Drivers/STM32F4xx_HAL_Driver/Src/stm32f4xx_hal_i2s_ex.c **** 
 959              		.loc 1 467 0
 960 006e 0523     		movs	r3, #5
 961 0070 80F84130 		strb	r3, [r0, #65]
 470:Drivers/STM32F4xx_HAL_Driver/Src/stm32f4xx_hal_i2s_ex.c ****   {
 962              		.loc 1 470 0
 963 0074 4368     		ldr	r3, [r0, #4]
 964 0076 B3F5007F 		cmp	r3, #512
 965 007a 01D0     		beq	.L112
 470:Drivers/STM32F4xx_HAL_Driver/Src/stm32f4xx_hal_i2s_ex.c ****   {
 966              		.loc 1 470 0 is_stmt 0 discriminator 1
 967 007c 002B     		cmp	r3, #0
 968 007e 33D1     		bne	.L113
 969              	.L112:
 473:Drivers/STM32F4xx_HAL_Driver/Src/stm32f4xx_hal_i2s_ex.c **** 
 970              		.loc 1 473 0 is_stmt 1
 971 0080 0268     		ldr	r2, [r0]
 972              	.LVL66:
 973 0082 384B     		ldr	r3, .L137
 974 0084 9A42     		cmp	r2, r3
ARM GAS  C:\Users\User\AppData\Local\Temp\ccqG9tqA.s 			page 41


 975 0086 2DD0     		beq	.L132
 976 0088 4FF04022 		mov	r2, #1073758208
 977              	.L114:
 473:Drivers/STM32F4xx_HAL_Driver/Src/stm32f4xx_hal_i2s_ex.c **** 
 978              		.loc 1 473 0 is_stmt 0 discriminator 4
 979 008c 5368     		ldr	r3, [r2, #4]
 980 008e 43F06003 		orr	r3, r3, #96
 981 0092 5360     		str	r3, [r2, #4]
 982              	.LVL67:
 476:Drivers/STM32F4xx_HAL_Driver/Src/stm32f4xx_hal_i2s_ex.c **** 
 983              		.loc 1 476 0 is_stmt 1 discriminator 4
 984 0094 0268     		ldr	r2, [r0]
 985 0096 5368     		ldr	r3, [r2, #4]
 986 0098 43F0A003 		orr	r3, r3, #160
 987 009c 5360     		str	r3, [r2, #4]
 479:Drivers/STM32F4xx_HAL_Driver/Src/stm32f4xx_hal_i2s_ex.c ****     hi2s->TxXferCount--;
 988              		.loc 1 479 0 discriminator 4
 989 009e 436A     		ldr	r3, [r0, #36]
 990 00a0 9A1C     		adds	r2, r3, #2
 991 00a2 4262     		str	r2, [r0, #36]
 992 00a4 0268     		ldr	r2, [r0]
 993 00a6 1B88     		ldrh	r3, [r3]
 994 00a8 D360     		str	r3, [r2, #12]
 480:Drivers/STM32F4xx_HAL_Driver/Src/stm32f4xx_hal_i2s_ex.c **** 
 995              		.loc 1 480 0 discriminator 4
 996 00aa 438D     		ldrh	r3, [r0, #42]
 997 00ac 013B     		subs	r3, r3, #1
 998 00ae 9BB2     		uxth	r3, r3
 999 00b0 4385     		strh	r3, [r0, #42]	@ movhi
 482:Drivers/STM32F4xx_HAL_Driver/Src/stm32f4xx_hal_i2s_ex.c ****     {
 1000              		.loc 1 482 0 discriminator 4
 1001 00b2 438D     		ldrh	r3, [r0, #42]
 1002 00b4 9BB2     		uxth	r3, r3
 1003 00b6 23B9     		cbnz	r3, .L115
 485:Drivers/STM32F4xx_HAL_Driver/Src/stm32f4xx_hal_i2s_ex.c ****     }
 1004              		.loc 1 485 0
 1005 00b8 0268     		ldr	r2, [r0]
 1006 00ba 5368     		ldr	r3, [r2, #4]
 1007 00bc 23F0A003 		bic	r3, r3, #160
 1008 00c0 5360     		str	r3, [r2, #4]
 1009              	.LVL68:
 1010              	.L115:
 508:Drivers/STM32F4xx_HAL_Driver/Src/stm32f4xx_hal_i2s_ex.c **** 
 1011              		.loc 1 508 0
 1012 00c2 0268     		ldr	r2, [r0]
 1013 00c4 274B     		ldr	r3, .L137
 1014 00c6 9A42     		cmp	r2, r3
 1015 00c8 42D0     		beq	.L133
 1016 00ca 4FF04022 		mov	r2, #1073758208
 1017              	.L119:
 508:Drivers/STM32F4xx_HAL_Driver/Src/stm32f4xx_hal_i2s_ex.c **** 
 1018              		.loc 1 508 0 is_stmt 0 discriminator 4
 1019 00ce D369     		ldr	r3, [r2, #28]
 1020 00d0 43F48063 		orr	r3, r3, #1024
 1021 00d4 D361     		str	r3, [r2, #28]
 511:Drivers/STM32F4xx_HAL_Driver/Src/stm32f4xx_hal_i2s_ex.c **** 
 1022              		.loc 1 511 0 is_stmt 1 discriminator 4
ARM GAS  C:\Users\User\AppData\Local\Temp\ccqG9tqA.s 			page 42


 1023 00d6 0268     		ldr	r2, [r0]
 1024 00d8 D369     		ldr	r3, [r2, #28]
 1025 00da 43F48063 		orr	r3, r3, #1024
 1026 00de D361     		str	r3, [r2, #28]
 427:Drivers/STM32F4xx_HAL_Driver/Src/stm32f4xx_hal_i2s_ex.c **** 
 1027              		.loc 1 427 0 discriminator 4
 1028 00e0 0023     		movs	r3, #0
 1029 00e2 94E7     		b	.L107
 1030              	.LVL69:
 1031              	.L132:
 473:Drivers/STM32F4xx_HAL_Driver/Src/stm32f4xx_hal_i2s_ex.c **** 
 1032              		.loc 1 473 0
 1033 00e4 204A     		ldr	r2, .L137+4
 1034 00e6 D1E7     		b	.L114
 1035              	.LVL70:
 1036              	.L113:
 491:Drivers/STM32F4xx_HAL_Driver/Src/stm32f4xx_hal_i2s_ex.c **** 
 1037              		.loc 1 491 0
 1038 00e8 0268     		ldr	r2, [r0]
 1039              	.LVL71:
 1040 00ea 1E4B     		ldr	r3, .L137
 1041 00ec 9A42     		cmp	r2, r3
 1042 00ee 28D0     		beq	.L134
 1043 00f0 4FF04022 		mov	r2, #1073758208
 1044              	.L116:
 491:Drivers/STM32F4xx_HAL_Driver/Src/stm32f4xx_hal_i2s_ex.c **** 
 1045              		.loc 1 491 0 is_stmt 0 discriminator 4
 1046 00f4 5368     		ldr	r3, [r2, #4]
 1047 00f6 43F0A003 		orr	r3, r3, #160
 1048 00fa 5360     		str	r3, [r2, #4]
 1049              	.LVL72:
 494:Drivers/STM32F4xx_HAL_Driver/Src/stm32f4xx_hal_i2s_ex.c **** 
 1050              		.loc 1 494 0 is_stmt 1 discriminator 4
 1051 00fc 0268     		ldr	r2, [r0]
 1052 00fe 5368     		ldr	r3, [r2, #4]
 1053 0100 43F06003 		orr	r3, r3, #96
 1054 0104 5360     		str	r3, [r2, #4]
 497:Drivers/STM32F4xx_HAL_Driver/Src/stm32f4xx_hal_i2s_ex.c ****     hi2s->TxXferCount--;
 1055              		.loc 1 497 0 discriminator 4
 1056 0106 436A     		ldr	r3, [r0, #36]
 1057 0108 9A1C     		adds	r2, r3, #2
 1058 010a 4262     		str	r2, [r0, #36]
 1059 010c 1B88     		ldrh	r3, [r3]
 1060 010e 0168     		ldr	r1, [r0]
 1061              	.LVL73:
 1062 0110 144A     		ldr	r2, .L137
 1063 0112 9142     		cmp	r1, r2
 1064 0114 17D0     		beq	.L135
 497:Drivers/STM32F4xx_HAL_Driver/Src/stm32f4xx_hal_i2s_ex.c ****     hi2s->TxXferCount--;
 1065              		.loc 1 497 0 is_stmt 0
 1066 0116 4FF04022 		mov	r2, #1073758208
 1067              	.L117:
 497:Drivers/STM32F4xx_HAL_Driver/Src/stm32f4xx_hal_i2s_ex.c ****     hi2s->TxXferCount--;
 1068              		.loc 1 497 0 discriminator 4
 1069 011a D360     		str	r3, [r2, #12]
 498:Drivers/STM32F4xx_HAL_Driver/Src/stm32f4xx_hal_i2s_ex.c **** 
 1070              		.loc 1 498 0 is_stmt 1 discriminator 4
ARM GAS  C:\Users\User\AppData\Local\Temp\ccqG9tqA.s 			page 43


 1071 011c 438D     		ldrh	r3, [r0, #42]
 1072 011e 013B     		subs	r3, r3, #1
 1073 0120 9BB2     		uxth	r3, r3
 1074 0122 4385     		strh	r3, [r0, #42]	@ movhi
 500:Drivers/STM32F4xx_HAL_Driver/Src/stm32f4xx_hal_i2s_ex.c ****     {
 1075              		.loc 1 500 0 discriminator 4
 1076 0124 438D     		ldrh	r3, [r0, #42]
 1077 0126 9BB2     		uxth	r3, r3
 1078 0128 002B     		cmp	r3, #0
 1079 012a CAD1     		bne	.L115
 503:Drivers/STM32F4xx_HAL_Driver/Src/stm32f4xx_hal_i2s_ex.c ****     }
 1080              		.loc 1 503 0
 1081 012c 0268     		ldr	r2, [r0]
 1082 012e 0D4B     		ldr	r3, .L137
 1083 0130 9A42     		cmp	r2, r3
 1084 0132 0BD0     		beq	.L136
 1085 0134 4FF04022 		mov	r2, #1073758208
 1086              	.L118:
 503:Drivers/STM32F4xx_HAL_Driver/Src/stm32f4xx_hal_i2s_ex.c ****     }
 1087              		.loc 1 503 0 is_stmt 0 discriminator 4
 1088 0138 5368     		ldr	r3, [r2, #4]
 1089 013a 23F0A003 		bic	r3, r3, #160
 1090 013e 5360     		str	r3, [r2, #4]
 1091 0140 BFE7     		b	.L115
 1092              	.LVL74:
 1093              	.L134:
 491:Drivers/STM32F4xx_HAL_Driver/Src/stm32f4xx_hal_i2s_ex.c **** 
 1094              		.loc 1 491 0 is_stmt 1
 1095 0142 094A     		ldr	r2, .L137+4
 1096 0144 D6E7     		b	.L116
 1097              	.LVL75:
 1098              	.L135:
 497:Drivers/STM32F4xx_HAL_Driver/Src/stm32f4xx_hal_i2s_ex.c ****     hi2s->TxXferCount--;
 1099              		.loc 1 497 0
 1100 0146 A2F58062 		sub	r2, r2, #1024
 1101 014a E6E7     		b	.L117
 1102              	.L136:
 503:Drivers/STM32F4xx_HAL_Driver/Src/stm32f4xx_hal_i2s_ex.c ****     }
 1103              		.loc 1 503 0
 1104 014c 064A     		ldr	r2, .L137+4
 1105 014e F3E7     		b	.L118
 1106              	.L133:
 508:Drivers/STM32F4xx_HAL_Driver/Src/stm32f4xx_hal_i2s_ex.c **** 
 1107              		.loc 1 508 0
 1108 0150 054A     		ldr	r2, .L137+4
 1109 0152 BCE7     		b	.L119
 1110              	.LVL76:
 1111              	.L121:
 437:Drivers/STM32F4xx_HAL_Driver/Src/stm32f4xx_hal_i2s_ex.c ****   }
 1112              		.loc 1 437 0
 1113 0154 0123     		movs	r3, #1
 1114              	.LVL77:
 1115 0156 5DE7     		b	.L108
 1116              	.LVL78:
 1117              	.L122:
 1118 0158 0123     		movs	r3, #1
 1119              	.LVL79:
ARM GAS  C:\Users\User\AppData\Local\Temp\ccqG9tqA.s 			page 44


 1120 015a 5BE7     		b	.L108
 1121              	.LVL80:
 1122              	.L123:
 1123 015c 0123     		movs	r3, #1
 1124              	.LVL81:
 1125 015e 59E7     		b	.L108
 1126              	.LVL82:
 1127              	.L124:
 441:Drivers/STM32F4xx_HAL_Driver/Src/stm32f4xx_hal_i2s_ex.c **** 
 1128              		.loc 1 441 0
 1129 0160 0223     		movs	r3, #2
 1130              	.LVL83:
 1131 0162 57E7     		b	.L108
 1132              	.L138:
 1133              		.align	2
 1134              	.L137:
 1135 0164 00380040 		.word	1073756160
 1136 0168 00340040 		.word	1073755136
 1137              		.cfi_endproc
 1138              	.LFE131:
 1140              		.section	.text.HAL_I2SEx_TransmitReceive_DMA,"ax",%progbits
 1141              		.align	1
 1142              		.global	HAL_I2SEx_TransmitReceive_DMA
 1143              		.syntax unified
 1144              		.thumb
 1145              		.thumb_func
 1146              		.fpu fpv4-sp-d16
 1148              	HAL_I2SEx_TransmitReceive_DMA:
 1149              	.LFB132:
 535:Drivers/STM32F4xx_HAL_Driver/Src/stm32f4xx_hal_i2s_ex.c ****   uint32_t *tmp = NULL;
 1150              		.loc 1 535 0
 1151              		.cfi_startproc
 1152              		@ args = 0, pretend = 0, frame = 8
 1153              		@ frame_needed = 0, uses_anonymous_args = 0
 1154              	.LVL84:
 1155 0000 70B5     		push	{r4, r5, r6, lr}
 1156              	.LCFI9:
 1157              		.cfi_def_cfa_offset 16
 1158              		.cfi_offset 4, -16
 1159              		.cfi_offset 5, -12
 1160              		.cfi_offset 6, -8
 1161              		.cfi_offset 14, -4
 1162 0002 82B0     		sub	sp, sp, #8
 1163              	.LCFI10:
 1164              		.cfi_def_cfa_offset 24
 1165 0004 0446     		mov	r4, r0
 1166 0006 1646     		mov	r6, r2
 1167              	.LVL85:
 540:Drivers/STM32F4xx_HAL_Driver/Src/stm32f4xx_hal_i2s_ex.c ****   {
 1168              		.loc 1 540 0
 1169 0008 90F84120 		ldrb	r2, [r0, #65]	@ zero_extendqisi2
 1170              	.LVL86:
 1171 000c D2B2     		uxtb	r2, r2
 1172 000e 012A     		cmp	r2, #1
 1173 0010 05D0     		beq	.L168
 542:Drivers/STM32F4xx_HAL_Driver/Src/stm32f4xx_hal_i2s_ex.c ****     goto error;
 1174              		.loc 1 542 0
ARM GAS  C:\Users\User\AppData\Local\Temp\ccqG9tqA.s 			page 45


 1175 0012 0220     		movs	r0, #2
 1176              	.LVL87:
 1177              	.L140:
 660:Drivers/STM32F4xx_HAL_Driver/Src/stm32f4xx_hal_i2s_ex.c ****   return errorcode;
 1178              		.loc 1 660 0
 1179 0014 0023     		movs	r3, #0
 1180 0016 84F84030 		strb	r3, [r4, #64]
 1181              	.LVL88:
 1182              	.L141:
 662:Drivers/STM32F4xx_HAL_Driver/Src/stm32f4xx_hal_i2s_ex.c **** 
 1183              		.loc 1 662 0
 1184 001a 02B0     		add	sp, sp, #8
 1185              	.LCFI11:
 1186              		.cfi_remember_state
 1187              		.cfi_def_cfa_offset 16
 1188              		@ sp needed
 1189 001c 70BD     		pop	{r4, r5, r6, pc}
 1190              	.LVL89:
 1191              	.L168:
 1192              	.LCFI12:
 1193              		.cfi_restore_state
 1194 001e 0D46     		mov	r5, r1
 546:Drivers/STM32F4xx_HAL_Driver/Src/stm32f4xx_hal_i2s_ex.c ****   {
 1195              		.loc 1 546 0
 1196 0020 0029     		cmp	r1, #0
 1197 0022 00F0CD80 		beq	.L155
 546:Drivers/STM32F4xx_HAL_Driver/Src/stm32f4xx_hal_i2s_ex.c ****   {
 1198              		.loc 1 546 0 is_stmt 0 discriminator 1
 1199 0026 002E     		cmp	r6, #0
 1200 0028 00F0CC80 		beq	.L156
 546:Drivers/STM32F4xx_HAL_Driver/Src/stm32f4xx_hal_i2s_ex.c ****   {
 1201              		.loc 1 546 0 discriminator 2
 1202 002c 002B     		cmp	r3, #0
 1203 002e 00F0CB80 		beq	.L157
 552:Drivers/STM32F4xx_HAL_Driver/Src/stm32f4xx_hal_i2s_ex.c **** 
 1204              		.loc 1 552 0 is_stmt 1
 1205 0032 90F84020 		ldrb	r2, [r0, #64]	@ zero_extendqisi2
 1206 0036 D2B2     		uxtb	r2, r2
 1207 0038 012A     		cmp	r2, #1
 1208 003a 00F0C780 		beq	.L158
 552:Drivers/STM32F4xx_HAL_Driver/Src/stm32f4xx_hal_i2s_ex.c **** 
 1209              		.loc 1 552 0 is_stmt 0 discriminator 2
 1210 003e 0122     		movs	r2, #1
 1211 0040 80F84020 		strb	r2, [r0, #64]
 554:Drivers/STM32F4xx_HAL_Driver/Src/stm32f4xx_hal_i2s_ex.c ****   hi2s->pRxBuffPtr = pRxData;
 1212              		.loc 1 554 0 is_stmt 1 discriminator 2
 1213 0044 6162     		str	r1, [r4, #36]
 555:Drivers/STM32F4xx_HAL_Driver/Src/stm32f4xx_hal_i2s_ex.c **** 
 1214              		.loc 1 555 0 discriminator 2
 1215 0046 C662     		str	r6, [r0, #44]
 557:Drivers/STM32F4xx_HAL_Driver/Src/stm32f4xx_hal_i2s_ex.c ****   /* Check the Data format: When a 16-bit data frame or a 16-bit data frame extended
 1216              		.loc 1 557 0 discriminator 2
 1217 0048 0268     		ldr	r2, [r0]
 1218 004a D269     		ldr	r2, [r2, #28]
 1219 004c 02F00702 		and	r2, r2, #7
 1220              	.LVL90:
 562:Drivers/STM32F4xx_HAL_Driver/Src/stm32f4xx_hal_i2s_ex.c ****   {
ARM GAS  C:\Users\User\AppData\Local\Temp\ccqG9tqA.s 			page 46


 1221              		.loc 1 562 0 discriminator 2
 1222 0050 032A     		cmp	r2, #3
 1223 0052 06D0     		beq	.L142
 562:Drivers/STM32F4xx_HAL_Driver/Src/stm32f4xx_hal_i2s_ex.c ****   {
 1224              		.loc 1 562 0 is_stmt 0 discriminator 1
 1225 0054 052A     		cmp	r2, #5
 1226 0056 04D0     		beq	.L142
 571:Drivers/STM32F4xx_HAL_Driver/Src/stm32f4xx_hal_i2s_ex.c ****     hi2s->TxXferCount = Size;
 1227              		.loc 1 571 0 is_stmt 1
 1228 0058 0385     		strh	r3, [r0, #40]	@ movhi
 572:Drivers/STM32F4xx_HAL_Driver/Src/stm32f4xx_hal_i2s_ex.c ****     hi2s->RxXferSize  = Size;
 1229              		.loc 1 572 0
 1230 005a 4385     		strh	r3, [r0, #42]	@ movhi
 573:Drivers/STM32F4xx_HAL_Driver/Src/stm32f4xx_hal_i2s_ex.c ****     hi2s->RxXferCount = Size;
 1231              		.loc 1 573 0
 1232 005c 0386     		strh	r3, [r0, #48]	@ movhi
 574:Drivers/STM32F4xx_HAL_Driver/Src/stm32f4xx_hal_i2s_ex.c ****   }
 1233              		.loc 1 574 0
 1234 005e 4386     		strh	r3, [r0, #50]	@ movhi
 1235 0060 05E0     		b	.L144
 1236              	.L142:
 564:Drivers/STM32F4xx_HAL_Driver/Src/stm32f4xx_hal_i2s_ex.c ****     hi2s->TxXferCount = (Size << 1U);
 1237              		.loc 1 564 0
 1238 0062 5B00     		lsls	r3, r3, #1
 1239              	.LVL91:
 1240 0064 9BB2     		uxth	r3, r3
 1241 0066 2385     		strh	r3, [r4, #40]	@ movhi
 565:Drivers/STM32F4xx_HAL_Driver/Src/stm32f4xx_hal_i2s_ex.c ****     hi2s->RxXferSize  = (Size << 1U);
 1242              		.loc 1 565 0
 1243 0068 6385     		strh	r3, [r4, #42]	@ movhi
 566:Drivers/STM32F4xx_HAL_Driver/Src/stm32f4xx_hal_i2s_ex.c ****     hi2s->RxXferCount = (Size << 1U);
 1244              		.loc 1 566 0
 1245 006a 2386     		strh	r3, [r4, #48]	@ movhi
 567:Drivers/STM32F4xx_HAL_Driver/Src/stm32f4xx_hal_i2s_ex.c ****   }
 1246              		.loc 1 567 0
 1247 006c 6386     		strh	r3, [r4, #50]	@ movhi
 1248              	.L144:
 577:Drivers/STM32F4xx_HAL_Driver/Src/stm32f4xx_hal_i2s_ex.c ****   hi2s->State     = HAL_I2S_STATE_BUSY_TX_RX;
 1249              		.loc 1 577 0
 1250 006e 0023     		movs	r3, #0
 1251 0070 6364     		str	r3, [r4, #68]
 578:Drivers/STM32F4xx_HAL_Driver/Src/stm32f4xx_hal_i2s_ex.c **** 
 1252              		.loc 1 578 0
 1253 0072 0523     		movs	r3, #5
 1254 0074 84F84130 		strb	r3, [r4, #65]
 581:Drivers/STM32F4xx_HAL_Driver/Src/stm32f4xx_hal_i2s_ex.c **** 
 1255              		.loc 1 581 0
 1256 0078 E36B     		ldr	r3, [r4, #60]
 1257 007a 5549     		ldr	r1, .L176
 1258              	.LVL92:
 1259 007c 1964     		str	r1, [r3, #64]
 584:Drivers/STM32F4xx_HAL_Driver/Src/stm32f4xx_hal_i2s_ex.c **** 
 1260              		.loc 1 584 0
 1261 007e E36B     		ldr	r3, [r4, #60]
 1262 0080 544A     		ldr	r2, .L176+4
 1263              	.LVL93:
 1264 0082 DA63     		str	r2, [r3, #60]
ARM GAS  C:\Users\User\AppData\Local\Temp\ccqG9tqA.s 			page 47


 587:Drivers/STM32F4xx_HAL_Driver/Src/stm32f4xx_hal_i2s_ex.c **** 
 1265              		.loc 1 587 0
 1266 0084 E06B     		ldr	r0, [r4, #60]
 1267              	.LVL94:
 1268 0086 544B     		ldr	r3, .L176+8
 1269 0088 C364     		str	r3, [r0, #76]
 590:Drivers/STM32F4xx_HAL_Driver/Src/stm32f4xx_hal_i2s_ex.c **** 
 1270              		.loc 1 590 0
 1271 008a A06B     		ldr	r0, [r4, #56]
 1272 008c 0164     		str	r1, [r0, #64]
 593:Drivers/STM32F4xx_HAL_Driver/Src/stm32f4xx_hal_i2s_ex.c **** 
 1273              		.loc 1 593 0
 1274 008e A16B     		ldr	r1, [r4, #56]
 1275 0090 CA63     		str	r2, [r1, #60]
 596:Drivers/STM32F4xx_HAL_Driver/Src/stm32f4xx_hal_i2s_ex.c **** 
 1276              		.loc 1 596 0
 1277 0092 A26B     		ldr	r2, [r4, #56]
 1278 0094 D364     		str	r3, [r2, #76]
 598:Drivers/STM32F4xx_HAL_Driver/Src/stm32f4xx_hal_i2s_ex.c ****   /* Check if the I2S_MODE_MASTER_TX or I2S_MODE_SLAVE_TX Mode is selected */
 1279              		.loc 1 598 0
 1280 0096 2268     		ldr	r2, [r4]
 1281 0098 D369     		ldr	r3, [r2, #28]
 1282 009a 03F44073 		and	r3, r3, #768
 1283              	.LVL95:
 600:Drivers/STM32F4xx_HAL_Driver/Src/stm32f4xx_hal_i2s_ex.c ****   {
 1284              		.loc 1 600 0
 1285 009e B3F5007F 		cmp	r3, #512
 1286 00a2 01D0     		beq	.L145
 600:Drivers/STM32F4xx_HAL_Driver/Src/stm32f4xx_hal_i2s_ex.c ****   {
 1287              		.loc 1 600 0 is_stmt 0 discriminator 1
 1288 00a4 002B     		cmp	r3, #0
 1289 00a6 3CD1     		bne	.L146
 1290              	.L145:
 1291              	.LVL96:
 604:Drivers/STM32F4xx_HAL_Driver/Src/stm32f4xx_hal_i2s_ex.c **** 
 1292              		.loc 1 604 0 is_stmt 1
 1293 00a8 E06B     		ldr	r0, [r4, #60]
 1294 00aa 4C4B     		ldr	r3, .L176+12
 1295              	.LVL97:
 1296 00ac 9A42     		cmp	r2, r3
 1297 00ae 31D0     		beq	.L169
 1298 00b0 4FF04021 		mov	r1, #1073758208
 1299              	.L147:
 604:Drivers/STM32F4xx_HAL_Driver/Src/stm32f4xx_hal_i2s_ex.c **** 
 1300              		.loc 1 604 0 is_stmt 0 discriminator 4
 1301 00b4 238E     		ldrh	r3, [r4, #48]
 1302 00b6 3246     		mov	r2, r6
 1303 00b8 0C31     		adds	r1, r1, #12
 1304 00ba FFF7FEFF 		bl	HAL_DMA_Start_IT
 1305              	.LVL98:
 607:Drivers/STM32F4xx_HAL_Driver/Src/stm32f4xx_hal_i2s_ex.c **** 
 1306              		.loc 1 607 0 is_stmt 1 discriminator 4
 1307 00be 2268     		ldr	r2, [r4]
 1308 00c0 464B     		ldr	r3, .L176+12
 1309 00c2 9A42     		cmp	r2, r3
 1310 00c4 28D0     		beq	.L170
 607:Drivers/STM32F4xx_HAL_Driver/Src/stm32f4xx_hal_i2s_ex.c **** 
ARM GAS  C:\Users\User\AppData\Local\Temp\ccqG9tqA.s 			page 48


 1311              		.loc 1 607 0 is_stmt 0
 1312 00c6 4FF04022 		mov	r2, #1073758208
 1313              	.L148:
 607:Drivers/STM32F4xx_HAL_Driver/Src/stm32f4xx_hal_i2s_ex.c **** 
 1314              		.loc 1 607 0 discriminator 4
 1315 00ca 5368     		ldr	r3, [r2, #4]
 1316 00cc 43F00103 		orr	r3, r3, #1
 1317 00d0 5360     		str	r3, [r2, #4]
 1318              	.LVL99:
 611:Drivers/STM32F4xx_HAL_Driver/Src/stm32f4xx_hal_i2s_ex.c **** 
 1319              		.loc 1 611 0 is_stmt 1 discriminator 4
 1320 00d2 2268     		ldr	r2, [r4]
 1321 00d4 238D     		ldrh	r3, [r4, #40]
 1322 00d6 0C32     		adds	r2, r2, #12
 1323 00d8 2946     		mov	r1, r5
 1324 00da A06B     		ldr	r0, [r4, #56]
 1325 00dc FFF7FEFF 		bl	HAL_DMA_Start_IT
 1326              	.LVL100:
 614:Drivers/STM32F4xx_HAL_Driver/Src/stm32f4xx_hal_i2s_ex.c **** 
 1327              		.loc 1 614 0 discriminator 4
 1328 00e0 2268     		ldr	r2, [r4]
 1329 00e2 5368     		ldr	r3, [r2, #4]
 1330 00e4 43F00203 		orr	r3, r3, #2
 1331 00e8 5360     		str	r3, [r2, #4]
 617:Drivers/STM32F4xx_HAL_Driver/Src/stm32f4xx_hal_i2s_ex.c ****     {
 1332              		.loc 1 617 0 discriminator 4
 1333 00ea 2368     		ldr	r3, [r4]
 1334 00ec DA69     		ldr	r2, [r3, #28]
 1335 00ee 12F4806F 		tst	r2, #1024
 1336 00f2 61D1     		bne	.L161
 620:Drivers/STM32F4xx_HAL_Driver/Src/stm32f4xx_hal_i2s_ex.c **** 
 1337              		.loc 1 620 0
 1338 00f4 394A     		ldr	r2, .L176+12
 1339 00f6 9342     		cmp	r3, r2
 1340 00f8 10D0     		beq	.L171
 1341 00fa 4FF04022 		mov	r2, #1073758208
 1342              	.L149:
 620:Drivers/STM32F4xx_HAL_Driver/Src/stm32f4xx_hal_i2s_ex.c **** 
 1343              		.loc 1 620 0 is_stmt 0 discriminator 4
 1344 00fe D369     		ldr	r3, [r2, #28]
 1345 0100 43F48063 		orr	r3, r3, #1024
 1346 0104 D361     		str	r3, [r2, #28]
 623:Drivers/STM32F4xx_HAL_Driver/Src/stm32f4xx_hal_i2s_ex.c ****     }
 1347              		.loc 1 623 0 is_stmt 1 discriminator 4
 1348 0106 2268     		ldr	r2, [r4]
 1349 0108 D369     		ldr	r3, [r2, #28]
 1350 010a 43F48063 		orr	r3, r3, #1024
 1351 010e D361     		str	r3, [r2, #28]
 538:Drivers/STM32F4xx_HAL_Driver/Src/stm32f4xx_hal_i2s_ex.c **** 
 1352              		.loc 1 538 0 discriminator 4
 1353 0110 0020     		movs	r0, #0
 1354 0112 7FE7     		b	.L140
 1355              	.LVL101:
 1356              	.L169:
 604:Drivers/STM32F4xx_HAL_Driver/Src/stm32f4xx_hal_i2s_ex.c **** 
 1357              		.loc 1 604 0
 1358 0114 3249     		ldr	r1, .L176+16
ARM GAS  C:\Users\User\AppData\Local\Temp\ccqG9tqA.s 			page 49


 1359 0116 CDE7     		b	.L147
 1360              	.L170:
 607:Drivers/STM32F4xx_HAL_Driver/Src/stm32f4xx_hal_i2s_ex.c **** 
 1361              		.loc 1 607 0
 1362 0118 314A     		ldr	r2, .L176+16
 1363 011a D6E7     		b	.L148
 1364              	.LVL102:
 1365              	.L171:
 620:Drivers/STM32F4xx_HAL_Driver/Src/stm32f4xx_hal_i2s_ex.c **** 
 1366              		.loc 1 620 0
 1367 011c A2F58062 		sub	r2, r2, #1024
 1368 0120 EDE7     		b	.L149
 1369              	.LVL103:
 1370              	.L146:
 629:Drivers/STM32F4xx_HAL_Driver/Src/stm32f4xx_hal_i2s_ex.c ****     {
 1371              		.loc 1 629 0
 1372 0122 D369     		ldr	r3, [r2, #28]
 1373              	.LVL104:
 1374 0124 03F44073 		and	r3, r3, #768
 1375 0128 B3F5407F 		cmp	r3, #768
 1376 012c 35D0     		beq	.L172
 1377              	.L150:
 1378              	.LVL105:
 637:Drivers/STM32F4xx_HAL_Driver/Src/stm32f4xx_hal_i2s_ex.c **** 
 1379              		.loc 1 637 0
 1380 012e A06B     		ldr	r0, [r4, #56]
 1381 0130 2A4B     		ldr	r3, .L176+12
 1382 0132 9A42     		cmp	r2, r3
 1383 0134 39D0     		beq	.L173
 1384 0136 4FF04022 		mov	r2, #1073758208
 1385              	.L151:
 637:Drivers/STM32F4xx_HAL_Driver/Src/stm32f4xx_hal_i2s_ex.c **** 
 1386              		.loc 1 637 0 is_stmt 0 discriminator 4
 1387 013a 238D     		ldrh	r3, [r4, #40]
 1388 013c 0C32     		adds	r2, r2, #12
 1389 013e 2946     		mov	r1, r5
 1390 0140 FFF7FEFF 		bl	HAL_DMA_Start_IT
 1391              	.LVL106:
 640:Drivers/STM32F4xx_HAL_Driver/Src/stm32f4xx_hal_i2s_ex.c **** 
 1392              		.loc 1 640 0 is_stmt 1 discriminator 4
 1393 0144 2268     		ldr	r2, [r4]
 1394 0146 254B     		ldr	r3, .L176+12
 1395 0148 9A42     		cmp	r2, r3
 1396 014a 30D0     		beq	.L174
 640:Drivers/STM32F4xx_HAL_Driver/Src/stm32f4xx_hal_i2s_ex.c **** 
 1397              		.loc 1 640 0 is_stmt 0
 1398 014c 4FF04022 		mov	r2, #1073758208
 1399              	.L152:
 640:Drivers/STM32F4xx_HAL_Driver/Src/stm32f4xx_hal_i2s_ex.c **** 
 1400              		.loc 1 640 0 discriminator 4
 1401 0150 5368     		ldr	r3, [r2, #4]
 1402 0152 43F00203 		orr	r3, r3, #2
 1403 0156 5360     		str	r3, [r2, #4]
 1404              	.LVL107:
 644:Drivers/STM32F4xx_HAL_Driver/Src/stm32f4xx_hal_i2s_ex.c **** 
 1405              		.loc 1 644 0 is_stmt 1 discriminator 4
 1406 0158 2168     		ldr	r1, [r4]
ARM GAS  C:\Users\User\AppData\Local\Temp\ccqG9tqA.s 			page 50


 1407 015a 238E     		ldrh	r3, [r4, #48]
 1408 015c 3246     		mov	r2, r6
 1409 015e 0C31     		adds	r1, r1, #12
 1410 0160 E06B     		ldr	r0, [r4, #60]
 1411 0162 FFF7FEFF 		bl	HAL_DMA_Start_IT
 1412              	.LVL108:
 647:Drivers/STM32F4xx_HAL_Driver/Src/stm32f4xx_hal_i2s_ex.c **** 
 1413              		.loc 1 647 0 discriminator 4
 1414 0166 2268     		ldr	r2, [r4]
 1415 0168 5368     		ldr	r3, [r2, #4]
 1416 016a 43F00103 		orr	r3, r3, #1
 1417 016e 5360     		str	r3, [r2, #4]
 650:Drivers/STM32F4xx_HAL_Driver/Src/stm32f4xx_hal_i2s_ex.c ****     {
 1418              		.loc 1 650 0 discriminator 4
 1419 0170 2368     		ldr	r3, [r4]
 1420 0172 DA69     		ldr	r2, [r3, #28]
 1421 0174 12F4806F 		tst	r2, #1024
 1422 0178 20D1     		bne	.L165
 653:Drivers/STM32F4xx_HAL_Driver/Src/stm32f4xx_hal_i2s_ex.c ****       /* Enable I2S peripheral before the I2Sext */
 1423              		.loc 1 653 0
 1424 017a 184A     		ldr	r2, .L176+12
 1425 017c 9342     		cmp	r3, r2
 1426 017e 18D0     		beq	.L175
 1427 0180 4FF04022 		mov	r2, #1073758208
 1428              	.L153:
 653:Drivers/STM32F4xx_HAL_Driver/Src/stm32f4xx_hal_i2s_ex.c ****       /* Enable I2S peripheral before the I2Sext */
 1429              		.loc 1 653 0 is_stmt 0 discriminator 4
 1430 0184 D369     		ldr	r3, [r2, #28]
 1431 0186 43F48063 		orr	r3, r3, #1024
 1432 018a D361     		str	r3, [r2, #28]
 655:Drivers/STM32F4xx_HAL_Driver/Src/stm32f4xx_hal_i2s_ex.c ****     }
 1433              		.loc 1 655 0 is_stmt 1 discriminator 4
 1434 018c 2268     		ldr	r2, [r4]
 1435 018e D369     		ldr	r3, [r2, #28]
 1436 0190 43F48063 		orr	r3, r3, #1024
 1437 0194 D361     		str	r3, [r2, #28]
 538:Drivers/STM32F4xx_HAL_Driver/Src/stm32f4xx_hal_i2s_ex.c **** 
 1438              		.loc 1 538 0 discriminator 4
 1439 0196 0020     		movs	r0, #0
 1440 0198 3CE7     		b	.L140
 1441              	.LVL109:
 1442              	.L172:
 1443              	.LBB9:
 633:Drivers/STM32F4xx_HAL_Driver/Src/stm32f4xx_hal_i2s_ex.c ****     }
 1444              		.loc 1 633 0
 1445 019a 0023     		movs	r3, #0
 1446 019c 0193     		str	r3, [sp, #4]
 1447 019e D368     		ldr	r3, [r2, #12]
 1448 01a0 0193     		str	r3, [sp, #4]
 1449 01a2 9368     		ldr	r3, [r2, #8]
 1450 01a4 0193     		str	r3, [sp, #4]
 1451 01a6 019B     		ldr	r3, [sp, #4]
 1452 01a8 C1E7     		b	.L150
 1453              	.LVL110:
 1454              	.L173:
 1455              	.LBE9:
 637:Drivers/STM32F4xx_HAL_Driver/Src/stm32f4xx_hal_i2s_ex.c **** 
ARM GAS  C:\Users\User\AppData\Local\Temp\ccqG9tqA.s 			page 51


 1456              		.loc 1 637 0
 1457 01aa 0D4A     		ldr	r2, .L176+16
 1458 01ac C5E7     		b	.L151
 1459              	.L174:
 640:Drivers/STM32F4xx_HAL_Driver/Src/stm32f4xx_hal_i2s_ex.c **** 
 1460              		.loc 1 640 0
 1461 01ae 0C4A     		ldr	r2, .L176+16
 1462 01b0 CEE7     		b	.L152
 1463              	.LVL111:
 1464              	.L175:
 653:Drivers/STM32F4xx_HAL_Driver/Src/stm32f4xx_hal_i2s_ex.c ****       /* Enable I2S peripheral before the I2Sext */
 1465              		.loc 1 653 0
 1466 01b2 A2F58062 		sub	r2, r2, #1024
 1467 01b6 E5E7     		b	.L153
 1468              	.LVL112:
 1469              	.L161:
 538:Drivers/STM32F4xx_HAL_Driver/Src/stm32f4xx_hal_i2s_ex.c **** 
 1470              		.loc 1 538 0
 1471 01b8 0020     		movs	r0, #0
 1472 01ba 2BE7     		b	.L140
 1473              	.LVL113:
 1474              	.L165:
 1475 01bc 0020     		movs	r0, #0
 1476 01be 29E7     		b	.L140
 1477              	.LVL114:
 1478              	.L155:
 548:Drivers/STM32F4xx_HAL_Driver/Src/stm32f4xx_hal_i2s_ex.c ****   }
 1479              		.loc 1 548 0
 1480 01c0 0120     		movs	r0, #1
 1481              	.LVL115:
 1482 01c2 2AE7     		b	.L141
 1483              	.LVL116:
 1484              	.L156:
 1485 01c4 0120     		movs	r0, #1
 1486              	.LVL117:
 1487 01c6 28E7     		b	.L141
 1488              	.LVL118:
 1489              	.L157:
 1490 01c8 0120     		movs	r0, #1
 1491              	.LVL119:
 1492 01ca 26E7     		b	.L141
 1493              	.LVL120:
 1494              	.L158:
 552:Drivers/STM32F4xx_HAL_Driver/Src/stm32f4xx_hal_i2s_ex.c **** 
 1495              		.loc 1 552 0
 1496 01cc 0220     		movs	r0, #2
 1497              	.LVL121:
 1498 01ce 24E7     		b	.L141
 1499              	.L177:
 1500              		.align	2
 1501              	.L176:
 1502 01d0 00000000 		.word	I2SEx_TxRxDMAHalfCplt
 1503 01d4 00000000 		.word	I2SEx_TxRxDMACplt
 1504 01d8 00000000 		.word	I2SEx_TxRxDMAError
 1505 01dc 00380040 		.word	1073756160
 1506 01e0 00340040 		.word	1073755136
 1507              		.cfi_endproc
ARM GAS  C:\Users\User\AppData\Local\Temp\ccqG9tqA.s 			page 52


 1508              	.LFE132:
 1510              		.section	.text.HAL_I2SEx_TxRxHalfCpltCallback,"ax",%progbits
 1511              		.align	1
 1512              		.weak	HAL_I2SEx_TxRxHalfCpltCallback
 1513              		.syntax unified
 1514              		.thumb
 1515              		.thumb_func
 1516              		.fpu fpv4-sp-d16
 1518              	HAL_I2SEx_TxRxHalfCpltCallback:
 1519              	.LFB134:
 816:Drivers/STM32F4xx_HAL_Driver/Src/stm32f4xx_hal_i2s_ex.c ****   /* Prevent unused argument(s) compilation warning */
 1520              		.loc 1 816 0
 1521              		.cfi_startproc
 1522              		@ args = 0, pretend = 0, frame = 0
 1523              		@ frame_needed = 0, uses_anonymous_args = 0
 1524              		@ link register save eliminated.
 1525              	.LVL122:
 823:Drivers/STM32F4xx_HAL_Driver/Src/stm32f4xx_hal_i2s_ex.c **** 
 1526              		.loc 1 823 0
 1527 0000 7047     		bx	lr
 1528              		.cfi_endproc
 1529              	.LFE134:
 1531              		.section	.text.I2SEx_TxRxDMAHalfCplt,"ax",%progbits
 1532              		.align	1
 1533              		.syntax unified
 1534              		.thumb
 1535              		.thumb_func
 1536              		.fpu fpv4-sp-d16
 1538              	I2SEx_TxRxDMAHalfCplt:
 1539              	.LFB136:
 859:Drivers/STM32F4xx_HAL_Driver/Src/stm32f4xx_hal_i2s_ex.c ****   I2S_HandleTypeDef *hi2s = (I2S_HandleTypeDef *)((DMA_HandleTypeDef *)hdma)->Parent;
 1540              		.loc 1 859 0
 1541              		.cfi_startproc
 1542              		@ args = 0, pretend = 0, frame = 0
 1543              		@ frame_needed = 0, uses_anonymous_args = 0
 1544              	.LVL123:
 1545 0000 08B5     		push	{r3, lr}
 1546              	.LCFI13:
 1547              		.cfi_def_cfa_offset 8
 1548              		.cfi_offset 3, -8
 1549              		.cfi_offset 14, -4
 1550              	.LVL124:
 866:Drivers/STM32F4xx_HAL_Driver/Src/stm32f4xx_hal_i2s_ex.c **** #endif /* USE_HAL_I2S_REGISTER_CALLBACKS */
 1551              		.loc 1 866 0
 1552 0002 806B     		ldr	r0, [r0, #56]
 1553              	.LVL125:
 1554 0004 FFF7FEFF 		bl	HAL_I2SEx_TxRxHalfCpltCallback
 1555              	.LVL126:
 868:Drivers/STM32F4xx_HAL_Driver/Src/stm32f4xx_hal_i2s_ex.c **** 
 1556              		.loc 1 868 0
 1557 0008 08BD     		pop	{r3, pc}
 1558              		.cfi_endproc
 1559              	.LFE136:
 1561              		.section	.text.HAL_I2SEx_TxRxCpltCallback,"ax",%progbits
 1562              		.align	1
 1563              		.weak	HAL_I2SEx_TxRxCpltCallback
 1564              		.syntax unified
ARM GAS  C:\Users\User\AppData\Local\Temp\ccqG9tqA.s 			page 53


 1565              		.thumb
 1566              		.thumb_func
 1567              		.fpu fpv4-sp-d16
 1569              	HAL_I2SEx_TxRxCpltCallback:
 1570              	.LFB135:
 831:Drivers/STM32F4xx_HAL_Driver/Src/stm32f4xx_hal_i2s_ex.c ****   /* Prevent unused argument(s) compilation warning */
 1571              		.loc 1 831 0
 1572              		.cfi_startproc
 1573              		@ args = 0, pretend = 0, frame = 0
 1574              		@ frame_needed = 0, uses_anonymous_args = 0
 1575              		@ link register save eliminated.
 1576              	.LVL127:
 838:Drivers/STM32F4xx_HAL_Driver/Src/stm32f4xx_hal_i2s_ex.c **** 
 1577              		.loc 1 838 0
 1578 0000 7047     		bx	lr
 1579              		.cfi_endproc
 1580              	.LFE135:
 1582              		.section	.text.I2SEx_TxRxDMACplt,"ax",%progbits
 1583              		.align	1
 1584              		.syntax unified
 1585              		.thumb
 1586              		.thumb_func
 1587              		.fpu fpv4-sp-d16
 1589              	I2SEx_TxRxDMACplt:
 1590              	.LFB137:
 877:Drivers/STM32F4xx_HAL_Driver/Src/stm32f4xx_hal_i2s_ex.c ****   I2S_HandleTypeDef *hi2s = (I2S_HandleTypeDef *)((DMA_HandleTypeDef *)hdma)->Parent;
 1591              		.loc 1 877 0
 1592              		.cfi_startproc
 1593              		@ args = 0, pretend = 0, frame = 0
 1594              		@ frame_needed = 0, uses_anonymous_args = 0
 1595              	.LVL128:
 1596 0000 38B5     		push	{r3, r4, r5, lr}
 1597              	.LCFI14:
 1598              		.cfi_def_cfa_offset 16
 1599              		.cfi_offset 3, -16
 1600              		.cfi_offset 4, -12
 1601              		.cfi_offset 5, -8
 1602              		.cfi_offset 14, -4
 878:Drivers/STM32F4xx_HAL_Driver/Src/stm32f4xx_hal_i2s_ex.c **** 
 1603              		.loc 1 878 0
 1604 0002 856B     		ldr	r5, [r0, #56]
 1605              	.LVL129:
 881:Drivers/STM32F4xx_HAL_Driver/Src/stm32f4xx_hal_i2s_ex.c ****   {
 1606              		.loc 1 881 0
 1607 0004 C369     		ldr	r3, [r0, #28]
 1608 0006 33B9     		cbnz	r3, .L182
 1609 0008 0446     		mov	r4, r0
 883:Drivers/STM32F4xx_HAL_Driver/Src/stm32f4xx_hal_i2s_ex.c ****     {
 1610              		.loc 1 883 0
 1611 000a EB6B     		ldr	r3, [r5, #60]
 1612 000c 8342     		cmp	r3, r0
 1613 000e 03D0     		beq	.L196
 1614              	.LVL130:
 1615              	.L184:
 911:Drivers/STM32F4xx_HAL_Driver/Src/stm32f4xx_hal_i2s_ex.c ****     {
 1616              		.loc 1 911 0
 1617 0010 AB6B     		ldr	r3, [r5, #56]
ARM GAS  C:\Users\User\AppData\Local\Temp\ccqG9tqA.s 			page 54


 1618 0012 A342     		cmp	r3, r4
 1619 0014 28D0     		beq	.L197
 1620              	.LVL131:
 1621              	.L182:
 939:Drivers/STM32F4xx_HAL_Driver/Src/stm32f4xx_hal_i2s_ex.c **** 
 1622              		.loc 1 939 0
 1623 0016 38BD     		pop	{r3, r4, r5, pc}
 1624              	.LVL132:
 1625              	.L196:
 886:Drivers/STM32F4xx_HAL_Driver/Src/stm32f4xx_hal_i2s_ex.c ****           ((hi2s->Instance->I2SCFGR & SPI_I2SCFGR_I2SCFG) == I2S_MODE_SLAVE_TX))
 1626              		.loc 1 886 0
 1627 0018 2A68     		ldr	r2, [r5]
 1628 001a D369     		ldr	r3, [r2, #28]
 1629 001c 03F44073 		and	r3, r3, #768
 1630 0020 B3F5007F 		cmp	r3, #512
 1631 0024 03D0     		beq	.L185
 887:Drivers/STM32F4xx_HAL_Driver/Src/stm32f4xx_hal_i2s_ex.c ****       {
 1632              		.loc 1 887 0 discriminator 1
 1633 0026 D369     		ldr	r3, [r2, #28]
 886:Drivers/STM32F4xx_HAL_Driver/Src/stm32f4xx_hal_i2s_ex.c ****           ((hi2s->Instance->I2SCFGR & SPI_I2SCFGR_I2SCFG) == I2S_MODE_SLAVE_TX))
 1634              		.loc 1 886 0 discriminator 1
 1635 0028 13F4407F 		tst	r3, #768
 1636 002c 17D1     		bne	.L186
 1637              	.L185:
 889:Drivers/STM32F4xx_HAL_Driver/Src/stm32f4xx_hal_i2s_ex.c ****       }
 1638              		.loc 1 889 0
 1639 002e 234B     		ldr	r3, .L200
 1640 0030 9A42     		cmp	r2, r3
 1641 0032 12D0     		beq	.L198
 1642 0034 4FF04022 		mov	r2, #1073758208
 1643              	.L187:
 889:Drivers/STM32F4xx_HAL_Driver/Src/stm32f4xx_hal_i2s_ex.c ****       }
 1644              		.loc 1 889 0 is_stmt 0 discriminator 4
 1645 0038 5368     		ldr	r3, [r2, #4]
 1646 003a 23F00103 		bic	r3, r3, #1
 1647 003e 5360     		str	r3, [r2, #4]
 1648              	.L188:
 896:Drivers/STM32F4xx_HAL_Driver/Src/stm32f4xx_hal_i2s_ex.c **** 
 1649              		.loc 1 896 0 is_stmt 1
 1650 0040 0023     		movs	r3, #0
 1651 0042 6B86     		strh	r3, [r5, #50]	@ movhi
 898:Drivers/STM32F4xx_HAL_Driver/Src/stm32f4xx_hal_i2s_ex.c ****       {
 1652              		.loc 1 898 0
 1653 0044 6B8D     		ldrh	r3, [r5, #42]
 1654 0046 9BB2     		uxth	r3, r3
 1655 0048 002B     		cmp	r3, #0
 1656 004a E1D1     		bne	.L184
 900:Drivers/STM32F4xx_HAL_Driver/Src/stm32f4xx_hal_i2s_ex.c **** 
 1657              		.loc 1 900 0
 1658 004c 0123     		movs	r3, #1
 1659 004e 85F84130 		strb	r3, [r5, #65]
 906:Drivers/STM32F4xx_HAL_Driver/Src/stm32f4xx_hal_i2s_ex.c **** #endif /* USE_HAL_I2S_REGISTER_CALLBACKS */
 1660              		.loc 1 906 0
 1661 0052 2846     		mov	r0, r5
 1662              	.LVL133:
 1663 0054 FFF7FEFF 		bl	HAL_I2SEx_TxRxCpltCallback
 1664              	.LVL134:
ARM GAS  C:\Users\User\AppData\Local\Temp\ccqG9tqA.s 			page 55


 1665 0058 DAE7     		b	.L184
 1666              	.LVL135:
 1667              	.L198:
 889:Drivers/STM32F4xx_HAL_Driver/Src/stm32f4xx_hal_i2s_ex.c ****       }
 1668              		.loc 1 889 0
 1669 005a 194A     		ldr	r2, .L200+4
 1670 005c ECE7     		b	.L187
 1671              	.L186:
 893:Drivers/STM32F4xx_HAL_Driver/Src/stm32f4xx_hal_i2s_ex.c ****       }
 1672              		.loc 1 893 0
 1673 005e 5368     		ldr	r3, [r2, #4]
 1674 0060 23F00103 		bic	r3, r3, #1
 1675 0064 5360     		str	r3, [r2, #4]
 1676 0066 EBE7     		b	.L188
 1677              	.LVL136:
 1678              	.L197:
 914:Drivers/STM32F4xx_HAL_Driver/Src/stm32f4xx_hal_i2s_ex.c ****           ((hi2s->Instance->I2SCFGR & SPI_I2SCFGR_I2SCFG) == I2S_MODE_SLAVE_TX))
 1679              		.loc 1 914 0
 1680 0068 2B68     		ldr	r3, [r5]
 1681 006a DA69     		ldr	r2, [r3, #28]
 1682 006c 02F44072 		and	r2, r2, #768
 1683 0070 B2F5007F 		cmp	r2, #512
 1684 0074 03D0     		beq	.L189
 915:Drivers/STM32F4xx_HAL_Driver/Src/stm32f4xx_hal_i2s_ex.c ****       {
 1685              		.loc 1 915 0 discriminator 1
 1686 0076 DA69     		ldr	r2, [r3, #28]
 914:Drivers/STM32F4xx_HAL_Driver/Src/stm32f4xx_hal_i2s_ex.c ****           ((hi2s->Instance->I2SCFGR & SPI_I2SCFGR_I2SCFG) == I2S_MODE_SLAVE_TX))
 1687              		.loc 1 914 0 discriminator 1
 1688 0078 12F4407F 		tst	r2, #768
 1689 007c 10D1     		bne	.L190
 1690              	.L189:
 917:Drivers/STM32F4xx_HAL_Driver/Src/stm32f4xx_hal_i2s_ex.c ****       }
 1691              		.loc 1 917 0
 1692 007e 5A68     		ldr	r2, [r3, #4]
 1693 0080 22F00202 		bic	r2, r2, #2
 1694 0084 5A60     		str	r2, [r3, #4]
 1695              	.L191:
 924:Drivers/STM32F4xx_HAL_Driver/Src/stm32f4xx_hal_i2s_ex.c **** 
 1696              		.loc 1 924 0
 1697 0086 0023     		movs	r3, #0
 1698 0088 6B85     		strh	r3, [r5, #42]	@ movhi
 926:Drivers/STM32F4xx_HAL_Driver/Src/stm32f4xx_hal_i2s_ex.c ****       {
 1699              		.loc 1 926 0
 1700 008a 6B8E     		ldrh	r3, [r5, #50]
 1701 008c 9BB2     		uxth	r3, r3
 1702 008e 002B     		cmp	r3, #0
 1703 0090 C1D1     		bne	.L182
 928:Drivers/STM32F4xx_HAL_Driver/Src/stm32f4xx_hal_i2s_ex.c **** 
 1704              		.loc 1 928 0
 1705 0092 0123     		movs	r3, #1
 1706 0094 85F84130 		strb	r3, [r5, #65]
 934:Drivers/STM32F4xx_HAL_Driver/Src/stm32f4xx_hal_i2s_ex.c **** #endif /* USE_HAL_I2S_REGISTER_CALLBACKS */
 1707              		.loc 1 934 0
 1708 0098 2846     		mov	r0, r5
 1709 009a FFF7FEFF 		bl	HAL_I2SEx_TxRxCpltCallback
 1710              	.LVL137:
 939:Drivers/STM32F4xx_HAL_Driver/Src/stm32f4xx_hal_i2s_ex.c **** 
ARM GAS  C:\Users\User\AppData\Local\Temp\ccqG9tqA.s 			page 56


 1711              		.loc 1 939 0
 1712 009e BAE7     		b	.L182
 1713              	.L190:
 921:Drivers/STM32F4xx_HAL_Driver/Src/stm32f4xx_hal_i2s_ex.c ****       }
 1714              		.loc 1 921 0
 1715 00a0 064A     		ldr	r2, .L200
 1716 00a2 9342     		cmp	r3, r2
 1717 00a4 06D0     		beq	.L199
 1718 00a6 4FF04022 		mov	r2, #1073758208
 1719              	.L192:
 921:Drivers/STM32F4xx_HAL_Driver/Src/stm32f4xx_hal_i2s_ex.c ****       }
 1720              		.loc 1 921 0 is_stmt 0 discriminator 4
 1721 00aa 5368     		ldr	r3, [r2, #4]
 1722 00ac 23F00203 		bic	r3, r3, #2
 1723 00b0 5360     		str	r3, [r2, #4]
 1724 00b2 E8E7     		b	.L191
 1725              	.L199:
 921:Drivers/STM32F4xx_HAL_Driver/Src/stm32f4xx_hal_i2s_ex.c ****       }
 1726              		.loc 1 921 0
 1727 00b4 A2F58062 		sub	r2, r2, #1024
 1728 00b8 F7E7     		b	.L192
 1729              	.L201:
 1730 00ba 00BF     		.align	2
 1731              	.L200:
 1732 00bc 00380040 		.word	1073756160
 1733 00c0 00340040 		.word	1073755136
 1734              		.cfi_endproc
 1735              	.LFE137:
 1737              		.section	.text.I2SEx_TxISR_I2S,"ax",%progbits
 1738              		.align	1
 1739              		.syntax unified
 1740              		.thumb
 1741              		.thumb_func
 1742              		.fpu fpv4-sp-d16
 1744              	I2SEx_TxISR_I2S:
 1745              	.LFB139:
 975:Drivers/STM32F4xx_HAL_Driver/Src/stm32f4xx_hal_i2s_ex.c ****   /* Write Data on DR register */
 1746              		.loc 1 975 0 is_stmt 1
 1747              		.cfi_startproc
 1748              		@ args = 0, pretend = 0, frame = 0
 1749              		@ frame_needed = 0, uses_anonymous_args = 0
 1750              	.LVL138:
 1751 0000 08B5     		push	{r3, lr}
 1752              	.LCFI15:
 1753              		.cfi_def_cfa_offset 8
 1754              		.cfi_offset 3, -8
 1755              		.cfi_offset 14, -4
 977:Drivers/STM32F4xx_HAL_Driver/Src/stm32f4xx_hal_i2s_ex.c ****   hi2s->TxXferCount--;
 1756              		.loc 1 977 0
 1757 0002 436A     		ldr	r3, [r0, #36]
 1758 0004 9A1C     		adds	r2, r3, #2
 1759 0006 4262     		str	r2, [r0, #36]
 1760 0008 0268     		ldr	r2, [r0]
 1761 000a 1B88     		ldrh	r3, [r3]
 1762 000c D360     		str	r3, [r2, #12]
 978:Drivers/STM32F4xx_HAL_Driver/Src/stm32f4xx_hal_i2s_ex.c **** 
 1763              		.loc 1 978 0
ARM GAS  C:\Users\User\AppData\Local\Temp\ccqG9tqA.s 			page 57


 1764 000e 438D     		ldrh	r3, [r0, #42]
 1765 0010 013B     		subs	r3, r3, #1
 1766 0012 9BB2     		uxth	r3, r3
 1767 0014 4385     		strh	r3, [r0, #42]	@ movhi
 980:Drivers/STM32F4xx_HAL_Driver/Src/stm32f4xx_hal_i2s_ex.c ****   {
 1768              		.loc 1 980 0
 1769 0016 438D     		ldrh	r3, [r0, #42]
 1770 0018 9BB2     		uxth	r3, r3
 1771 001a 3BB9     		cbnz	r3, .L202
 983:Drivers/STM32F4xx_HAL_Driver/Src/stm32f4xx_hal_i2s_ex.c **** 
 1772              		.loc 1 983 0
 1773 001c 0268     		ldr	r2, [r0]
 1774 001e 5368     		ldr	r3, [r2, #4]
 1775 0020 23F0A003 		bic	r3, r3, #160
 1776 0024 5360     		str	r3, [r2, #4]
 985:Drivers/STM32F4xx_HAL_Driver/Src/stm32f4xx_hal_i2s_ex.c ****     {
 1777              		.loc 1 985 0
 1778 0026 438E     		ldrh	r3, [r0, #50]
 1779 0028 9BB2     		uxth	r3, r3
 1780 002a 03B1     		cbz	r3, .L205
 1781              	.LVL139:
 1782              	.L202:
 996:Drivers/STM32F4xx_HAL_Driver/Src/stm32f4xx_hal_i2s_ex.c **** 
 1783              		.loc 1 996 0
 1784 002c 08BD     		pop	{r3, pc}
 1785              	.LVL140:
 1786              	.L205:
 987:Drivers/STM32F4xx_HAL_Driver/Src/stm32f4xx_hal_i2s_ex.c ****       /* Call user TxRx complete callback */
 1787              		.loc 1 987 0
 1788 002e 0123     		movs	r3, #1
 1789 0030 80F84130 		strb	r3, [r0, #65]
 992:Drivers/STM32F4xx_HAL_Driver/Src/stm32f4xx_hal_i2s_ex.c **** #endif /* USE_HAL_I2S_REGISTER_CALLBACKS */
 1790              		.loc 1 992 0
 1791 0034 FFF7FEFF 		bl	HAL_I2SEx_TxRxCpltCallback
 1792              	.LVL141:
 996:Drivers/STM32F4xx_HAL_Driver/Src/stm32f4xx_hal_i2s_ex.c **** 
 1793              		.loc 1 996 0
 1794 0038 F8E7     		b	.L202
 1795              		.cfi_endproc
 1796              	.LFE139:
 1798              		.section	.text.I2SEx_RxISR_I2SExt,"ax",%progbits
 1799              		.align	1
 1800              		.syntax unified
 1801              		.thumb
 1802              		.thumb_func
 1803              		.fpu fpv4-sp-d16
 1805              	I2SEx_RxISR_I2SExt:
 1806              	.LFB142:
1062:Drivers/STM32F4xx_HAL_Driver/Src/stm32f4xx_hal_i2s_ex.c ****   /* Read Data from DR register */
 1807              		.loc 1 1062 0
 1808              		.cfi_startproc
 1809              		@ args = 0, pretend = 0, frame = 0
 1810              		@ frame_needed = 0, uses_anonymous_args = 0
 1811              	.LVL142:
 1812 0000 08B5     		push	{r3, lr}
 1813              	.LCFI16:
 1814              		.cfi_def_cfa_offset 8
ARM GAS  C:\Users\User\AppData\Local\Temp\ccqG9tqA.s 			page 58


 1815              		.cfi_offset 3, -8
 1816              		.cfi_offset 14, -4
1064:Drivers/STM32F4xx_HAL_Driver/Src/stm32f4xx_hal_i2s_ex.c ****   hi2s->RxXferCount--;
 1817              		.loc 1 1064 0
 1818 0002 0268     		ldr	r2, [r0]
 1819 0004 144B     		ldr	r3, .L216
 1820 0006 9A42     		cmp	r2, r3
 1821 0008 1BD0     		beq	.L213
 1822 000a 4FF04023 		mov	r3, #1073758208
 1823              	.L207:
1064:Drivers/STM32F4xx_HAL_Driver/Src/stm32f4xx_hal_i2s_ex.c ****   hi2s->RxXferCount--;
 1824              		.loc 1 1064 0 is_stmt 0 discriminator 4
 1825 000e DA68     		ldr	r2, [r3, #12]
 1826 0010 C36A     		ldr	r3, [r0, #44]
 1827 0012 991C     		adds	r1, r3, #2
 1828 0014 C162     		str	r1, [r0, #44]
 1829 0016 1A80     		strh	r2, [r3]	@ movhi
1065:Drivers/STM32F4xx_HAL_Driver/Src/stm32f4xx_hal_i2s_ex.c **** 
 1830              		.loc 1 1065 0 is_stmt 1 discriminator 4
 1831 0018 438E     		ldrh	r3, [r0, #50]
 1832 001a 013B     		subs	r3, r3, #1
 1833 001c 9BB2     		uxth	r3, r3
 1834 001e 4386     		strh	r3, [r0, #50]	@ movhi
1067:Drivers/STM32F4xx_HAL_Driver/Src/stm32f4xx_hal_i2s_ex.c ****   {
 1835              		.loc 1 1067 0 discriminator 4
 1836 0020 438E     		ldrh	r3, [r0, #50]
 1837 0022 9BB2     		uxth	r3, r3
 1838 0024 63B9     		cbnz	r3, .L206
1070:Drivers/STM32F4xx_HAL_Driver/Src/stm32f4xx_hal_i2s_ex.c **** 
 1839              		.loc 1 1070 0
 1840 0026 0268     		ldr	r2, [r0]
 1841 0028 0B4B     		ldr	r3, .L216
 1842 002a 9A42     		cmp	r2, r3
 1843 002c 0CD0     		beq	.L214
 1844 002e 4FF04022 		mov	r2, #1073758208
 1845              	.L209:
1070:Drivers/STM32F4xx_HAL_Driver/Src/stm32f4xx_hal_i2s_ex.c **** 
 1846              		.loc 1 1070 0 is_stmt 0 discriminator 4
 1847 0032 5368     		ldr	r3, [r2, #4]
 1848 0034 23F06003 		bic	r3, r3, #96
 1849 0038 5360     		str	r3, [r2, #4]
1072:Drivers/STM32F4xx_HAL_Driver/Src/stm32f4xx_hal_i2s_ex.c ****     {
 1850              		.loc 1 1072 0 is_stmt 1 discriminator 4
 1851 003a 438D     		ldrh	r3, [r0, #42]
 1852 003c 9BB2     		uxth	r3, r3
 1853 003e 2BB1     		cbz	r3, .L215
 1854              	.LVL143:
 1855              	.L206:
1083:Drivers/STM32F4xx_HAL_Driver/Src/stm32f4xx_hal_i2s_ex.c **** 
 1856              		.loc 1 1083 0
 1857 0040 08BD     		pop	{r3, pc}
 1858              	.LVL144:
 1859              	.L213:
1064:Drivers/STM32F4xx_HAL_Driver/Src/stm32f4xx_hal_i2s_ex.c ****   hi2s->RxXferCount--;
 1860              		.loc 1 1064 0
 1861 0042 A3F58063 		sub	r3, r3, #1024
 1862 0046 E2E7     		b	.L207
ARM GAS  C:\Users\User\AppData\Local\Temp\ccqG9tqA.s 			page 59


 1863              	.L214:
1070:Drivers/STM32F4xx_HAL_Driver/Src/stm32f4xx_hal_i2s_ex.c **** 
 1864              		.loc 1 1070 0
 1865 0048 044A     		ldr	r2, .L216+4
 1866 004a F2E7     		b	.L209
 1867              	.L215:
1074:Drivers/STM32F4xx_HAL_Driver/Src/stm32f4xx_hal_i2s_ex.c ****       /* Call user TxRx complete callback */
 1868              		.loc 1 1074 0
 1869 004c 0123     		movs	r3, #1
 1870 004e 80F84130 		strb	r3, [r0, #65]
1079:Drivers/STM32F4xx_HAL_Driver/Src/stm32f4xx_hal_i2s_ex.c **** #endif /* USE_HAL_I2S_REGISTER_CALLBACKS */
 1871              		.loc 1 1079 0
 1872 0052 FFF7FEFF 		bl	HAL_I2SEx_TxRxCpltCallback
 1873              	.LVL145:
1083:Drivers/STM32F4xx_HAL_Driver/Src/stm32f4xx_hal_i2s_ex.c **** 
 1874              		.loc 1 1083 0
 1875 0056 F3E7     		b	.L206
 1876              	.L217:
 1877              		.align	2
 1878              	.L216:
 1879 0058 00380040 		.word	1073756160
 1880 005c 00340040 		.word	1073755136
 1881              		.cfi_endproc
 1882              	.LFE142:
 1884              		.section	.text.I2SEx_TxISR_I2SExt,"ax",%progbits
 1885              		.align	1
 1886              		.syntax unified
 1887              		.thumb
 1888              		.thumb_func
 1889              		.fpu fpv4-sp-d16
 1891              	I2SEx_TxISR_I2SExt:
 1892              	.LFB140:
1004:Drivers/STM32F4xx_HAL_Driver/Src/stm32f4xx_hal_i2s_ex.c ****   /* Write Data on DR register */
 1893              		.loc 1 1004 0
 1894              		.cfi_startproc
 1895              		@ args = 0, pretend = 0, frame = 0
 1896              		@ frame_needed = 0, uses_anonymous_args = 0
 1897              	.LVL146:
 1898 0000 08B5     		push	{r3, lr}
 1899              	.LCFI17:
 1900              		.cfi_def_cfa_offset 8
 1901              		.cfi_offset 3, -8
 1902              		.cfi_offset 14, -4
1006:Drivers/STM32F4xx_HAL_Driver/Src/stm32f4xx_hal_i2s_ex.c ****   hi2s->TxXferCount--;
 1903              		.loc 1 1006 0
 1904 0002 436A     		ldr	r3, [r0, #36]
 1905 0004 9A1C     		adds	r2, r3, #2
 1906 0006 4262     		str	r2, [r0, #36]
 1907 0008 1A88     		ldrh	r2, [r3]
 1908 000a 0168     		ldr	r1, [r0]
 1909 000c 124B     		ldr	r3, .L228
 1910 000e 9942     		cmp	r1, r3
 1911 0010 17D0     		beq	.L225
 1912 0012 4FF04023 		mov	r3, #1073758208
 1913              	.L219:
1006:Drivers/STM32F4xx_HAL_Driver/Src/stm32f4xx_hal_i2s_ex.c ****   hi2s->TxXferCount--;
 1914              		.loc 1 1006 0 is_stmt 0 discriminator 4
ARM GAS  C:\Users\User\AppData\Local\Temp\ccqG9tqA.s 			page 60


 1915 0016 DA60     		str	r2, [r3, #12]
1007:Drivers/STM32F4xx_HAL_Driver/Src/stm32f4xx_hal_i2s_ex.c **** 
 1916              		.loc 1 1007 0 is_stmt 1 discriminator 4
 1917 0018 438D     		ldrh	r3, [r0, #42]
 1918 001a 013B     		subs	r3, r3, #1
 1919 001c 9BB2     		uxth	r3, r3
 1920 001e 4385     		strh	r3, [r0, #42]	@ movhi
1009:Drivers/STM32F4xx_HAL_Driver/Src/stm32f4xx_hal_i2s_ex.c ****   {
 1921              		.loc 1 1009 0 discriminator 4
 1922 0020 438D     		ldrh	r3, [r0, #42]
 1923 0022 9BB2     		uxth	r3, r3
 1924 0024 63B9     		cbnz	r3, .L218
1012:Drivers/STM32F4xx_HAL_Driver/Src/stm32f4xx_hal_i2s_ex.c **** 
 1925              		.loc 1 1012 0
 1926 0026 0268     		ldr	r2, [r0]
 1927 0028 0B4B     		ldr	r3, .L228
 1928 002a 9A42     		cmp	r2, r3
 1929 002c 0CD0     		beq	.L226
 1930 002e 4FF04022 		mov	r2, #1073758208
 1931              	.L221:
1012:Drivers/STM32F4xx_HAL_Driver/Src/stm32f4xx_hal_i2s_ex.c **** 
 1932              		.loc 1 1012 0 is_stmt 0 discriminator 4
 1933 0032 5368     		ldr	r3, [r2, #4]
 1934 0034 23F0A003 		bic	r3, r3, #160
 1935 0038 5360     		str	r3, [r2, #4]
1014:Drivers/STM32F4xx_HAL_Driver/Src/stm32f4xx_hal_i2s_ex.c ****     {
 1936              		.loc 1 1014 0 is_stmt 1 discriminator 4
 1937 003a 438E     		ldrh	r3, [r0, #50]
 1938 003c 9BB2     		uxth	r3, r3
 1939 003e 2BB1     		cbz	r3, .L227
 1940              	.LVL147:
 1941              	.L218:
1025:Drivers/STM32F4xx_HAL_Driver/Src/stm32f4xx_hal_i2s_ex.c **** 
 1942              		.loc 1 1025 0
 1943 0040 08BD     		pop	{r3, pc}
 1944              	.LVL148:
 1945              	.L225:
1006:Drivers/STM32F4xx_HAL_Driver/Src/stm32f4xx_hal_i2s_ex.c ****   hi2s->TxXferCount--;
 1946              		.loc 1 1006 0
 1947 0042 A3F58063 		sub	r3, r3, #1024
 1948 0046 E6E7     		b	.L219
 1949              	.L226:
1012:Drivers/STM32F4xx_HAL_Driver/Src/stm32f4xx_hal_i2s_ex.c **** 
 1950              		.loc 1 1012 0
 1951 0048 044A     		ldr	r2, .L228+4
 1952 004a F2E7     		b	.L221
 1953              	.L227:
1016:Drivers/STM32F4xx_HAL_Driver/Src/stm32f4xx_hal_i2s_ex.c ****       /* Call user TxRx complete callback */
 1954              		.loc 1 1016 0
 1955 004c 0123     		movs	r3, #1
 1956 004e 80F84130 		strb	r3, [r0, #65]
1021:Drivers/STM32F4xx_HAL_Driver/Src/stm32f4xx_hal_i2s_ex.c **** #endif /* USE_HAL_I2S_REGISTER_CALLBACKS */
 1957              		.loc 1 1021 0
 1958 0052 FFF7FEFF 		bl	HAL_I2SEx_TxRxCpltCallback
 1959              	.LVL149:
1025:Drivers/STM32F4xx_HAL_Driver/Src/stm32f4xx_hal_i2s_ex.c **** 
 1960              		.loc 1 1025 0
ARM GAS  C:\Users\User\AppData\Local\Temp\ccqG9tqA.s 			page 61


 1961 0056 F3E7     		b	.L218
 1962              	.L229:
 1963              		.align	2
 1964              	.L228:
 1965 0058 00380040 		.word	1073756160
 1966 005c 00340040 		.word	1073755136
 1967              		.cfi_endproc
 1968              	.LFE140:
 1970              		.section	.text.I2SEx_RxISR_I2S,"ax",%progbits
 1971              		.align	1
 1972              		.syntax unified
 1973              		.thumb
 1974              		.thumb_func
 1975              		.fpu fpv4-sp-d16
 1977              	I2SEx_RxISR_I2S:
 1978              	.LFB141:
1033:Drivers/STM32F4xx_HAL_Driver/Src/stm32f4xx_hal_i2s_ex.c ****   /* Read Data from DR register */
 1979              		.loc 1 1033 0
 1980              		.cfi_startproc
 1981              		@ args = 0, pretend = 0, frame = 0
 1982              		@ frame_needed = 0, uses_anonymous_args = 0
 1983              	.LVL150:
 1984 0000 08B5     		push	{r3, lr}
 1985              	.LCFI18:
 1986              		.cfi_def_cfa_offset 8
 1987              		.cfi_offset 3, -8
 1988              		.cfi_offset 14, -4
1035:Drivers/STM32F4xx_HAL_Driver/Src/stm32f4xx_hal_i2s_ex.c ****   hi2s->RxXferCount--;
 1989              		.loc 1 1035 0
 1990 0002 0368     		ldr	r3, [r0]
 1991 0004 DA68     		ldr	r2, [r3, #12]
 1992 0006 C36A     		ldr	r3, [r0, #44]
 1993 0008 991C     		adds	r1, r3, #2
 1994 000a C162     		str	r1, [r0, #44]
 1995 000c 1A80     		strh	r2, [r3]	@ movhi
1036:Drivers/STM32F4xx_HAL_Driver/Src/stm32f4xx_hal_i2s_ex.c **** 
 1996              		.loc 1 1036 0
 1997 000e 438E     		ldrh	r3, [r0, #50]
 1998 0010 013B     		subs	r3, r3, #1
 1999 0012 9BB2     		uxth	r3, r3
 2000 0014 4386     		strh	r3, [r0, #50]	@ movhi
1038:Drivers/STM32F4xx_HAL_Driver/Src/stm32f4xx_hal_i2s_ex.c ****   {
 2001              		.loc 1 1038 0
 2002 0016 438E     		ldrh	r3, [r0, #50]
 2003 0018 9BB2     		uxth	r3, r3
 2004 001a 3BB9     		cbnz	r3, .L230
1041:Drivers/STM32F4xx_HAL_Driver/Src/stm32f4xx_hal_i2s_ex.c **** 
 2005              		.loc 1 1041 0
 2006 001c 0268     		ldr	r2, [r0]
 2007 001e 5368     		ldr	r3, [r2, #4]
 2008 0020 23F06003 		bic	r3, r3, #96
 2009 0024 5360     		str	r3, [r2, #4]
1043:Drivers/STM32F4xx_HAL_Driver/Src/stm32f4xx_hal_i2s_ex.c ****     {
 2010              		.loc 1 1043 0
 2011 0026 438D     		ldrh	r3, [r0, #42]
 2012 0028 9BB2     		uxth	r3, r3
 2013 002a 03B1     		cbz	r3, .L233
ARM GAS  C:\Users\User\AppData\Local\Temp\ccqG9tqA.s 			page 62


 2014              	.LVL151:
 2015              	.L230:
1054:Drivers/STM32F4xx_HAL_Driver/Src/stm32f4xx_hal_i2s_ex.c **** 
 2016              		.loc 1 1054 0
 2017 002c 08BD     		pop	{r3, pc}
 2018              	.LVL152:
 2019              	.L233:
1045:Drivers/STM32F4xx_HAL_Driver/Src/stm32f4xx_hal_i2s_ex.c ****       /* Call user TxRx complete callback */
 2020              		.loc 1 1045 0
 2021 002e 0123     		movs	r3, #1
 2022 0030 80F84130 		strb	r3, [r0, #65]
1050:Drivers/STM32F4xx_HAL_Driver/Src/stm32f4xx_hal_i2s_ex.c **** #endif /* USE_HAL_I2S_REGISTER_CALLBACKS */
 2023              		.loc 1 1050 0
 2024 0034 FFF7FEFF 		bl	HAL_I2SEx_TxRxCpltCallback
 2025              	.LVL153:
1054:Drivers/STM32F4xx_HAL_Driver/Src/stm32f4xx_hal_i2s_ex.c **** 
 2026              		.loc 1 1054 0
 2027 0038 F8E7     		b	.L230
 2028              		.cfi_endproc
 2029              	.LFE141:
 2031              		.section	.text.HAL_I2SEx_FullDuplex_IRQHandler,"ax",%progbits
 2032              		.align	1
 2033              		.global	HAL_I2SEx_FullDuplex_IRQHandler
 2034              		.syntax unified
 2035              		.thumb
 2036              		.thumb_func
 2037              		.fpu fpv4-sp-d16
 2039              	HAL_I2SEx_FullDuplex_IRQHandler:
 2040              	.LFB133:
 670:Drivers/STM32F4xx_HAL_Driver/Src/stm32f4xx_hal_i2s_ex.c ****   __IO uint32_t i2ssr     = hi2s->Instance->SR;
 2041              		.loc 1 670 0
 2042              		.cfi_startproc
 2043              		@ args = 0, pretend = 0, frame = 24
 2044              		@ frame_needed = 0, uses_anonymous_args = 0
 2045              	.LVL154:
 2046 0000 10B5     		push	{r4, lr}
 2047              	.LCFI19:
 2048              		.cfi_def_cfa_offset 8
 2049              		.cfi_offset 4, -8
 2050              		.cfi_offset 14, -4
 2051 0002 86B0     		sub	sp, sp, #24
 2052              	.LCFI20:
 2053              		.cfi_def_cfa_offset 32
 2054 0004 0446     		mov	r4, r0
 671:Drivers/STM32F4xx_HAL_Driver/Src/stm32f4xx_hal_i2s_ex.c ****   __IO uint32_t i2sextsr  = I2SxEXT(hi2s->Instance)->SR;
 2055              		.loc 1 671 0
 2056 0006 0368     		ldr	r3, [r0]
 2057 0008 9A68     		ldr	r2, [r3, #8]
 2058 000a 0592     		str	r2, [sp, #20]
 672:Drivers/STM32F4xx_HAL_Driver/Src/stm32f4xx_hal_i2s_ex.c ****   __IO uint32_t i2scr2    = hi2s->Instance->CR2;
 2059              		.loc 1 672 0
 2060 000c 704A     		ldr	r2, .L264
 2061 000e 9342     		cmp	r3, r2
 2062 0010 6FD0     		beq	.L255
 2063 0012 4FF04022 		mov	r2, #1073758208
 2064              	.L235:
 672:Drivers/STM32F4xx_HAL_Driver/Src/stm32f4xx_hal_i2s_ex.c ****   __IO uint32_t i2scr2    = hi2s->Instance->CR2;
ARM GAS  C:\Users\User\AppData\Local\Temp\ccqG9tqA.s 			page 63


 2065              		.loc 1 672 0 is_stmt 0 discriminator 4
 2066 0016 9168     		ldr	r1, [r2, #8]
 2067 0018 0491     		str	r1, [sp, #16]
 673:Drivers/STM32F4xx_HAL_Driver/Src/stm32f4xx_hal_i2s_ex.c ****   __IO uint32_t i2sextcr2 = I2SxEXT(hi2s->Instance)->CR2;
 2068              		.loc 1 673 0 is_stmt 1 discriminator 4
 2069 001a 5B68     		ldr	r3, [r3, #4]
 2070 001c 0393     		str	r3, [sp, #12]
 674:Drivers/STM32F4xx_HAL_Driver/Src/stm32f4xx_hal_i2s_ex.c **** 
 2071              		.loc 1 674 0 discriminator 4
 2072 001e 5368     		ldr	r3, [r2, #4]
 2073 0020 0293     		str	r3, [sp, #8]
 677:Drivers/STM32F4xx_HAL_Driver/Src/stm32f4xx_hal_i2s_ex.c ****   {
 2074              		.loc 1 677 0 discriminator 4
 2075 0022 6368     		ldr	r3, [r4, #4]
 2076 0024 B3F5007F 		cmp	r3, #512
 2077 0028 01D0     		beq	.L236
 677:Drivers/STM32F4xx_HAL_Driver/Src/stm32f4xx_hal_i2s_ex.c ****   {
 2078              		.loc 1 677 0 is_stmt 0 discriminator 1
 2079 002a 002B     		cmp	r3, #0
 2080 002c 70D1     		bne	.L237
 2081              	.L236:
 680:Drivers/STM32F4xx_HAL_Driver/Src/stm32f4xx_hal_i2s_ex.c ****     {
 2082              		.loc 1 680 0 is_stmt 1
 2083 002e 059B     		ldr	r3, [sp, #20]
 2084 0030 13F0020F 		tst	r3, #2
 2085 0034 03D0     		beq	.L238
 680:Drivers/STM32F4xx_HAL_Driver/Src/stm32f4xx_hal_i2s_ex.c ****     {
 2086              		.loc 1 680 0 is_stmt 0 discriminator 1
 2087 0036 039B     		ldr	r3, [sp, #12]
 2088 0038 13F0800F 		tst	r3, #128
 2089 003c 5CD1     		bne	.L256
 2090              	.LVL155:
 2091              	.L238:
 688:Drivers/STM32F4xx_HAL_Driver/Src/stm32f4xx_hal_i2s_ex.c ****     {
 2092              		.loc 1 688 0 is_stmt 1
 2093 003e 049B     		ldr	r3, [sp, #16]
 2094 0040 13F0010F 		tst	r3, #1
 2095 0044 03D0     		beq	.L239
 688:Drivers/STM32F4xx_HAL_Driver/Src/stm32f4xx_hal_i2s_ex.c ****     {
 2096              		.loc 1 688 0 is_stmt 0 discriminator 1
 2097 0046 029B     		ldr	r3, [sp, #8]
 2098 0048 13F0400F 		tst	r3, #64
 2099 004c 58D1     		bne	.L257
 2100              	.L239:
 696:Drivers/STM32F4xx_HAL_Driver/Src/stm32f4xx_hal_i2s_ex.c ****     {
 2101              		.loc 1 696 0 is_stmt 1
 2102 004e 049B     		ldr	r3, [sp, #16]
 2103 0050 13F0400F 		tst	r3, #64
 2104 0054 24D0     		beq	.L240
 696:Drivers/STM32F4xx_HAL_Driver/Src/stm32f4xx_hal_i2s_ex.c ****     {
 2105              		.loc 1 696 0 is_stmt 0 discriminator 1
 2106 0056 029B     		ldr	r3, [sp, #8]
 2107 0058 13F0200F 		tst	r3, #32
 2108 005c 20D0     		beq	.L240
 699:Drivers/STM32F4xx_HAL_Driver/Src/stm32f4xx_hal_i2s_ex.c **** 
 2109              		.loc 1 699 0 is_stmt 1
 2110 005e 2268     		ldr	r2, [r4]
ARM GAS  C:\Users\User\AppData\Local\Temp\ccqG9tqA.s 			page 64


 2111 0060 5B4B     		ldr	r3, .L264
 2112 0062 9A42     		cmp	r2, r3
 2113 0064 50D0     		beq	.L258
 2114 0066 4FF04022 		mov	r2, #1073758208
 2115              	.L241:
 699:Drivers/STM32F4xx_HAL_Driver/Src/stm32f4xx_hal_i2s_ex.c **** 
 2116              		.loc 1 699 0 is_stmt 0 discriminator 4
 2117 006a 5368     		ldr	r3, [r2, #4]
 2118 006c 23F06003 		bic	r3, r3, #96
 2119 0070 5360     		str	r3, [r2, #4]
 702:Drivers/STM32F4xx_HAL_Driver/Src/stm32f4xx_hal_i2s_ex.c **** 
 2120              		.loc 1 702 0 is_stmt 1 discriminator 4
 2121 0072 2268     		ldr	r2, [r4]
 2122 0074 5368     		ldr	r3, [r2, #4]
 2123 0076 23F0A003 		bic	r3, r3, #160
 2124 007a 5360     		str	r3, [r2, #4]
 2125              	.LBB10:
 705:Drivers/STM32F4xx_HAL_Driver/Src/stm32f4xx_hal_i2s_ex.c **** 
 2126              		.loc 1 705 0 discriminator 4
 2127 007c 0023     		movs	r3, #0
 2128 007e 0093     		str	r3, [sp]
 2129 0080 2368     		ldr	r3, [r4]
 2130 0082 DA68     		ldr	r2, [r3, #12]
 2131 0084 0092     		str	r2, [sp]
 2132 0086 9B68     		ldr	r3, [r3, #8]
 2133 0088 0093     		str	r3, [sp]
 2134 008a 009B     		ldr	r3, [sp]
 2135              	.LBE10:
 708:Drivers/STM32F4xx_HAL_Driver/Src/stm32f4xx_hal_i2s_ex.c **** 
 2136              		.loc 1 708 0 discriminator 4
 2137 008c 0123     		movs	r3, #1
 2138 008e 84F84130 		strb	r3, [r4, #65]
 711:Drivers/STM32F4xx_HAL_Driver/Src/stm32f4xx_hal_i2s_ex.c ****       /* Call user error callback */
 2139              		.loc 1 711 0 discriminator 4
 2140 0092 636C     		ldr	r3, [r4, #68]
 2141 0094 43F00203 		orr	r3, r3, #2
 2142 0098 6364     		str	r3, [r4, #68]
 716:Drivers/STM32F4xx_HAL_Driver/Src/stm32f4xx_hal_i2s_ex.c **** #endif /* USE_HAL_I2S_REGISTER_CALLBACKS */
 2143              		.loc 1 716 0 discriminator 4
 2144 009a 2046     		mov	r0, r4
 2145 009c FFF7FEFF 		bl	HAL_I2S_ErrorCallback
 2146              	.LVL156:
 2147              	.L240:
 721:Drivers/STM32F4xx_HAL_Driver/Src/stm32f4xx_hal_i2s_ex.c ****     {
 2148              		.loc 1 721 0
 2149 00a0 059B     		ldr	r3, [sp, #20]
 2150 00a2 13F0080F 		tst	r3, #8
 2151 00a6 22D0     		beq	.L234
 721:Drivers/STM32F4xx_HAL_Driver/Src/stm32f4xx_hal_i2s_ex.c ****     {
 2152              		.loc 1 721 0 is_stmt 0 discriminator 1
 2153 00a8 039B     		ldr	r3, [sp, #12]
 2154 00aa 13F0200F 		tst	r3, #32
 2155 00ae 1ED0     		beq	.L234
 724:Drivers/STM32F4xx_HAL_Driver/Src/stm32f4xx_hal_i2s_ex.c **** 
 2156              		.loc 1 724 0 is_stmt 1
 2157 00b0 2268     		ldr	r2, [r4]
 2158 00b2 5368     		ldr	r3, [r2, #4]
ARM GAS  C:\Users\User\AppData\Local\Temp\ccqG9tqA.s 			page 65


 2159 00b4 23F0A003 		bic	r3, r3, #160
 2160 00b8 5360     		str	r3, [r2, #4]
 727:Drivers/STM32F4xx_HAL_Driver/Src/stm32f4xx_hal_i2s_ex.c **** 
 2161              		.loc 1 727 0
 2162 00ba 2268     		ldr	r2, [r4]
 2163 00bc 444B     		ldr	r3, .L264
 2164 00be 9A42     		cmp	r2, r3
 2165 00c0 24D0     		beq	.L259
 2166 00c2 4FF04022 		mov	r2, #1073758208
 2167              	.L243:
 727:Drivers/STM32F4xx_HAL_Driver/Src/stm32f4xx_hal_i2s_ex.c **** 
 2168              		.loc 1 727 0 is_stmt 0 discriminator 4
 2169 00c6 5368     		ldr	r3, [r2, #4]
 2170 00c8 23F06003 		bic	r3, r3, #96
 2171 00cc 5360     		str	r3, [r2, #4]
 2172              	.LBB11:
 730:Drivers/STM32F4xx_HAL_Driver/Src/stm32f4xx_hal_i2s_ex.c **** 
 2173              		.loc 1 730 0 is_stmt 1 discriminator 4
 2174 00ce 0023     		movs	r3, #0
 2175 00d0 0193     		str	r3, [sp, #4]
 2176 00d2 2368     		ldr	r3, [r4]
 2177 00d4 9B68     		ldr	r3, [r3, #8]
 2178 00d6 0193     		str	r3, [sp, #4]
 2179 00d8 019B     		ldr	r3, [sp, #4]
 2180              	.LBE11:
 733:Drivers/STM32F4xx_HAL_Driver/Src/stm32f4xx_hal_i2s_ex.c **** 
 2181              		.loc 1 733 0 discriminator 4
 2182 00da 0123     		movs	r3, #1
 2183 00dc 84F84130 		strb	r3, [r4, #65]
 736:Drivers/STM32F4xx_HAL_Driver/Src/stm32f4xx_hal_i2s_ex.c ****       /* Call user error callback */
 2184              		.loc 1 736 0 discriminator 4
 2185 00e0 636C     		ldr	r3, [r4, #68]
 2186 00e2 43F00403 		orr	r3, r3, #4
 2187 00e6 6364     		str	r3, [r4, #68]
 741:Drivers/STM32F4xx_HAL_Driver/Src/stm32f4xx_hal_i2s_ex.c **** #endif /* USE_HAL_I2S_REGISTER_CALLBACKS */
 2188              		.loc 1 741 0 discriminator 4
 2189 00e8 2046     		mov	r0, r4
 2190 00ea FFF7FEFF 		bl	HAL_I2S_ErrorCallback
 2191              	.LVL157:
 2192              	.L234:
 808:Drivers/STM32F4xx_HAL_Driver/Src/stm32f4xx_hal_i2s_ex.c **** 
 2193              		.loc 1 808 0
 2194 00ee 06B0     		add	sp, sp, #24
 2195              	.LCFI21:
 2196              		.cfi_remember_state
 2197              		.cfi_def_cfa_offset 8
 2198              		@ sp needed
 2199 00f0 10BD     		pop	{r4, pc}
 2200              	.LVL158:
 2201              	.L255:
 2202              	.LCFI22:
 2203              		.cfi_restore_state
 672:Drivers/STM32F4xx_HAL_Driver/Src/stm32f4xx_hal_i2s_ex.c ****   __IO uint32_t i2scr2    = hi2s->Instance->CR2;
 2204              		.loc 1 672 0
 2205 00f2 A2F58062 		sub	r2, r2, #1024
 2206 00f6 8EE7     		b	.L235
 2207              	.L256:
ARM GAS  C:\Users\User\AppData\Local\Temp\ccqG9tqA.s 			page 66


 684:Drivers/STM32F4xx_HAL_Driver/Src/stm32f4xx_hal_i2s_ex.c ****     }
 2208              		.loc 1 684 0
 2209 00f8 2046     		mov	r0, r4
 2210              	.LVL159:
 2211 00fa FFF7FEFF 		bl	I2SEx_TxISR_I2S
 2212              	.LVL160:
 2213 00fe 9EE7     		b	.L238
 2214              	.L257:
 692:Drivers/STM32F4xx_HAL_Driver/Src/stm32f4xx_hal_i2s_ex.c ****     }
 2215              		.loc 1 692 0
 2216 0100 2046     		mov	r0, r4
 2217 0102 FFF7FEFF 		bl	I2SEx_RxISR_I2SExt
 2218              	.LVL161:
 2219 0106 A2E7     		b	.L239
 2220              	.L258:
 699:Drivers/STM32F4xx_HAL_Driver/Src/stm32f4xx_hal_i2s_ex.c **** 
 2221              		.loc 1 699 0
 2222 0108 324A     		ldr	r2, .L264+4
 2223 010a AEE7     		b	.L241
 2224              	.L259:
 727:Drivers/STM32F4xx_HAL_Driver/Src/stm32f4xx_hal_i2s_ex.c **** 
 2225              		.loc 1 727 0
 2226 010c 314A     		ldr	r2, .L264+4
 2227 010e DAE7     		b	.L243
 2228              	.LVL162:
 2229              	.L237:
 749:Drivers/STM32F4xx_HAL_Driver/Src/stm32f4xx_hal_i2s_ex.c ****     {
 2230              		.loc 1 749 0
 2231 0110 049B     		ldr	r3, [sp, #16]
 2232 0112 13F0020F 		tst	r3, #2
 2233 0116 03D0     		beq	.L244
 749:Drivers/STM32F4xx_HAL_Driver/Src/stm32f4xx_hal_i2s_ex.c ****     {
 2234              		.loc 1 749 0 is_stmt 0 discriminator 1
 2235 0118 029B     		ldr	r3, [sp, #8]
 2236 011a 13F0800F 		tst	r3, #128
 2237 011e 4AD1     		bne	.L260
 2238              	.LVL163:
 2239              	.L244:
 757:Drivers/STM32F4xx_HAL_Driver/Src/stm32f4xx_hal_i2s_ex.c ****     {
 2240              		.loc 1 757 0 is_stmt 1
 2241 0120 059B     		ldr	r3, [sp, #20]
 2242 0122 13F0010F 		tst	r3, #1
 2243 0126 03D0     		beq	.L245
 757:Drivers/STM32F4xx_HAL_Driver/Src/stm32f4xx_hal_i2s_ex.c ****     {
 2244              		.loc 1 757 0 is_stmt 0 discriminator 1
 2245 0128 039B     		ldr	r3, [sp, #12]
 2246 012a 13F0400F 		tst	r3, #64
 2247 012e 46D1     		bne	.L261
 2248              	.L245:
 765:Drivers/STM32F4xx_HAL_Driver/Src/stm32f4xx_hal_i2s_ex.c ****     {
 2249              		.loc 1 765 0 is_stmt 1
 2250 0130 059B     		ldr	r3, [sp, #20]
 2251 0132 13F0400F 		tst	r3, #64
 2252 0136 1CD0     		beq	.L246
 765:Drivers/STM32F4xx_HAL_Driver/Src/stm32f4xx_hal_i2s_ex.c ****     {
 2253              		.loc 1 765 0 is_stmt 0 discriminator 1
 2254 0138 039B     		ldr	r3, [sp, #12]
ARM GAS  C:\Users\User\AppData\Local\Temp\ccqG9tqA.s 			page 67


 2255 013a 13F0200F 		tst	r3, #32
 2256 013e 18D0     		beq	.L246
 768:Drivers/STM32F4xx_HAL_Driver/Src/stm32f4xx_hal_i2s_ex.c **** 
 2257              		.loc 1 768 0 is_stmt 1
 2258 0140 2268     		ldr	r2, [r4]
 2259 0142 5368     		ldr	r3, [r2, #4]
 2260 0144 23F06003 		bic	r3, r3, #96
 2261 0148 5360     		str	r3, [r2, #4]
 771:Drivers/STM32F4xx_HAL_Driver/Src/stm32f4xx_hal_i2s_ex.c **** 
 2262              		.loc 1 771 0
 2263 014a 2268     		ldr	r2, [r4]
 2264 014c 204B     		ldr	r3, .L264
 2265 014e 9A42     		cmp	r2, r3
 2266 0150 39D0     		beq	.L262
 2267 0152 4FF04022 		mov	r2, #1073758208
 2268              	.L247:
 771:Drivers/STM32F4xx_HAL_Driver/Src/stm32f4xx_hal_i2s_ex.c **** 
 2269              		.loc 1 771 0 is_stmt 0 discriminator 4
 2270 0156 5368     		ldr	r3, [r2, #4]
 2271 0158 23F0A003 		bic	r3, r3, #160
 2272 015c 5360     		str	r3, [r2, #4]
 774:Drivers/STM32F4xx_HAL_Driver/Src/stm32f4xx_hal_i2s_ex.c **** 
 2273              		.loc 1 774 0 is_stmt 1 discriminator 4
 2274 015e 0123     		movs	r3, #1
 2275 0160 84F84130 		strb	r3, [r4, #65]
 777:Drivers/STM32F4xx_HAL_Driver/Src/stm32f4xx_hal_i2s_ex.c ****       /* Call user error callback */
 2276              		.loc 1 777 0 discriminator 4
 2277 0164 636C     		ldr	r3, [r4, #68]
 2278 0166 43F00203 		orr	r3, r3, #2
 2279 016a 6364     		str	r3, [r4, #68]
 782:Drivers/STM32F4xx_HAL_Driver/Src/stm32f4xx_hal_i2s_ex.c **** #endif /* USE_HAL_I2S_REGISTER_CALLBACKS */
 2280              		.loc 1 782 0 discriminator 4
 2281 016c 2046     		mov	r0, r4
 2282 016e FFF7FEFF 		bl	HAL_I2S_ErrorCallback
 2283              	.LVL164:
 2284              	.L246:
 787:Drivers/STM32F4xx_HAL_Driver/Src/stm32f4xx_hal_i2s_ex.c ****     {
 2285              		.loc 1 787 0
 2286 0172 049B     		ldr	r3, [sp, #16]
 2287 0174 13F0080F 		tst	r3, #8
 2288 0178 B9D0     		beq	.L234
 787:Drivers/STM32F4xx_HAL_Driver/Src/stm32f4xx_hal_i2s_ex.c ****     {
 2289              		.loc 1 787 0 is_stmt 0 discriminator 1
 2290 017a 029B     		ldr	r3, [sp, #8]
 2291 017c 13F0200F 		tst	r3, #32
 2292 0180 B5D0     		beq	.L234
 790:Drivers/STM32F4xx_HAL_Driver/Src/stm32f4xx_hal_i2s_ex.c **** 
 2293              		.loc 1 790 0 is_stmt 1
 2294 0182 2268     		ldr	r2, [r4]
 2295 0184 124B     		ldr	r3, .L264
 2296 0186 9A42     		cmp	r2, r3
 2297 0188 1FD0     		beq	.L263
 2298 018a 4FF04022 		mov	r2, #1073758208
 2299              	.L248:
 790:Drivers/STM32F4xx_HAL_Driver/Src/stm32f4xx_hal_i2s_ex.c **** 
 2300              		.loc 1 790 0 is_stmt 0 discriminator 4
 2301 018e 5368     		ldr	r3, [r2, #4]
ARM GAS  C:\Users\User\AppData\Local\Temp\ccqG9tqA.s 			page 68


 2302 0190 23F0A003 		bic	r3, r3, #160
 2303 0194 5360     		str	r3, [r2, #4]
 793:Drivers/STM32F4xx_HAL_Driver/Src/stm32f4xx_hal_i2s_ex.c **** 
 2304              		.loc 1 793 0 is_stmt 1 discriminator 4
 2305 0196 2268     		ldr	r2, [r4]
 2306 0198 5368     		ldr	r3, [r2, #4]
 2307 019a 23F06003 		bic	r3, r3, #96
 2308 019e 5360     		str	r3, [r2, #4]
 796:Drivers/STM32F4xx_HAL_Driver/Src/stm32f4xx_hal_i2s_ex.c **** 
 2309              		.loc 1 796 0 discriminator 4
 2310 01a0 0123     		movs	r3, #1
 2311 01a2 84F84130 		strb	r3, [r4, #65]
 799:Drivers/STM32F4xx_HAL_Driver/Src/stm32f4xx_hal_i2s_ex.c ****       /* Call user error callback */
 2312              		.loc 1 799 0 discriminator 4
 2313 01a6 636C     		ldr	r3, [r4, #68]
 2314 01a8 43F00403 		orr	r3, r3, #4
 2315 01ac 6364     		str	r3, [r4, #68]
 804:Drivers/STM32F4xx_HAL_Driver/Src/stm32f4xx_hal_i2s_ex.c **** #endif /* USE_HAL_I2S_REGISTER_CALLBACKS */
 2316              		.loc 1 804 0 discriminator 4
 2317 01ae 2046     		mov	r0, r4
 2318 01b0 FFF7FEFF 		bl	HAL_I2S_ErrorCallback
 2319              	.LVL165:
 808:Drivers/STM32F4xx_HAL_Driver/Src/stm32f4xx_hal_i2s_ex.c **** 
 2320              		.loc 1 808 0 discriminator 4
 2321 01b4 9BE7     		b	.L234
 2322              	.LVL166:
 2323              	.L260:
 753:Drivers/STM32F4xx_HAL_Driver/Src/stm32f4xx_hal_i2s_ex.c ****     }
 2324              		.loc 1 753 0
 2325 01b6 2046     		mov	r0, r4
 2326              	.LVL167:
 2327 01b8 FFF7FEFF 		bl	I2SEx_TxISR_I2SExt
 2328              	.LVL168:
 2329 01bc B0E7     		b	.L244
 2330              	.L261:
 761:Drivers/STM32F4xx_HAL_Driver/Src/stm32f4xx_hal_i2s_ex.c ****     }
 2331              		.loc 1 761 0
 2332 01be 2046     		mov	r0, r4
 2333 01c0 FFF7FEFF 		bl	I2SEx_RxISR_I2S
 2334              	.LVL169:
 2335 01c4 B4E7     		b	.L245
 2336              	.L262:
 771:Drivers/STM32F4xx_HAL_Driver/Src/stm32f4xx_hal_i2s_ex.c **** 
 2337              		.loc 1 771 0
 2338 01c6 034A     		ldr	r2, .L264+4
 2339 01c8 C5E7     		b	.L247
 2340              	.L263:
 790:Drivers/STM32F4xx_HAL_Driver/Src/stm32f4xx_hal_i2s_ex.c **** 
 2341              		.loc 1 790 0
 2342 01ca 024A     		ldr	r2, .L264+4
 2343 01cc DFE7     		b	.L248
 2344              	.L265:
 2345 01ce 00BF     		.align	2
 2346              	.L264:
 2347 01d0 00380040 		.word	1073756160
 2348 01d4 00340040 		.word	1073755136
 2349              		.cfi_endproc
ARM GAS  C:\Users\User\AppData\Local\Temp\ccqG9tqA.s 			page 69


 2350              	.LFE133:
 2352              		.text
 2353              	.Letext0:
 2354              		.file 2 "d:\\stm32_project\\tool\\7-2018-q2-update\\arm-none-eabi\\include\\machine\\_default_type
 2355              		.file 3 "d:\\stm32_project\\tool\\7-2018-q2-update\\arm-none-eabi\\include\\sys\\_stdint.h"
 2356              		.file 4 "Drivers/CMSIS/Include/core_cm4.h"
 2357              		.file 5 "Drivers/CMSIS/Device/ST/STM32F4xx/Include/system_stm32f4xx.h"
 2358              		.file 6 "Drivers/CMSIS/Device/ST/STM32F4xx/Include/stm32f407xx.h"
 2359              		.file 7 "Drivers/CMSIS/Device/ST/STM32F4xx/Include/stm32f4xx.h"
 2360              		.file 8 "Drivers/STM32F4xx_HAL_Driver/Inc/stm32f4xx_hal_def.h"
 2361              		.file 9 "Drivers/STM32F4xx_HAL_Driver/Inc/stm32f4xx_hal_dma.h"
 2362              		.file 10 "Drivers/STM32F4xx_HAL_Driver/Inc/stm32f4xx_hal_i2s.h"
 2363              		.file 11 "Drivers/STM32F4xx_HAL_Driver/Inc/stm32f4xx_hal.h"
ARM GAS  C:\Users\User\AppData\Local\Temp\ccqG9tqA.s 			page 70


DEFINED SYMBOLS
                            *ABS*:00000000 stm32f4xx_hal_i2s_ex.c
C:\Users\User\AppData\Local\Temp\ccqG9tqA.s:18     .text.I2SEx_FullDuplexWaitFlagStateUntilTimeout:00000000 $t
C:\Users\User\AppData\Local\Temp\ccqG9tqA.s:24     .text.I2SEx_FullDuplexWaitFlagStateUntilTimeout:00000000 I2SEx_FullDuplexWaitFlagStateUntilTimeout
C:\Users\User\AppData\Local\Temp\ccqG9tqA.s:156    .text.I2SEx_FullDuplexWaitFlagStateUntilTimeout:000000a8 $d
C:\Users\User\AppData\Local\Temp\ccqG9tqA.s:161    .text.I2SEx_TxRxDMAError:00000000 $t
C:\Users\User\AppData\Local\Temp\ccqG9tqA.s:167    .text.I2SEx_TxRxDMAError:00000000 I2SEx_TxRxDMAError
C:\Users\User\AppData\Local\Temp\ccqG9tqA.s:223    .text.I2SEx_TxRxDMAError:00000040 $d
C:\Users\User\AppData\Local\Temp\ccqG9tqA.s:229    .text.HAL_I2SEx_TransmitReceive:00000000 $t
C:\Users\User\AppData\Local\Temp\ccqG9tqA.s:236    .text.HAL_I2SEx_TransmitReceive:00000000 HAL_I2SEx_TransmitReceive
C:\Users\User\AppData\Local\Temp\ccqG9tqA.s:760    .text.HAL_I2SEx_TransmitReceive:000002d8 $d
C:\Users\User\AppData\Local\Temp\ccqG9tqA.s:765    .text.HAL_I2SEx_TransmitReceive:000002e0 $t
C:\Users\User\AppData\Local\Temp\ccqG9tqA.s:854    .text.HAL_I2SEx_TransmitReceive_IT:00000000 $t
C:\Users\User\AppData\Local\Temp\ccqG9tqA.s:861    .text.HAL_I2SEx_TransmitReceive_IT:00000000 HAL_I2SEx_TransmitReceive_IT
C:\Users\User\AppData\Local\Temp\ccqG9tqA.s:1135   .text.HAL_I2SEx_TransmitReceive_IT:00000164 $d
C:\Users\User\AppData\Local\Temp\ccqG9tqA.s:1141   .text.HAL_I2SEx_TransmitReceive_DMA:00000000 $t
C:\Users\User\AppData\Local\Temp\ccqG9tqA.s:1148   .text.HAL_I2SEx_TransmitReceive_DMA:00000000 HAL_I2SEx_TransmitReceive_DMA
C:\Users\User\AppData\Local\Temp\ccqG9tqA.s:1502   .text.HAL_I2SEx_TransmitReceive_DMA:000001d0 $d
C:\Users\User\AppData\Local\Temp\ccqG9tqA.s:1538   .text.I2SEx_TxRxDMAHalfCplt:00000000 I2SEx_TxRxDMAHalfCplt
C:\Users\User\AppData\Local\Temp\ccqG9tqA.s:1589   .text.I2SEx_TxRxDMACplt:00000000 I2SEx_TxRxDMACplt
C:\Users\User\AppData\Local\Temp\ccqG9tqA.s:1511   .text.HAL_I2SEx_TxRxHalfCpltCallback:00000000 $t
C:\Users\User\AppData\Local\Temp\ccqG9tqA.s:1518   .text.HAL_I2SEx_TxRxHalfCpltCallback:00000000 HAL_I2SEx_TxRxHalfCpltCallback
C:\Users\User\AppData\Local\Temp\ccqG9tqA.s:1532   .text.I2SEx_TxRxDMAHalfCplt:00000000 $t
C:\Users\User\AppData\Local\Temp\ccqG9tqA.s:1562   .text.HAL_I2SEx_TxRxCpltCallback:00000000 $t
C:\Users\User\AppData\Local\Temp\ccqG9tqA.s:1569   .text.HAL_I2SEx_TxRxCpltCallback:00000000 HAL_I2SEx_TxRxCpltCallback
C:\Users\User\AppData\Local\Temp\ccqG9tqA.s:1583   .text.I2SEx_TxRxDMACplt:00000000 $t
C:\Users\User\AppData\Local\Temp\ccqG9tqA.s:1732   .text.I2SEx_TxRxDMACplt:000000bc $d
C:\Users\User\AppData\Local\Temp\ccqG9tqA.s:1738   .text.I2SEx_TxISR_I2S:00000000 $t
C:\Users\User\AppData\Local\Temp\ccqG9tqA.s:1744   .text.I2SEx_TxISR_I2S:00000000 I2SEx_TxISR_I2S
C:\Users\User\AppData\Local\Temp\ccqG9tqA.s:1799   .text.I2SEx_RxISR_I2SExt:00000000 $t
C:\Users\User\AppData\Local\Temp\ccqG9tqA.s:1805   .text.I2SEx_RxISR_I2SExt:00000000 I2SEx_RxISR_I2SExt
C:\Users\User\AppData\Local\Temp\ccqG9tqA.s:1879   .text.I2SEx_RxISR_I2SExt:00000058 $d
C:\Users\User\AppData\Local\Temp\ccqG9tqA.s:1885   .text.I2SEx_TxISR_I2SExt:00000000 $t
C:\Users\User\AppData\Local\Temp\ccqG9tqA.s:1891   .text.I2SEx_TxISR_I2SExt:00000000 I2SEx_TxISR_I2SExt
C:\Users\User\AppData\Local\Temp\ccqG9tqA.s:1965   .text.I2SEx_TxISR_I2SExt:00000058 $d
C:\Users\User\AppData\Local\Temp\ccqG9tqA.s:1971   .text.I2SEx_RxISR_I2S:00000000 $t
C:\Users\User\AppData\Local\Temp\ccqG9tqA.s:1977   .text.I2SEx_RxISR_I2S:00000000 I2SEx_RxISR_I2S
C:\Users\User\AppData\Local\Temp\ccqG9tqA.s:2032   .text.HAL_I2SEx_FullDuplex_IRQHandler:00000000 $t
C:\Users\User\AppData\Local\Temp\ccqG9tqA.s:2039   .text.HAL_I2SEx_FullDuplex_IRQHandler:00000000 HAL_I2SEx_FullDuplex_IRQHandler
C:\Users\User\AppData\Local\Temp\ccqG9tqA.s:2347   .text.HAL_I2SEx_FullDuplex_IRQHandler:000001d0 $d

UNDEFINED SYMBOLS
HAL_GetTick
HAL_I2S_ErrorCallback
HAL_DMA_Start_IT
