ARM GAS  C:\Users\User\AppData\Local\Temp\ccSgWNni.s 			page 1


   1              		.cpu cortex-m4
   2              		.eabi_attribute 27, 1
   3              		.eabi_attribute 28, 1
   4              		.eabi_attribute 20, 1
   5              		.eabi_attribute 21, 1
   6              		.eabi_attribute 23, 3
   7              		.eabi_attribute 24, 1
   8              		.eabi_attribute 25, 1
   9              		.eabi_attribute 26, 1
  10              		.eabi_attribute 30, 1
  11              		.eabi_attribute 34, 1
  12              		.eabi_attribute 18, 4
  13              		.file	"usbh_conf.c"
  14              		.text
  15              	.Ltext0:
  16              		.cfi_sections	.debug_frame
  17              		.section	.text.HAL_HCD_MspInit,"ax",%progbits
  18              		.align	1
  19              		.global	HAL_HCD_MspInit
  20              		.syntax unified
  21              		.thumb
  22              		.thumb_func
  23              		.fpu fpv4-sp-d16
  25              	HAL_HCD_MspInit:
  26              	.LFB133:
  27              		.file 1 "USB_HOST/Target/usbh_conf.c"
   1:USB_HOST/Target/usbh_conf.c **** /* USER CODE BEGIN Header */
   2:USB_HOST/Target/usbh_conf.c **** /**
   3:USB_HOST/Target/usbh_conf.c ****   ******************************************************************************
   4:USB_HOST/Target/usbh_conf.c ****   * @file           : Target/usbh_conf.c
   5:USB_HOST/Target/usbh_conf.c ****   * @version        : v1.0_Cube
   6:USB_HOST/Target/usbh_conf.c ****   * @brief          : This file implements the board support package for the USB host library
   7:USB_HOST/Target/usbh_conf.c ****   ******************************************************************************
   8:USB_HOST/Target/usbh_conf.c ****   * @attention
   9:USB_HOST/Target/usbh_conf.c ****   *
  10:USB_HOST/Target/usbh_conf.c ****   * <h2><center>&copy; Copyright (c) 2021 STMicroelectronics.
  11:USB_HOST/Target/usbh_conf.c ****   * All rights reserved.</center></h2>
  12:USB_HOST/Target/usbh_conf.c ****   *
  13:USB_HOST/Target/usbh_conf.c ****   * This software component is licensed by ST under Ultimate Liberty license
  14:USB_HOST/Target/usbh_conf.c ****   * SLA0044, the "License"; You may not use this file except in compliance with
  15:USB_HOST/Target/usbh_conf.c ****   * the License. You may obtain a copy of the License at:
  16:USB_HOST/Target/usbh_conf.c ****   *                             www.st.com/SLA0044
  17:USB_HOST/Target/usbh_conf.c ****   *
  18:USB_HOST/Target/usbh_conf.c ****   ******************************************************************************
  19:USB_HOST/Target/usbh_conf.c ****   */
  20:USB_HOST/Target/usbh_conf.c **** /* USER CODE END Header */
  21:USB_HOST/Target/usbh_conf.c **** 
  22:USB_HOST/Target/usbh_conf.c **** /* Includes ------------------------------------------------------------------*/
  23:USB_HOST/Target/usbh_conf.c **** #include "usbh_core.h"
  24:USB_HOST/Target/usbh_conf.c **** #include "usbh_platform.h"
  25:USB_HOST/Target/usbh_conf.c **** 
  26:USB_HOST/Target/usbh_conf.c **** /* USER CODE BEGIN Includes */
  27:USB_HOST/Target/usbh_conf.c **** 
  28:USB_HOST/Target/usbh_conf.c **** /* USER CODE END Includes */
  29:USB_HOST/Target/usbh_conf.c **** 
  30:USB_HOST/Target/usbh_conf.c **** /* Private typedef -----------------------------------------------------------*/
  31:USB_HOST/Target/usbh_conf.c **** /* Private define ------------------------------------------------------------*/
ARM GAS  C:\Users\User\AppData\Local\Temp\ccSgWNni.s 			page 2


  32:USB_HOST/Target/usbh_conf.c **** /* Private macro -------------------------------------------------------------*/
  33:USB_HOST/Target/usbh_conf.c **** 
  34:USB_HOST/Target/usbh_conf.c **** /* USER CODE BEGIN PV */
  35:USB_HOST/Target/usbh_conf.c **** /* Private variables ---------------------------------------------------------*/
  36:USB_HOST/Target/usbh_conf.c **** 
  37:USB_HOST/Target/usbh_conf.c **** /* USER CODE END PV */
  38:USB_HOST/Target/usbh_conf.c **** 
  39:USB_HOST/Target/usbh_conf.c **** HCD_HandleTypeDef hhcd_USB_OTG_FS;
  40:USB_HOST/Target/usbh_conf.c **** void Error_Handler(void);
  41:USB_HOST/Target/usbh_conf.c **** 
  42:USB_HOST/Target/usbh_conf.c **** /* USER CODE BEGIN 0 */
  43:USB_HOST/Target/usbh_conf.c **** 
  44:USB_HOST/Target/usbh_conf.c **** /* USER CODE END 0 */
  45:USB_HOST/Target/usbh_conf.c **** 
  46:USB_HOST/Target/usbh_conf.c **** /* USER CODE BEGIN PFP */
  47:USB_HOST/Target/usbh_conf.c **** /* Private function prototypes -----------------------------------------------*/
  48:USB_HOST/Target/usbh_conf.c **** USBH_StatusTypeDef USBH_Get_USB_Status(HAL_StatusTypeDef hal_status);
  49:USB_HOST/Target/usbh_conf.c **** 
  50:USB_HOST/Target/usbh_conf.c **** /* USER CODE END PFP */
  51:USB_HOST/Target/usbh_conf.c **** 
  52:USB_HOST/Target/usbh_conf.c **** /* Private functions ---------------------------------------------------------*/
  53:USB_HOST/Target/usbh_conf.c **** 
  54:USB_HOST/Target/usbh_conf.c **** /* USER CODE BEGIN 1 */
  55:USB_HOST/Target/usbh_conf.c **** 
  56:USB_HOST/Target/usbh_conf.c **** /* USER CODE END 1 */
  57:USB_HOST/Target/usbh_conf.c **** 
  58:USB_HOST/Target/usbh_conf.c **** /*******************************************************************************
  59:USB_HOST/Target/usbh_conf.c ****                        LL Driver Callbacks (HCD -> USB Host Library)
  60:USB_HOST/Target/usbh_conf.c **** *******************************************************************************/
  61:USB_HOST/Target/usbh_conf.c **** /* MSP Init */
  62:USB_HOST/Target/usbh_conf.c **** 
  63:USB_HOST/Target/usbh_conf.c **** void HAL_HCD_MspInit(HCD_HandleTypeDef* hcdHandle)
  64:USB_HOST/Target/usbh_conf.c **** {
  28              		.loc 1 64 0
  29              		.cfi_startproc
  30              		@ args = 0, pretend = 0, frame = 32
  31              		@ frame_needed = 0, uses_anonymous_args = 0
  32              	.LVL0:
  33 0000 F0B5     		push	{r4, r5, r6, r7, lr}
  34              	.LCFI0:
  35              		.cfi_def_cfa_offset 20
  36              		.cfi_offset 4, -20
  37              		.cfi_offset 5, -16
  38              		.cfi_offset 6, -12
  39              		.cfi_offset 7, -8
  40              		.cfi_offset 14, -4
  41 0002 89B0     		sub	sp, sp, #36
  42              	.LCFI1:
  43              		.cfi_def_cfa_offset 56
  65:USB_HOST/Target/usbh_conf.c ****   GPIO_InitTypeDef GPIO_InitStruct = {0};
  44              		.loc 1 65 0
  45 0004 0023     		movs	r3, #0
  46 0006 0393     		str	r3, [sp, #12]
  47 0008 0493     		str	r3, [sp, #16]
  48 000a 0593     		str	r3, [sp, #20]
  49 000c 0693     		str	r3, [sp, #24]
  50 000e 0793     		str	r3, [sp, #28]
ARM GAS  C:\Users\User\AppData\Local\Temp\ccSgWNni.s 			page 3


  66:USB_HOST/Target/usbh_conf.c ****   if(hcdHandle->Instance==USB_OTG_FS)
  51              		.loc 1 66 0
  52 0010 0368     		ldr	r3, [r0]
  53 0012 B3F1A04F 		cmp	r3, #1342177280
  54 0016 01D0     		beq	.L4
  55              	.LVL1:
  56              	.L1:
  67:USB_HOST/Target/usbh_conf.c ****   {
  68:USB_HOST/Target/usbh_conf.c ****   /* USER CODE BEGIN USB_OTG_FS_MspInit 0 */
  69:USB_HOST/Target/usbh_conf.c **** 
  70:USB_HOST/Target/usbh_conf.c ****   /* USER CODE END USB_OTG_FS_MspInit 0 */
  71:USB_HOST/Target/usbh_conf.c **** 
  72:USB_HOST/Target/usbh_conf.c ****     __HAL_RCC_GPIOA_CLK_ENABLE();
  73:USB_HOST/Target/usbh_conf.c ****     /**USB_OTG_FS GPIO Configuration
  74:USB_HOST/Target/usbh_conf.c ****     PA9     ------> USB_OTG_FS_VBUS
  75:USB_HOST/Target/usbh_conf.c ****     PA10     ------> USB_OTG_FS_ID
  76:USB_HOST/Target/usbh_conf.c ****     PA11     ------> USB_OTG_FS_DM
  77:USB_HOST/Target/usbh_conf.c ****     PA12     ------> USB_OTG_FS_DP
  78:USB_HOST/Target/usbh_conf.c ****     */
  79:USB_HOST/Target/usbh_conf.c ****     GPIO_InitStruct.Pin = VBUS_FS_Pin;
  80:USB_HOST/Target/usbh_conf.c ****     GPIO_InitStruct.Mode = GPIO_MODE_INPUT;
  81:USB_HOST/Target/usbh_conf.c ****     GPIO_InitStruct.Pull = GPIO_NOPULL;
  82:USB_HOST/Target/usbh_conf.c ****     HAL_GPIO_Init(VBUS_FS_GPIO_Port, &GPIO_InitStruct);
  83:USB_HOST/Target/usbh_conf.c **** 
  84:USB_HOST/Target/usbh_conf.c ****     GPIO_InitStruct.Pin = OTG_FS_ID_Pin|OTG_FS_DM_Pin|OTG_FS_DP_Pin;
  85:USB_HOST/Target/usbh_conf.c ****     GPIO_InitStruct.Mode = GPIO_MODE_AF_PP;
  86:USB_HOST/Target/usbh_conf.c ****     GPIO_InitStruct.Pull = GPIO_NOPULL;
  87:USB_HOST/Target/usbh_conf.c ****     GPIO_InitStruct.Speed = GPIO_SPEED_FREQ_LOW;
  88:USB_HOST/Target/usbh_conf.c ****     GPIO_InitStruct.Alternate = GPIO_AF10_OTG_FS;
  89:USB_HOST/Target/usbh_conf.c ****     HAL_GPIO_Init(GPIOA, &GPIO_InitStruct);
  90:USB_HOST/Target/usbh_conf.c **** 
  91:USB_HOST/Target/usbh_conf.c ****     /* Peripheral clock enable */
  92:USB_HOST/Target/usbh_conf.c ****     __HAL_RCC_USB_OTG_FS_CLK_ENABLE();
  93:USB_HOST/Target/usbh_conf.c **** 
  94:USB_HOST/Target/usbh_conf.c ****     /* Peripheral interrupt init */
  95:USB_HOST/Target/usbh_conf.c ****     HAL_NVIC_SetPriority(OTG_FS_IRQn, 0, 0);
  96:USB_HOST/Target/usbh_conf.c ****     HAL_NVIC_EnableIRQ(OTG_FS_IRQn);
  97:USB_HOST/Target/usbh_conf.c ****   /* USER CODE BEGIN USB_OTG_FS_MspInit 1 */
  98:USB_HOST/Target/usbh_conf.c **** 
  99:USB_HOST/Target/usbh_conf.c ****   /* USER CODE END USB_OTG_FS_MspInit 1 */
 100:USB_HOST/Target/usbh_conf.c ****   }
 101:USB_HOST/Target/usbh_conf.c **** }
  57              		.loc 1 101 0
  58 0018 09B0     		add	sp, sp, #36
  59              	.LCFI2:
  60              		.cfi_remember_state
  61              		.cfi_def_cfa_offset 20
  62              		@ sp needed
  63 001a F0BD     		pop	{r4, r5, r6, r7, pc}
  64              	.LVL2:
  65              	.L4:
  66              	.LCFI3:
  67              		.cfi_restore_state
  68              	.LBB2:
  72:USB_HOST/Target/usbh_conf.c ****     /**USB_OTG_FS GPIO Configuration
  69              		.loc 1 72 0
  70 001c 0025     		movs	r5, #0
ARM GAS  C:\Users\User\AppData\Local\Temp\ccSgWNni.s 			page 4


  71 001e 0195     		str	r5, [sp, #4]
  72 0020 1B4C     		ldr	r4, .L5
  73 0022 236B     		ldr	r3, [r4, #48]
  74 0024 43F00103 		orr	r3, r3, #1
  75 0028 2363     		str	r3, [r4, #48]
  76 002a 236B     		ldr	r3, [r4, #48]
  77 002c 03F00103 		and	r3, r3, #1
  78 0030 0193     		str	r3, [sp, #4]
  79 0032 019B     		ldr	r3, [sp, #4]
  80              	.LBE2:
  79:USB_HOST/Target/usbh_conf.c ****     GPIO_InitStruct.Mode = GPIO_MODE_INPUT;
  81              		.loc 1 79 0
  82 0034 08AE     		add	r6, sp, #32
  83 0036 4FF40073 		mov	r3, #512
  84 003a 46F8143D 		str	r3, [r6, #-20]!
  82:USB_HOST/Target/usbh_conf.c **** 
  85              		.loc 1 82 0
  86 003e 154F     		ldr	r7, .L5+4
  87 0040 3146     		mov	r1, r6
  88 0042 3846     		mov	r0, r7
  89              	.LVL3:
  90 0044 FFF7FEFF 		bl	HAL_GPIO_Init
  91              	.LVL4:
  84:USB_HOST/Target/usbh_conf.c ****     GPIO_InitStruct.Mode = GPIO_MODE_AF_PP;
  92              		.loc 1 84 0
  93 0048 4FF4E053 		mov	r3, #7168
  94 004c 0393     		str	r3, [sp, #12]
  85:USB_HOST/Target/usbh_conf.c ****     GPIO_InitStruct.Pull = GPIO_NOPULL;
  95              		.loc 1 85 0
  96 004e 0223     		movs	r3, #2
  97 0050 0493     		str	r3, [sp, #16]
  86:USB_HOST/Target/usbh_conf.c ****     GPIO_InitStruct.Speed = GPIO_SPEED_FREQ_LOW;
  98              		.loc 1 86 0
  99 0052 0595     		str	r5, [sp, #20]
  87:USB_HOST/Target/usbh_conf.c ****     GPIO_InitStruct.Alternate = GPIO_AF10_OTG_FS;
 100              		.loc 1 87 0
 101 0054 0695     		str	r5, [sp, #24]
  88:USB_HOST/Target/usbh_conf.c ****     HAL_GPIO_Init(GPIOA, &GPIO_InitStruct);
 102              		.loc 1 88 0
 103 0056 0A23     		movs	r3, #10
 104 0058 0793     		str	r3, [sp, #28]
  89:USB_HOST/Target/usbh_conf.c **** 
 105              		.loc 1 89 0
 106 005a 3146     		mov	r1, r6
 107 005c 3846     		mov	r0, r7
 108 005e FFF7FEFF 		bl	HAL_GPIO_Init
 109              	.LVL5:
  92:USB_HOST/Target/usbh_conf.c **** 
 110              		.loc 1 92 0
 111 0062 636B     		ldr	r3, [r4, #52]
 112 0064 43F08003 		orr	r3, r3, #128
 113 0068 6363     		str	r3, [r4, #52]
 114              	.LBB3:
 115 006a 0295     		str	r5, [sp, #8]
 116 006c 636C     		ldr	r3, [r4, #68]
 117 006e 43F48043 		orr	r3, r3, #16384
 118 0072 6364     		str	r3, [r4, #68]
ARM GAS  C:\Users\User\AppData\Local\Temp\ccSgWNni.s 			page 5


 119 0074 636C     		ldr	r3, [r4, #68]
 120 0076 03F48043 		and	r3, r3, #16384
 121 007a 0293     		str	r3, [sp, #8]
 122 007c 029B     		ldr	r3, [sp, #8]
 123              	.LBE3:
  95:USB_HOST/Target/usbh_conf.c ****     HAL_NVIC_EnableIRQ(OTG_FS_IRQn);
 124              		.loc 1 95 0
 125 007e 2A46     		mov	r2, r5
 126 0080 2946     		mov	r1, r5
 127 0082 4320     		movs	r0, #67
 128 0084 FFF7FEFF 		bl	HAL_NVIC_SetPriority
 129              	.LVL6:
  96:USB_HOST/Target/usbh_conf.c ****   /* USER CODE BEGIN USB_OTG_FS_MspInit 1 */
 130              		.loc 1 96 0
 131 0088 4320     		movs	r0, #67
 132 008a FFF7FEFF 		bl	HAL_NVIC_EnableIRQ
 133              	.LVL7:
 134              		.loc 1 101 0
 135 008e C3E7     		b	.L1
 136              	.L6:
 137              		.align	2
 138              	.L5:
 139 0090 00380240 		.word	1073887232
 140 0094 00000240 		.word	1073872896
 141              		.cfi_endproc
 142              	.LFE133:
 144              		.section	.text.HAL_HCD_MspDeInit,"ax",%progbits
 145              		.align	1
 146              		.global	HAL_HCD_MspDeInit
 147              		.syntax unified
 148              		.thumb
 149              		.thumb_func
 150              		.fpu fpv4-sp-d16
 152              	HAL_HCD_MspDeInit:
 153              	.LFB134:
 102:USB_HOST/Target/usbh_conf.c **** 
 103:USB_HOST/Target/usbh_conf.c **** void HAL_HCD_MspDeInit(HCD_HandleTypeDef* hcdHandle)
 104:USB_HOST/Target/usbh_conf.c **** {
 154              		.loc 1 104 0
 155              		.cfi_startproc
 156              		@ args = 0, pretend = 0, frame = 0
 157              		@ frame_needed = 0, uses_anonymous_args = 0
 158              	.LVL8:
 159 0000 08B5     		push	{r3, lr}
 160              	.LCFI4:
 161              		.cfi_def_cfa_offset 8
 162              		.cfi_offset 3, -8
 163              		.cfi_offset 14, -4
 105:USB_HOST/Target/usbh_conf.c ****   if(hcdHandle->Instance==USB_OTG_FS)
 164              		.loc 1 105 0
 165 0002 0368     		ldr	r3, [r0]
 166 0004 B3F1A04F 		cmp	r3, #1342177280
 167 0008 00D0     		beq	.L10
 168              	.LVL9:
 169              	.L7:
 106:USB_HOST/Target/usbh_conf.c ****   {
 107:USB_HOST/Target/usbh_conf.c ****   /* USER CODE BEGIN USB_OTG_FS_MspDeInit 0 */
ARM GAS  C:\Users\User\AppData\Local\Temp\ccSgWNni.s 			page 6


 108:USB_HOST/Target/usbh_conf.c **** 
 109:USB_HOST/Target/usbh_conf.c ****   /* USER CODE END USB_OTG_FS_MspDeInit 0 */
 110:USB_HOST/Target/usbh_conf.c ****     /* Peripheral clock disable */
 111:USB_HOST/Target/usbh_conf.c ****     __HAL_RCC_USB_OTG_FS_CLK_DISABLE();
 112:USB_HOST/Target/usbh_conf.c **** 
 113:USB_HOST/Target/usbh_conf.c ****     /**USB_OTG_FS GPIO Configuration
 114:USB_HOST/Target/usbh_conf.c ****     PA9     ------> USB_OTG_FS_VBUS
 115:USB_HOST/Target/usbh_conf.c ****     PA10     ------> USB_OTG_FS_ID
 116:USB_HOST/Target/usbh_conf.c ****     PA11     ------> USB_OTG_FS_DM
 117:USB_HOST/Target/usbh_conf.c ****     PA12     ------> USB_OTG_FS_DP
 118:USB_HOST/Target/usbh_conf.c ****     */
 119:USB_HOST/Target/usbh_conf.c ****     HAL_GPIO_DeInit(GPIOA, VBUS_FS_Pin|OTG_FS_ID_Pin|OTG_FS_DM_Pin|OTG_FS_DP_Pin);
 120:USB_HOST/Target/usbh_conf.c **** 
 121:USB_HOST/Target/usbh_conf.c ****     /* Peripheral interrupt Deinit*/
 122:USB_HOST/Target/usbh_conf.c ****     HAL_NVIC_DisableIRQ(OTG_FS_IRQn);
 123:USB_HOST/Target/usbh_conf.c **** 
 124:USB_HOST/Target/usbh_conf.c ****   /* USER CODE BEGIN USB_OTG_FS_MspDeInit 1 */
 125:USB_HOST/Target/usbh_conf.c **** 
 126:USB_HOST/Target/usbh_conf.c ****   /* USER CODE END USB_OTG_FS_MspDeInit 1 */
 127:USB_HOST/Target/usbh_conf.c ****   }
 128:USB_HOST/Target/usbh_conf.c **** }
 170              		.loc 1 128 0
 171 000a 08BD     		pop	{r3, pc}
 172              	.LVL10:
 173              	.L10:
 111:USB_HOST/Target/usbh_conf.c **** 
 174              		.loc 1 111 0
 175 000c 064A     		ldr	r2, .L11
 176 000e 536B     		ldr	r3, [r2, #52]
 177 0010 23F08003 		bic	r3, r3, #128
 178 0014 5363     		str	r3, [r2, #52]
 119:USB_HOST/Target/usbh_conf.c **** 
 179              		.loc 1 119 0
 180 0016 4FF4F051 		mov	r1, #7680
 181 001a 0448     		ldr	r0, .L11+4
 182              	.LVL11:
 183 001c FFF7FEFF 		bl	HAL_GPIO_DeInit
 184              	.LVL12:
 122:USB_HOST/Target/usbh_conf.c **** 
 185              		.loc 1 122 0
 186 0020 4320     		movs	r0, #67
 187 0022 FFF7FEFF 		bl	HAL_NVIC_DisableIRQ
 188              	.LVL13:
 189              		.loc 1 128 0
 190 0026 F0E7     		b	.L7
 191              	.L12:
 192              		.align	2
 193              	.L11:
 194 0028 00380240 		.word	1073887232
 195 002c 00000240 		.word	1073872896
 196              		.cfi_endproc
 197              	.LFE134:
 199              		.section	.text.HAL_HCD_SOF_Callback,"ax",%progbits
 200              		.align	1
 201              		.global	HAL_HCD_SOF_Callback
 202              		.syntax unified
 203              		.thumb
ARM GAS  C:\Users\User\AppData\Local\Temp\ccSgWNni.s 			page 7


 204              		.thumb_func
 205              		.fpu fpv4-sp-d16
 207              	HAL_HCD_SOF_Callback:
 208              	.LFB135:
 129:USB_HOST/Target/usbh_conf.c **** 
 130:USB_HOST/Target/usbh_conf.c **** /**
 131:USB_HOST/Target/usbh_conf.c ****   * @brief  SOF callback.
 132:USB_HOST/Target/usbh_conf.c ****   * @param  hhcd: HCD handle
 133:USB_HOST/Target/usbh_conf.c ****   * @retval None
 134:USB_HOST/Target/usbh_conf.c ****   */
 135:USB_HOST/Target/usbh_conf.c **** void HAL_HCD_SOF_Callback(HCD_HandleTypeDef *hhcd)
 136:USB_HOST/Target/usbh_conf.c **** {
 209              		.loc 1 136 0
 210              		.cfi_startproc
 211              		@ args = 0, pretend = 0, frame = 0
 212              		@ frame_needed = 0, uses_anonymous_args = 0
 213              	.LVL14:
 214 0000 08B5     		push	{r3, lr}
 215              	.LCFI5:
 216              		.cfi_def_cfa_offset 8
 217              		.cfi_offset 3, -8
 218              		.cfi_offset 14, -4
 137:USB_HOST/Target/usbh_conf.c ****   USBH_LL_IncTimer(hhcd->pData);
 219              		.loc 1 137 0
 220 0002 D0F8C002 		ldr	r0, [r0, #704]
 221              	.LVL15:
 222 0006 FFF7FEFF 		bl	USBH_LL_IncTimer
 223              	.LVL16:
 138:USB_HOST/Target/usbh_conf.c **** }
 224              		.loc 1 138 0
 225 000a 08BD     		pop	{r3, pc}
 226              		.cfi_endproc
 227              	.LFE135:
 229              		.section	.text.HAL_HCD_Connect_Callback,"ax",%progbits
 230              		.align	1
 231              		.global	HAL_HCD_Connect_Callback
 232              		.syntax unified
 233              		.thumb
 234              		.thumb_func
 235              		.fpu fpv4-sp-d16
 237              	HAL_HCD_Connect_Callback:
 238              	.LFB136:
 139:USB_HOST/Target/usbh_conf.c **** 
 140:USB_HOST/Target/usbh_conf.c **** /**
 141:USB_HOST/Target/usbh_conf.c ****   * @brief  SOF callback.
 142:USB_HOST/Target/usbh_conf.c ****   * @param  hhcd: HCD handle
 143:USB_HOST/Target/usbh_conf.c ****   * @retval None
 144:USB_HOST/Target/usbh_conf.c ****   */
 145:USB_HOST/Target/usbh_conf.c **** void HAL_HCD_Connect_Callback(HCD_HandleTypeDef *hhcd)
 146:USB_HOST/Target/usbh_conf.c **** {
 239              		.loc 1 146 0
 240              		.cfi_startproc
 241              		@ args = 0, pretend = 0, frame = 0
 242              		@ frame_needed = 0, uses_anonymous_args = 0
 243              	.LVL17:
 244 0000 08B5     		push	{r3, lr}
 245              	.LCFI6:
ARM GAS  C:\Users\User\AppData\Local\Temp\ccSgWNni.s 			page 8


 246              		.cfi_def_cfa_offset 8
 247              		.cfi_offset 3, -8
 248              		.cfi_offset 14, -4
 147:USB_HOST/Target/usbh_conf.c ****   USBH_LL_Connect(hhcd->pData);
 249              		.loc 1 147 0
 250 0002 D0F8C002 		ldr	r0, [r0, #704]
 251              	.LVL18:
 252 0006 FFF7FEFF 		bl	USBH_LL_Connect
 253              	.LVL19:
 148:USB_HOST/Target/usbh_conf.c **** }
 254              		.loc 1 148 0
 255 000a 08BD     		pop	{r3, pc}
 256              		.cfi_endproc
 257              	.LFE136:
 259              		.section	.text.HAL_HCD_Disconnect_Callback,"ax",%progbits
 260              		.align	1
 261              		.global	HAL_HCD_Disconnect_Callback
 262              		.syntax unified
 263              		.thumb
 264              		.thumb_func
 265              		.fpu fpv4-sp-d16
 267              	HAL_HCD_Disconnect_Callback:
 268              	.LFB137:
 149:USB_HOST/Target/usbh_conf.c **** 
 150:USB_HOST/Target/usbh_conf.c **** /**
 151:USB_HOST/Target/usbh_conf.c ****   * @brief  SOF callback.
 152:USB_HOST/Target/usbh_conf.c ****   * @param  hhcd: HCD handle
 153:USB_HOST/Target/usbh_conf.c ****   * @retval None
 154:USB_HOST/Target/usbh_conf.c ****   */
 155:USB_HOST/Target/usbh_conf.c **** void HAL_HCD_Disconnect_Callback(HCD_HandleTypeDef *hhcd)
 156:USB_HOST/Target/usbh_conf.c **** {
 269              		.loc 1 156 0
 270              		.cfi_startproc
 271              		@ args = 0, pretend = 0, frame = 0
 272              		@ frame_needed = 0, uses_anonymous_args = 0
 273              	.LVL20:
 274 0000 08B5     		push	{r3, lr}
 275              	.LCFI7:
 276              		.cfi_def_cfa_offset 8
 277              		.cfi_offset 3, -8
 278              		.cfi_offset 14, -4
 157:USB_HOST/Target/usbh_conf.c ****   USBH_LL_Disconnect(hhcd->pData);
 279              		.loc 1 157 0
 280 0002 D0F8C002 		ldr	r0, [r0, #704]
 281              	.LVL21:
 282 0006 FFF7FEFF 		bl	USBH_LL_Disconnect
 283              	.LVL22:
 158:USB_HOST/Target/usbh_conf.c **** }
 284              		.loc 1 158 0
 285 000a 08BD     		pop	{r3, pc}
 286              		.cfi_endproc
 287              	.LFE137:
 289              		.section	.text.HAL_HCD_HC_NotifyURBChange_Callback,"ax",%progbits
 290              		.align	1
 291              		.global	HAL_HCD_HC_NotifyURBChange_Callback
 292              		.syntax unified
 293              		.thumb
ARM GAS  C:\Users\User\AppData\Local\Temp\ccSgWNni.s 			page 9


 294              		.thumb_func
 295              		.fpu fpv4-sp-d16
 297              	HAL_HCD_HC_NotifyURBChange_Callback:
 298              	.LFB138:
 159:USB_HOST/Target/usbh_conf.c **** 
 160:USB_HOST/Target/usbh_conf.c **** /**
 161:USB_HOST/Target/usbh_conf.c ****   * @brief  Notify URB state change callback.
 162:USB_HOST/Target/usbh_conf.c ****   * @param  hhcd: HCD handle
 163:USB_HOST/Target/usbh_conf.c ****   * @param  chnum: channel number
 164:USB_HOST/Target/usbh_conf.c ****   * @param  urb_state: state
 165:USB_HOST/Target/usbh_conf.c ****   * @retval None
 166:USB_HOST/Target/usbh_conf.c ****   */
 167:USB_HOST/Target/usbh_conf.c **** void HAL_HCD_HC_NotifyURBChange_Callback(HCD_HandleTypeDef *hhcd, uint8_t chnum, HCD_URBStateTypeDe
 168:USB_HOST/Target/usbh_conf.c **** {
 299              		.loc 1 168 0
 300              		.cfi_startproc
 301              		@ args = 0, pretend = 0, frame = 0
 302              		@ frame_needed = 0, uses_anonymous_args = 0
 303              		@ link register save eliminated.
 304              	.LVL23:
 169:USB_HOST/Target/usbh_conf.c ****   /* To be used with OS to sync URB state with the global state machine */
 170:USB_HOST/Target/usbh_conf.c **** #if (USBH_USE_OS == 1)
 171:USB_HOST/Target/usbh_conf.c ****   USBH_LL_NotifyURBChange(hhcd->pData);
 172:USB_HOST/Target/usbh_conf.c **** #endif
 173:USB_HOST/Target/usbh_conf.c **** }
 305              		.loc 1 173 0
 306 0000 7047     		bx	lr
 307              		.cfi_endproc
 308              	.LFE138:
 310              		.section	.text.HAL_HCD_PortEnabled_Callback,"ax",%progbits
 311              		.align	1
 312              		.global	HAL_HCD_PortEnabled_Callback
 313              		.syntax unified
 314              		.thumb
 315              		.thumb_func
 316              		.fpu fpv4-sp-d16
 318              	HAL_HCD_PortEnabled_Callback:
 319              	.LFB139:
 174:USB_HOST/Target/usbh_conf.c **** /**
 175:USB_HOST/Target/usbh_conf.c **** * @brief  Port Port Enabled callback.
 176:USB_HOST/Target/usbh_conf.c ****   * @param  hhcd: HCD handle
 177:USB_HOST/Target/usbh_conf.c ****   * @retval None
 178:USB_HOST/Target/usbh_conf.c ****   */
 179:USB_HOST/Target/usbh_conf.c **** void HAL_HCD_PortEnabled_Callback(HCD_HandleTypeDef *hhcd)
 180:USB_HOST/Target/usbh_conf.c **** {
 320              		.loc 1 180 0
 321              		.cfi_startproc
 322              		@ args = 0, pretend = 0, frame = 0
 323              		@ frame_needed = 0, uses_anonymous_args = 0
 324              	.LVL24:
 325 0000 08B5     		push	{r3, lr}
 326              	.LCFI8:
 327              		.cfi_def_cfa_offset 8
 328              		.cfi_offset 3, -8
 329              		.cfi_offset 14, -4
 181:USB_HOST/Target/usbh_conf.c ****   USBH_LL_PortEnabled(hhcd->pData);
 330              		.loc 1 181 0
ARM GAS  C:\Users\User\AppData\Local\Temp\ccSgWNni.s 			page 10


 331 0002 D0F8C002 		ldr	r0, [r0, #704]
 332              	.LVL25:
 333 0006 FFF7FEFF 		bl	USBH_LL_PortEnabled
 334              	.LVL26:
 182:USB_HOST/Target/usbh_conf.c **** }
 335              		.loc 1 182 0
 336 000a 08BD     		pop	{r3, pc}
 337              		.cfi_endproc
 338              	.LFE139:
 340              		.section	.text.HAL_HCD_PortDisabled_Callback,"ax",%progbits
 341              		.align	1
 342              		.global	HAL_HCD_PortDisabled_Callback
 343              		.syntax unified
 344              		.thumb
 345              		.thumb_func
 346              		.fpu fpv4-sp-d16
 348              	HAL_HCD_PortDisabled_Callback:
 349              	.LFB140:
 183:USB_HOST/Target/usbh_conf.c **** 
 184:USB_HOST/Target/usbh_conf.c **** /**
 185:USB_HOST/Target/usbh_conf.c ****   * @brief  Port Port Disabled callback.
 186:USB_HOST/Target/usbh_conf.c ****   * @param  hhcd: HCD handle
 187:USB_HOST/Target/usbh_conf.c ****   * @retval None
 188:USB_HOST/Target/usbh_conf.c ****   */
 189:USB_HOST/Target/usbh_conf.c **** void HAL_HCD_PortDisabled_Callback(HCD_HandleTypeDef *hhcd)
 190:USB_HOST/Target/usbh_conf.c **** {
 350              		.loc 1 190 0
 351              		.cfi_startproc
 352              		@ args = 0, pretend = 0, frame = 0
 353              		@ frame_needed = 0, uses_anonymous_args = 0
 354              	.LVL27:
 355 0000 08B5     		push	{r3, lr}
 356              	.LCFI9:
 357              		.cfi_def_cfa_offset 8
 358              		.cfi_offset 3, -8
 359              		.cfi_offset 14, -4
 191:USB_HOST/Target/usbh_conf.c ****   USBH_LL_PortDisabled(hhcd->pData);
 360              		.loc 1 191 0
 361 0002 D0F8C002 		ldr	r0, [r0, #704]
 362              	.LVL28:
 363 0006 FFF7FEFF 		bl	USBH_LL_PortDisabled
 364              	.LVL29:
 192:USB_HOST/Target/usbh_conf.c **** }
 365              		.loc 1 192 0
 366 000a 08BD     		pop	{r3, pc}
 367              		.cfi_endproc
 368              	.LFE140:
 370              		.section	.text.USBH_LL_Init,"ax",%progbits
 371              		.align	1
 372              		.global	USBH_LL_Init
 373              		.syntax unified
 374              		.thumb
 375              		.thumb_func
 376              		.fpu fpv4-sp-d16
 378              	USBH_LL_Init:
 379              	.LFB141:
 193:USB_HOST/Target/usbh_conf.c **** 
ARM GAS  C:\Users\User\AppData\Local\Temp\ccSgWNni.s 			page 11


 194:USB_HOST/Target/usbh_conf.c **** /*******************************************************************************
 195:USB_HOST/Target/usbh_conf.c ****                        LL Driver Interface (USB Host Library --> HCD)
 196:USB_HOST/Target/usbh_conf.c **** *******************************************************************************/
 197:USB_HOST/Target/usbh_conf.c **** 
 198:USB_HOST/Target/usbh_conf.c **** /**
 199:USB_HOST/Target/usbh_conf.c ****   * @brief  Initialize the low level portion of the host driver.
 200:USB_HOST/Target/usbh_conf.c ****   * @param  phost: Host handle
 201:USB_HOST/Target/usbh_conf.c ****   * @retval USBH status
 202:USB_HOST/Target/usbh_conf.c ****   */
 203:USB_HOST/Target/usbh_conf.c **** USBH_StatusTypeDef USBH_LL_Init(USBH_HandleTypeDef *phost)
 204:USB_HOST/Target/usbh_conf.c **** {
 380              		.loc 1 204 0
 381              		.cfi_startproc
 382              		@ args = 0, pretend = 0, frame = 0
 383              		@ frame_needed = 0, uses_anonymous_args = 0
 384              	.LVL30:
 205:USB_HOST/Target/usbh_conf.c ****   /* Init USB_IP */
 206:USB_HOST/Target/usbh_conf.c ****   if (phost->id == HOST_FS) {
 385              		.loc 1 206 0
 386 0000 90F8CC33 		ldrb	r3, [r0, #972]	@ zero_extendqisi2
 387 0004 012B     		cmp	r3, #1
 388 0006 01D0     		beq	.L31
 207:USB_HOST/Target/usbh_conf.c ****   /* Link the driver to the stack. */
 208:USB_HOST/Target/usbh_conf.c ****   hhcd_USB_OTG_FS.pData = phost;
 209:USB_HOST/Target/usbh_conf.c ****   phost->pData = &hhcd_USB_OTG_FS;
 210:USB_HOST/Target/usbh_conf.c **** 
 211:USB_HOST/Target/usbh_conf.c ****   hhcd_USB_OTG_FS.Instance = USB_OTG_FS;
 212:USB_HOST/Target/usbh_conf.c ****   hhcd_USB_OTG_FS.Init.Host_channels = 8;
 213:USB_HOST/Target/usbh_conf.c ****   hhcd_USB_OTG_FS.Init.speed = HCD_SPEED_FULL;
 214:USB_HOST/Target/usbh_conf.c ****   hhcd_USB_OTG_FS.Init.dma_enable = DISABLE;
 215:USB_HOST/Target/usbh_conf.c ****   hhcd_USB_OTG_FS.Init.phy_itface = HCD_PHY_EMBEDDED;
 216:USB_HOST/Target/usbh_conf.c ****   hhcd_USB_OTG_FS.Init.Sof_enable = DISABLE;
 217:USB_HOST/Target/usbh_conf.c ****   if (HAL_HCD_Init(&hhcd_USB_OTG_FS) != HAL_OK)
 218:USB_HOST/Target/usbh_conf.c ****   {
 219:USB_HOST/Target/usbh_conf.c ****     Error_Handler( );
 220:USB_HOST/Target/usbh_conf.c ****   }
 221:USB_HOST/Target/usbh_conf.c **** 
 222:USB_HOST/Target/usbh_conf.c ****   USBH_LL_SetTimer(phost, HAL_HCD_GetCurrentFrame(&hhcd_USB_OTG_FS));
 223:USB_HOST/Target/usbh_conf.c ****   }
 224:USB_HOST/Target/usbh_conf.c ****   return USBH_OK;
 225:USB_HOST/Target/usbh_conf.c **** }
 389              		.loc 1 225 0
 390 0008 0020     		movs	r0, #0
 391              	.LVL31:
 392 000a 7047     		bx	lr
 393              	.LVL32:
 394              	.L31:
 204:USB_HOST/Target/usbh_conf.c ****   /* Init USB_IP */
 395              		.loc 1 204 0
 396 000c 10B5     		push	{r4, lr}
 397              	.LCFI10:
 398              		.cfi_def_cfa_offset 8
 399              		.cfi_offset 4, -8
 400              		.cfi_offset 14, -4
 401 000e 0446     		mov	r4, r0
 208:USB_HOST/Target/usbh_conf.c ****   phost->pData = &hhcd_USB_OTG_FS;
 402              		.loc 1 208 0
ARM GAS  C:\Users\User\AppData\Local\Temp\ccSgWNni.s 			page 12


 403 0010 0F48     		ldr	r0, .L33
 404              	.LVL33:
 405 0012 C0F8C042 		str	r4, [r0, #704]
 209:USB_HOST/Target/usbh_conf.c **** 
 406              		.loc 1 209 0
 407 0016 C4F8D003 		str	r0, [r4, #976]
 211:USB_HOST/Target/usbh_conf.c ****   hhcd_USB_OTG_FS.Init.Host_channels = 8;
 408              		.loc 1 211 0
 409 001a 4FF0A043 		mov	r3, #1342177280
 410 001e 0360     		str	r3, [r0]
 212:USB_HOST/Target/usbh_conf.c ****   hhcd_USB_OTG_FS.Init.speed = HCD_SPEED_FULL;
 411              		.loc 1 212 0
 412 0020 0823     		movs	r3, #8
 413 0022 8360     		str	r3, [r0, #8]
 213:USB_HOST/Target/usbh_conf.c ****   hhcd_USB_OTG_FS.Init.dma_enable = DISABLE;
 414              		.loc 1 213 0
 415 0024 0123     		movs	r3, #1
 416 0026 C360     		str	r3, [r0, #12]
 214:USB_HOST/Target/usbh_conf.c ****   hhcd_USB_OTG_FS.Init.phy_itface = HCD_PHY_EMBEDDED;
 417              		.loc 1 214 0
 418 0028 0023     		movs	r3, #0
 419 002a 0361     		str	r3, [r0, #16]
 215:USB_HOST/Target/usbh_conf.c ****   hhcd_USB_OTG_FS.Init.Sof_enable = DISABLE;
 420              		.loc 1 215 0
 421 002c 0222     		movs	r2, #2
 422 002e 8261     		str	r2, [r0, #24]
 216:USB_HOST/Target/usbh_conf.c ****   if (HAL_HCD_Init(&hhcd_USB_OTG_FS) != HAL_OK)
 423              		.loc 1 216 0
 424 0030 C361     		str	r3, [r0, #28]
 217:USB_HOST/Target/usbh_conf.c ****   {
 425              		.loc 1 217 0
 426 0032 FFF7FEFF 		bl	HAL_HCD_Init
 427              	.LVL34:
 428 0036 40B9     		cbnz	r0, .L32
 429              	.L26:
 222:USB_HOST/Target/usbh_conf.c ****   }
 430              		.loc 1 222 0
 431 0038 0548     		ldr	r0, .L33
 432 003a FFF7FEFF 		bl	HAL_HCD_GetCurrentFrame
 433              	.LVL35:
 434 003e 0146     		mov	r1, r0
 435 0040 2046     		mov	r0, r4
 436 0042 FFF7FEFF 		bl	USBH_LL_SetTimer
 437              	.LVL36:
 438              		.loc 1 225 0
 439 0046 0020     		movs	r0, #0
 440 0048 10BD     		pop	{r4, pc}
 441              	.LVL37:
 442              	.L32:
 219:USB_HOST/Target/usbh_conf.c ****   }
 443              		.loc 1 219 0
 444 004a FFF7FEFF 		bl	Error_Handler
 445              	.LVL38:
 446 004e F3E7     		b	.L26
 447              	.L34:
 448              		.align	2
 449              	.L33:
ARM GAS  C:\Users\User\AppData\Local\Temp\ccSgWNni.s 			page 13


 450 0050 00000000 		.word	hhcd_USB_OTG_FS
 451              		.cfi_endproc
 452              	.LFE141:
 454              		.section	.text.USBH_LL_GetSpeed,"ax",%progbits
 455              		.align	1
 456              		.global	USBH_LL_GetSpeed
 457              		.syntax unified
 458              		.thumb
 459              		.thumb_func
 460              		.fpu fpv4-sp-d16
 462              	USBH_LL_GetSpeed:
 463              	.LFB145:
 226:USB_HOST/Target/usbh_conf.c **** 
 227:USB_HOST/Target/usbh_conf.c **** /**
 228:USB_HOST/Target/usbh_conf.c ****   * @brief  De-Initialize the low level portion of the host driver.
 229:USB_HOST/Target/usbh_conf.c ****   * @param  phost: Host handle
 230:USB_HOST/Target/usbh_conf.c ****   * @retval USBH status
 231:USB_HOST/Target/usbh_conf.c ****   */
 232:USB_HOST/Target/usbh_conf.c **** USBH_StatusTypeDef USBH_LL_DeInit(USBH_HandleTypeDef *phost)
 233:USB_HOST/Target/usbh_conf.c **** {
 234:USB_HOST/Target/usbh_conf.c ****   HAL_StatusTypeDef hal_status = HAL_OK;
 235:USB_HOST/Target/usbh_conf.c ****   USBH_StatusTypeDef usb_status = USBH_OK;
 236:USB_HOST/Target/usbh_conf.c **** 
 237:USB_HOST/Target/usbh_conf.c ****   hal_status = HAL_HCD_DeInit(phost->pData);
 238:USB_HOST/Target/usbh_conf.c **** 
 239:USB_HOST/Target/usbh_conf.c ****   usb_status = USBH_Get_USB_Status(hal_status);
 240:USB_HOST/Target/usbh_conf.c **** 
 241:USB_HOST/Target/usbh_conf.c ****   return usb_status;
 242:USB_HOST/Target/usbh_conf.c **** }
 243:USB_HOST/Target/usbh_conf.c **** 
 244:USB_HOST/Target/usbh_conf.c **** /**
 245:USB_HOST/Target/usbh_conf.c ****   * @brief  Start the low level portion of the host driver.
 246:USB_HOST/Target/usbh_conf.c ****   * @param  phost: Host handle
 247:USB_HOST/Target/usbh_conf.c ****   * @retval USBH status
 248:USB_HOST/Target/usbh_conf.c ****   */
 249:USB_HOST/Target/usbh_conf.c **** USBH_StatusTypeDef USBH_LL_Start(USBH_HandleTypeDef *phost)
 250:USB_HOST/Target/usbh_conf.c **** {
 251:USB_HOST/Target/usbh_conf.c ****   HAL_StatusTypeDef hal_status = HAL_OK;
 252:USB_HOST/Target/usbh_conf.c ****   USBH_StatusTypeDef usb_status = USBH_OK;
 253:USB_HOST/Target/usbh_conf.c **** 
 254:USB_HOST/Target/usbh_conf.c ****   hal_status = HAL_HCD_Start(phost->pData);
 255:USB_HOST/Target/usbh_conf.c **** 
 256:USB_HOST/Target/usbh_conf.c ****   usb_status = USBH_Get_USB_Status(hal_status);
 257:USB_HOST/Target/usbh_conf.c **** 
 258:USB_HOST/Target/usbh_conf.c ****   return usb_status;
 259:USB_HOST/Target/usbh_conf.c **** }
 260:USB_HOST/Target/usbh_conf.c **** 
 261:USB_HOST/Target/usbh_conf.c **** /**
 262:USB_HOST/Target/usbh_conf.c ****   * @brief  Stop the low level portion of the host driver.
 263:USB_HOST/Target/usbh_conf.c ****   * @param  phost: Host handle
 264:USB_HOST/Target/usbh_conf.c ****   * @retval USBH status
 265:USB_HOST/Target/usbh_conf.c ****   */
 266:USB_HOST/Target/usbh_conf.c **** USBH_StatusTypeDef USBH_LL_Stop(USBH_HandleTypeDef *phost)
 267:USB_HOST/Target/usbh_conf.c **** {
 268:USB_HOST/Target/usbh_conf.c ****   HAL_StatusTypeDef hal_status = HAL_OK;
 269:USB_HOST/Target/usbh_conf.c ****   USBH_StatusTypeDef usb_status = USBH_OK;
 270:USB_HOST/Target/usbh_conf.c **** 
ARM GAS  C:\Users\User\AppData\Local\Temp\ccSgWNni.s 			page 14


 271:USB_HOST/Target/usbh_conf.c ****   hal_status = HAL_HCD_Stop(phost->pData);
 272:USB_HOST/Target/usbh_conf.c **** 
 273:USB_HOST/Target/usbh_conf.c ****   usb_status = USBH_Get_USB_Status(hal_status);
 274:USB_HOST/Target/usbh_conf.c **** 
 275:USB_HOST/Target/usbh_conf.c ****   return usb_status;
 276:USB_HOST/Target/usbh_conf.c **** }
 277:USB_HOST/Target/usbh_conf.c **** 
 278:USB_HOST/Target/usbh_conf.c **** /**
 279:USB_HOST/Target/usbh_conf.c ****   * @brief  Return the USB host speed from the low level driver.
 280:USB_HOST/Target/usbh_conf.c ****   * @param  phost: Host handle
 281:USB_HOST/Target/usbh_conf.c ****   * @retval USBH speeds
 282:USB_HOST/Target/usbh_conf.c ****   */
 283:USB_HOST/Target/usbh_conf.c **** USBH_SpeedTypeDef USBH_LL_GetSpeed(USBH_HandleTypeDef *phost)
 284:USB_HOST/Target/usbh_conf.c **** {
 464              		.loc 1 284 0
 465              		.cfi_startproc
 466              		@ args = 0, pretend = 0, frame = 0
 467              		@ frame_needed = 0, uses_anonymous_args = 0
 468              	.LVL39:
 469 0000 08B5     		push	{r3, lr}
 470              	.LCFI11:
 471              		.cfi_def_cfa_offset 8
 472              		.cfi_offset 3, -8
 473              		.cfi_offset 14, -4
 474              	.LVL40:
 285:USB_HOST/Target/usbh_conf.c ****   USBH_SpeedTypeDef speed = USBH_SPEED_FULL;
 286:USB_HOST/Target/usbh_conf.c **** 
 287:USB_HOST/Target/usbh_conf.c ****   switch (HAL_HCD_GetCurrentSpeed(phost->pData))
 475              		.loc 1 287 0
 476 0002 D0F8D003 		ldr	r0, [r0, #976]
 477              	.LVL41:
 478 0006 FFF7FEFF 		bl	HAL_HCD_GetCurrentSpeed
 479              	.LVL42:
 480 000a 18B1     		cbz	r0, .L37
 481 000c 0228     		cmp	r0, #2
 482 000e 03D0     		beq	.L38
 288:USB_HOST/Target/usbh_conf.c ****   {
 289:USB_HOST/Target/usbh_conf.c ****   case 0 :
 290:USB_HOST/Target/usbh_conf.c ****     speed = USBH_SPEED_HIGH;
 291:USB_HOST/Target/usbh_conf.c ****     break;
 292:USB_HOST/Target/usbh_conf.c **** 
 293:USB_HOST/Target/usbh_conf.c ****   case 1 :
 294:USB_HOST/Target/usbh_conf.c ****     speed = USBH_SPEED_FULL;
 483              		.loc 1 294 0
 484 0010 0120     		movs	r0, #1
 485              	.LVL43:
 486              	.L36:
 295:USB_HOST/Target/usbh_conf.c ****     break;
 296:USB_HOST/Target/usbh_conf.c **** 
 297:USB_HOST/Target/usbh_conf.c ****   case 2 :
 298:USB_HOST/Target/usbh_conf.c ****     speed = USBH_SPEED_LOW;
 299:USB_HOST/Target/usbh_conf.c ****     break;
 300:USB_HOST/Target/usbh_conf.c **** 
 301:USB_HOST/Target/usbh_conf.c ****   default:
 302:USB_HOST/Target/usbh_conf.c ****    speed = USBH_SPEED_FULL;
 303:USB_HOST/Target/usbh_conf.c ****     break;
 304:USB_HOST/Target/usbh_conf.c ****   }
ARM GAS  C:\Users\User\AppData\Local\Temp\ccSgWNni.s 			page 15


 305:USB_HOST/Target/usbh_conf.c ****   return  speed;
 306:USB_HOST/Target/usbh_conf.c **** }
 487              		.loc 1 306 0
 488 0012 08BD     		pop	{r3, pc}
 489              	.LVL44:
 490              	.L37:
 290:USB_HOST/Target/usbh_conf.c ****     break;
 491              		.loc 1 290 0
 492 0014 0020     		movs	r0, #0
 493 0016 FCE7     		b	.L36
 494              	.L38:
 495              	.LVL45:
 298:USB_HOST/Target/usbh_conf.c ****     break;
 496              		.loc 1 298 0
 497 0018 0220     		movs	r0, #2
 299:USB_HOST/Target/usbh_conf.c **** 
 498              		.loc 1 299 0
 499 001a FAE7     		b	.L36
 500              		.cfi_endproc
 501              	.LFE145:
 503              		.section	.text.USBH_LL_GetLastXferSize,"ax",%progbits
 504              		.align	1
 505              		.global	USBH_LL_GetLastXferSize
 506              		.syntax unified
 507              		.thumb
 508              		.thumb_func
 509              		.fpu fpv4-sp-d16
 511              	USBH_LL_GetLastXferSize:
 512              	.LFB147:
 307:USB_HOST/Target/usbh_conf.c **** 
 308:USB_HOST/Target/usbh_conf.c **** /**
 309:USB_HOST/Target/usbh_conf.c ****   * @brief  Reset the Host port of the low level driver.
 310:USB_HOST/Target/usbh_conf.c ****   * @param  phost: Host handle
 311:USB_HOST/Target/usbh_conf.c ****   * @retval USBH status
 312:USB_HOST/Target/usbh_conf.c ****   */
 313:USB_HOST/Target/usbh_conf.c **** USBH_StatusTypeDef USBH_LL_ResetPort(USBH_HandleTypeDef *phost)
 314:USB_HOST/Target/usbh_conf.c **** {
 315:USB_HOST/Target/usbh_conf.c ****   HAL_StatusTypeDef hal_status = HAL_OK;
 316:USB_HOST/Target/usbh_conf.c ****   USBH_StatusTypeDef usb_status = USBH_OK;
 317:USB_HOST/Target/usbh_conf.c **** 
 318:USB_HOST/Target/usbh_conf.c ****   hal_status = HAL_HCD_ResetPort(phost->pData);
 319:USB_HOST/Target/usbh_conf.c **** 
 320:USB_HOST/Target/usbh_conf.c ****   usb_status = USBH_Get_USB_Status(hal_status);
 321:USB_HOST/Target/usbh_conf.c **** 
 322:USB_HOST/Target/usbh_conf.c ****   return usb_status;
 323:USB_HOST/Target/usbh_conf.c **** }
 324:USB_HOST/Target/usbh_conf.c **** 
 325:USB_HOST/Target/usbh_conf.c **** /**
 326:USB_HOST/Target/usbh_conf.c ****   * @brief  Return the last transfered packet size.
 327:USB_HOST/Target/usbh_conf.c ****   * @param  phost: Host handle
 328:USB_HOST/Target/usbh_conf.c ****   * @param  pipe: Pipe index
 329:USB_HOST/Target/usbh_conf.c ****   * @retval Packet size
 330:USB_HOST/Target/usbh_conf.c ****   */
 331:USB_HOST/Target/usbh_conf.c **** uint32_t USBH_LL_GetLastXferSize(USBH_HandleTypeDef *phost, uint8_t pipe)
 332:USB_HOST/Target/usbh_conf.c **** {
 513              		.loc 1 332 0
 514              		.cfi_startproc
ARM GAS  C:\Users\User\AppData\Local\Temp\ccSgWNni.s 			page 16


 515              		@ args = 0, pretend = 0, frame = 0
 516              		@ frame_needed = 0, uses_anonymous_args = 0
 517              	.LVL46:
 518 0000 08B5     		push	{r3, lr}
 519              	.LCFI12:
 520              		.cfi_def_cfa_offset 8
 521              		.cfi_offset 3, -8
 522              		.cfi_offset 14, -4
 333:USB_HOST/Target/usbh_conf.c ****   return HAL_HCD_HC_GetXferCount(phost->pData, pipe);
 523              		.loc 1 333 0
 524 0002 D0F8D003 		ldr	r0, [r0, #976]
 525              	.LVL47:
 526 0006 FFF7FEFF 		bl	HAL_HCD_HC_GetXferCount
 527              	.LVL48:
 334:USB_HOST/Target/usbh_conf.c **** }
 528              		.loc 1 334 0
 529 000a 08BD     		pop	{r3, pc}
 530              		.cfi_endproc
 531              	.LFE147:
 533              		.section	.text.USBH_LL_GetURBState,"ax",%progbits
 534              		.align	1
 535              		.global	USBH_LL_GetURBState
 536              		.syntax unified
 537              		.thumb
 538              		.thumb_func
 539              		.fpu fpv4-sp-d16
 541              	USBH_LL_GetURBState:
 542              	.LFB151:
 335:USB_HOST/Target/usbh_conf.c **** 
 336:USB_HOST/Target/usbh_conf.c **** /**
 337:USB_HOST/Target/usbh_conf.c ****   * @brief  Open a pipe of the low level driver.
 338:USB_HOST/Target/usbh_conf.c ****   * @param  phost: Host handle
 339:USB_HOST/Target/usbh_conf.c ****   * @param  pipe_num: Pipe index
 340:USB_HOST/Target/usbh_conf.c ****   * @param  epnum: Endpoint number
 341:USB_HOST/Target/usbh_conf.c ****   * @param  dev_address: Device USB address
 342:USB_HOST/Target/usbh_conf.c ****   * @param  speed: Device Speed
 343:USB_HOST/Target/usbh_conf.c ****   * @param  ep_type: Endpoint type
 344:USB_HOST/Target/usbh_conf.c ****   * @param  mps: Endpoint max packet size
 345:USB_HOST/Target/usbh_conf.c ****   * @retval USBH status
 346:USB_HOST/Target/usbh_conf.c ****   */
 347:USB_HOST/Target/usbh_conf.c **** USBH_StatusTypeDef USBH_LL_OpenPipe(USBH_HandleTypeDef *phost, uint8_t pipe_num, uint8_t epnum,
 348:USB_HOST/Target/usbh_conf.c ****                                     uint8_t dev_address, uint8_t speed, uint8_t ep_type, uint16_t m
 349:USB_HOST/Target/usbh_conf.c **** {
 350:USB_HOST/Target/usbh_conf.c ****   HAL_StatusTypeDef hal_status = HAL_OK;
 351:USB_HOST/Target/usbh_conf.c ****   USBH_StatusTypeDef usb_status = USBH_OK;
 352:USB_HOST/Target/usbh_conf.c **** 
 353:USB_HOST/Target/usbh_conf.c ****   hal_status = HAL_HCD_HC_Init(phost->pData, pipe_num, epnum,
 354:USB_HOST/Target/usbh_conf.c ****                                dev_address, speed, ep_type, mps);
 355:USB_HOST/Target/usbh_conf.c **** 
 356:USB_HOST/Target/usbh_conf.c ****   usb_status = USBH_Get_USB_Status(hal_status);
 357:USB_HOST/Target/usbh_conf.c **** 
 358:USB_HOST/Target/usbh_conf.c ****   return usb_status;
 359:USB_HOST/Target/usbh_conf.c **** }
 360:USB_HOST/Target/usbh_conf.c **** 
 361:USB_HOST/Target/usbh_conf.c **** /**
 362:USB_HOST/Target/usbh_conf.c ****   * @brief  Close a pipe of the low level driver.
 363:USB_HOST/Target/usbh_conf.c ****   * @param  phost: Host handle
ARM GAS  C:\Users\User\AppData\Local\Temp\ccSgWNni.s 			page 17


 364:USB_HOST/Target/usbh_conf.c ****   * @param  pipe: Pipe index
 365:USB_HOST/Target/usbh_conf.c ****   * @retval USBH status
 366:USB_HOST/Target/usbh_conf.c ****   */
 367:USB_HOST/Target/usbh_conf.c **** USBH_StatusTypeDef USBH_LL_ClosePipe(USBH_HandleTypeDef *phost, uint8_t pipe)
 368:USB_HOST/Target/usbh_conf.c **** {
 369:USB_HOST/Target/usbh_conf.c ****   HAL_StatusTypeDef hal_status = HAL_OK;
 370:USB_HOST/Target/usbh_conf.c ****   USBH_StatusTypeDef usb_status = USBH_OK;
 371:USB_HOST/Target/usbh_conf.c **** 
 372:USB_HOST/Target/usbh_conf.c ****   hal_status = HAL_HCD_HC_Halt(phost->pData, pipe);
 373:USB_HOST/Target/usbh_conf.c **** 
 374:USB_HOST/Target/usbh_conf.c ****   usb_status = USBH_Get_USB_Status(hal_status);
 375:USB_HOST/Target/usbh_conf.c **** 
 376:USB_HOST/Target/usbh_conf.c ****   return usb_status;
 377:USB_HOST/Target/usbh_conf.c **** }
 378:USB_HOST/Target/usbh_conf.c **** 
 379:USB_HOST/Target/usbh_conf.c **** /**
 380:USB_HOST/Target/usbh_conf.c ****   * @brief  Submit a new URB to the low level driver.
 381:USB_HOST/Target/usbh_conf.c ****   * @param  phost: Host handle
 382:USB_HOST/Target/usbh_conf.c ****   * @param  pipe: Pipe index
 383:USB_HOST/Target/usbh_conf.c ****   *         This parameter can be a value from 1 to 15
 384:USB_HOST/Target/usbh_conf.c ****   * @param  direction : Channel number
 385:USB_HOST/Target/usbh_conf.c ****   *          This parameter can be one of the these values:
 386:USB_HOST/Target/usbh_conf.c ****   *           0 : Output
 387:USB_HOST/Target/usbh_conf.c ****   *           1 : Input
 388:USB_HOST/Target/usbh_conf.c ****   * @param  ep_type : Endpoint Type
 389:USB_HOST/Target/usbh_conf.c ****   *          This parameter can be one of the these values:
 390:USB_HOST/Target/usbh_conf.c ****   *            @arg EP_TYPE_CTRL: Control type
 391:USB_HOST/Target/usbh_conf.c ****   *            @arg EP_TYPE_ISOC: Isochrounous type
 392:USB_HOST/Target/usbh_conf.c ****   *            @arg EP_TYPE_BULK: Bulk type
 393:USB_HOST/Target/usbh_conf.c ****   *            @arg EP_TYPE_INTR: Interrupt type
 394:USB_HOST/Target/usbh_conf.c ****   * @param  token : Endpoint Type
 395:USB_HOST/Target/usbh_conf.c ****   *          This parameter can be one of the these values:
 396:USB_HOST/Target/usbh_conf.c ****   *            @arg 0: PID_SETUP
 397:USB_HOST/Target/usbh_conf.c ****   *            @arg 1: PID_DATA
 398:USB_HOST/Target/usbh_conf.c ****   * @param  pbuff : pointer to URB data
 399:USB_HOST/Target/usbh_conf.c ****   * @param  length : Length of URB data
 400:USB_HOST/Target/usbh_conf.c ****   * @param  do_ping : activate do ping protocol (for high speed only)
 401:USB_HOST/Target/usbh_conf.c ****   *          This parameter can be one of the these values:
 402:USB_HOST/Target/usbh_conf.c ****   *           0 : do ping inactive
 403:USB_HOST/Target/usbh_conf.c ****   *           1 : do ping active
 404:USB_HOST/Target/usbh_conf.c ****   * @retval Status
 405:USB_HOST/Target/usbh_conf.c ****   */
 406:USB_HOST/Target/usbh_conf.c **** USBH_StatusTypeDef USBH_LL_SubmitURB(USBH_HandleTypeDef *phost, uint8_t pipe, uint8_t direction,
 407:USB_HOST/Target/usbh_conf.c ****                                      uint8_t ep_type, uint8_t token, uint8_t *pbuff, uint16_t lengt
 408:USB_HOST/Target/usbh_conf.c ****                                      uint8_t do_ping)
 409:USB_HOST/Target/usbh_conf.c **** {
 410:USB_HOST/Target/usbh_conf.c ****   HAL_StatusTypeDef hal_status = HAL_OK;
 411:USB_HOST/Target/usbh_conf.c ****   USBH_StatusTypeDef usb_status = USBH_OK;
 412:USB_HOST/Target/usbh_conf.c **** 
 413:USB_HOST/Target/usbh_conf.c ****   hal_status = HAL_HCD_HC_SubmitRequest(phost->pData, pipe, direction ,
 414:USB_HOST/Target/usbh_conf.c ****                                         ep_type, token, pbuff, length,
 415:USB_HOST/Target/usbh_conf.c ****                                         do_ping);
 416:USB_HOST/Target/usbh_conf.c ****   usb_status =  USBH_Get_USB_Status(hal_status);
 417:USB_HOST/Target/usbh_conf.c **** 
 418:USB_HOST/Target/usbh_conf.c ****   return usb_status;
 419:USB_HOST/Target/usbh_conf.c **** }
 420:USB_HOST/Target/usbh_conf.c **** 
ARM GAS  C:\Users\User\AppData\Local\Temp\ccSgWNni.s 			page 18


 421:USB_HOST/Target/usbh_conf.c **** /**
 422:USB_HOST/Target/usbh_conf.c ****   * @brief  Get a URB state from the low level driver.
 423:USB_HOST/Target/usbh_conf.c ****   * @param  phost: Host handle
 424:USB_HOST/Target/usbh_conf.c ****   * @param  pipe: Pipe index
 425:USB_HOST/Target/usbh_conf.c ****   *         This parameter can be a value from 1 to 15
 426:USB_HOST/Target/usbh_conf.c ****   * @retval URB state
 427:USB_HOST/Target/usbh_conf.c ****   *          This parameter can be one of the these values:
 428:USB_HOST/Target/usbh_conf.c ****   *            @arg URB_IDLE
 429:USB_HOST/Target/usbh_conf.c ****   *            @arg URB_DONE
 430:USB_HOST/Target/usbh_conf.c ****   *            @arg URB_NOTREADY
 431:USB_HOST/Target/usbh_conf.c ****   *            @arg URB_NYET
 432:USB_HOST/Target/usbh_conf.c ****   *            @arg URB_ERROR
 433:USB_HOST/Target/usbh_conf.c ****   *            @arg URB_STALL
 434:USB_HOST/Target/usbh_conf.c ****   */
 435:USB_HOST/Target/usbh_conf.c **** USBH_URBStateTypeDef USBH_LL_GetURBState(USBH_HandleTypeDef *phost, uint8_t pipe)
 436:USB_HOST/Target/usbh_conf.c **** {
 543              		.loc 1 436 0
 544              		.cfi_startproc
 545              		@ args = 0, pretend = 0, frame = 0
 546              		@ frame_needed = 0, uses_anonymous_args = 0
 547              	.LVL49:
 548 0000 08B5     		push	{r3, lr}
 549              	.LCFI13:
 550              		.cfi_def_cfa_offset 8
 551              		.cfi_offset 3, -8
 552              		.cfi_offset 14, -4
 437:USB_HOST/Target/usbh_conf.c ****   return (USBH_URBStateTypeDef)HAL_HCD_HC_GetURBState (phost->pData, pipe);
 553              		.loc 1 437 0
 554 0002 D0F8D003 		ldr	r0, [r0, #976]
 555              	.LVL50:
 556 0006 FFF7FEFF 		bl	HAL_HCD_HC_GetURBState
 557              	.LVL51:
 438:USB_HOST/Target/usbh_conf.c **** }
 558              		.loc 1 438 0
 559 000a 08BD     		pop	{r3, pc}
 560              		.cfi_endproc
 561              	.LFE151:
 563              		.section	.text.USBH_LL_DriverVBUS,"ax",%progbits
 564              		.align	1
 565              		.global	USBH_LL_DriverVBUS
 566              		.syntax unified
 567              		.thumb
 568              		.thumb_func
 569              		.fpu fpv4-sp-d16
 571              	USBH_LL_DriverVBUS:
 572              	.LFB152:
 439:USB_HOST/Target/usbh_conf.c **** 
 440:USB_HOST/Target/usbh_conf.c **** /**
 441:USB_HOST/Target/usbh_conf.c ****   * @brief  Drive VBUS.
 442:USB_HOST/Target/usbh_conf.c ****   * @param  phost: Host handle
 443:USB_HOST/Target/usbh_conf.c ****   * @param  state : VBUS state
 444:USB_HOST/Target/usbh_conf.c ****   *          This parameter can be one of the these values:
 445:USB_HOST/Target/usbh_conf.c ****   *           0 : VBUS Inactive
 446:USB_HOST/Target/usbh_conf.c ****   *           1 : VBUS Active
 447:USB_HOST/Target/usbh_conf.c ****   * @retval Status
 448:USB_HOST/Target/usbh_conf.c ****   */
 449:USB_HOST/Target/usbh_conf.c **** USBH_StatusTypeDef USBH_LL_DriverVBUS(USBH_HandleTypeDef *phost, uint8_t state)
ARM GAS  C:\Users\User\AppData\Local\Temp\ccSgWNni.s 			page 19


 450:USB_HOST/Target/usbh_conf.c **** {
 573              		.loc 1 450 0
 574              		.cfi_startproc
 575              		@ args = 0, pretend = 0, frame = 0
 576              		@ frame_needed = 0, uses_anonymous_args = 0
 577              	.LVL52:
 578 0000 08B5     		push	{r3, lr}
 579              	.LCFI14:
 580              		.cfi_def_cfa_offset 8
 581              		.cfi_offset 3, -8
 582              		.cfi_offset 14, -4
 451:USB_HOST/Target/usbh_conf.c ****   if (phost->id == HOST_FS) {
 583              		.loc 1 451 0
 584 0002 90F8CC33 		ldrb	r3, [r0, #972]	@ zero_extendqisi2
 585 0006 012B     		cmp	r3, #1
 586 0008 04D0     		beq	.L49
 587              	.LVL53:
 588              	.L47:
 452:USB_HOST/Target/usbh_conf.c ****     MX_DriverVbusFS(state);
 453:USB_HOST/Target/usbh_conf.c ****   }
 454:USB_HOST/Target/usbh_conf.c **** 
 455:USB_HOST/Target/usbh_conf.c ****   /* USER CODE BEGIN 0 */
 456:USB_HOST/Target/usbh_conf.c **** 
 457:USB_HOST/Target/usbh_conf.c ****   /* USER CODE END 0*/
 458:USB_HOST/Target/usbh_conf.c **** 
 459:USB_HOST/Target/usbh_conf.c ****   HAL_Delay(200);
 589              		.loc 1 459 0
 590 000a C820     		movs	r0, #200
 591 000c FFF7FEFF 		bl	HAL_Delay
 592              	.LVL54:
 460:USB_HOST/Target/usbh_conf.c ****   return USBH_OK;
 461:USB_HOST/Target/usbh_conf.c **** }
 593              		.loc 1 461 0
 594 0010 0020     		movs	r0, #0
 595 0012 08BD     		pop	{r3, pc}
 596              	.LVL55:
 597              	.L49:
 452:USB_HOST/Target/usbh_conf.c ****     MX_DriverVbusFS(state);
 598              		.loc 1 452 0
 599 0014 0846     		mov	r0, r1
 600              	.LVL56:
 601 0016 FFF7FEFF 		bl	MX_DriverVbusFS
 602              	.LVL57:
 603 001a F6E7     		b	.L47
 604              		.cfi_endproc
 605              	.LFE152:
 607              		.section	.text.USBH_LL_SetToggle,"ax",%progbits
 608              		.align	1
 609              		.global	USBH_LL_SetToggle
 610              		.syntax unified
 611              		.thumb
 612              		.thumb_func
 613              		.fpu fpv4-sp-d16
 615              	USBH_LL_SetToggle:
 616              	.LFB153:
 462:USB_HOST/Target/usbh_conf.c **** 
 463:USB_HOST/Target/usbh_conf.c **** /**
ARM GAS  C:\Users\User\AppData\Local\Temp\ccSgWNni.s 			page 20


 464:USB_HOST/Target/usbh_conf.c ****   * @brief  Set toggle for a pipe.
 465:USB_HOST/Target/usbh_conf.c ****   * @param  phost: Host handle
 466:USB_HOST/Target/usbh_conf.c ****   * @param  pipe: Pipe index
 467:USB_HOST/Target/usbh_conf.c ****   * @param  toggle: toggle (0/1)
 468:USB_HOST/Target/usbh_conf.c ****   * @retval Status
 469:USB_HOST/Target/usbh_conf.c ****   */
 470:USB_HOST/Target/usbh_conf.c **** USBH_StatusTypeDef USBH_LL_SetToggle(USBH_HandleTypeDef *phost, uint8_t pipe, uint8_t toggle)
 471:USB_HOST/Target/usbh_conf.c **** {
 617              		.loc 1 471 0
 618              		.cfi_startproc
 619              		@ args = 0, pretend = 0, frame = 0
 620              		@ frame_needed = 0, uses_anonymous_args = 0
 621              		@ link register save eliminated.
 622              	.LVL58:
 623 0000 10B4     		push	{r4}
 624              	.LCFI15:
 625              		.cfi_def_cfa_offset 4
 626              		.cfi_offset 4, -4
 472:USB_HOST/Target/usbh_conf.c ****   HCD_HandleTypeDef *pHandle;
 473:USB_HOST/Target/usbh_conf.c ****   pHandle = phost->pData;
 627              		.loc 1 473 0
 628 0002 D0F8D033 		ldr	r3, [r0, #976]
 629              	.LVL59:
 474:USB_HOST/Target/usbh_conf.c **** 
 475:USB_HOST/Target/usbh_conf.c ****   if(pHandle->hc[pipe].ep_is_in)
 630              		.loc 1 475 0
 631 0006 01EB8104 		add	r4, r1, r1, lsl #2
 632 000a E000     		lsls	r0, r4, #3
 633              	.LVL60:
 634 000c 0446     		mov	r4, r0
 635 000e 1844     		add	r0, r0, r3
 636 0010 90F83B00 		ldrb	r0, [r0, #59]	@ zero_extendqisi2
 637 0014 48B9     		cbnz	r0, .L54
 476:USB_HOST/Target/usbh_conf.c ****   {
 477:USB_HOST/Target/usbh_conf.c ****     pHandle->hc[pipe].toggle_in = toggle;
 478:USB_HOST/Target/usbh_conf.c ****   }
 479:USB_HOST/Target/usbh_conf.c ****   else
 480:USB_HOST/Target/usbh_conf.c ****   {
 481:USB_HOST/Target/usbh_conf.c ****     pHandle->hc[pipe].toggle_out = toggle;
 638              		.loc 1 481 0
 639 0016 01EB8101 		add	r1, r1, r1, lsl #2
 640              	.LVL61:
 641 001a C800     		lsls	r0, r1, #3
 642 001c 0344     		add	r3, r3, r0
 643              	.LVL62:
 644 001e 83F85120 		strb	r2, [r3, #81]
 645              	.LVL63:
 646              	.L52:
 482:USB_HOST/Target/usbh_conf.c ****   }
 483:USB_HOST/Target/usbh_conf.c **** 
 484:USB_HOST/Target/usbh_conf.c ****   return USBH_OK;
 485:USB_HOST/Target/usbh_conf.c **** }
 647              		.loc 1 485 0
 648 0022 0020     		movs	r0, #0
 649 0024 5DF8044B 		ldr	r4, [sp], #4
 650              	.LCFI16:
 651              		.cfi_remember_state
ARM GAS  C:\Users\User\AppData\Local\Temp\ccSgWNni.s 			page 21


 652              		.cfi_restore 4
 653              		.cfi_def_cfa_offset 0
 654 0028 7047     		bx	lr
 655              	.LVL64:
 656              	.L54:
 657              	.LCFI17:
 658              		.cfi_restore_state
 477:USB_HOST/Target/usbh_conf.c ****   }
 659              		.loc 1 477 0
 660 002a 2344     		add	r3, r3, r4
 661              	.LVL65:
 662 002c 83F85020 		strb	r2, [r3, #80]
 663              	.LVL66:
 664 0030 F7E7     		b	.L52
 665              		.cfi_endproc
 666              	.LFE153:
 668              		.section	.text.USBH_LL_GetToggle,"ax",%progbits
 669              		.align	1
 670              		.global	USBH_LL_GetToggle
 671              		.syntax unified
 672              		.thumb
 673              		.thumb_func
 674              		.fpu fpv4-sp-d16
 676              	USBH_LL_GetToggle:
 677              	.LFB154:
 486:USB_HOST/Target/usbh_conf.c **** 
 487:USB_HOST/Target/usbh_conf.c **** /**
 488:USB_HOST/Target/usbh_conf.c ****   * @brief  Return the current toggle of a pipe.
 489:USB_HOST/Target/usbh_conf.c ****   * @param  phost: Host handle
 490:USB_HOST/Target/usbh_conf.c ****   * @param  pipe: Pipe index
 491:USB_HOST/Target/usbh_conf.c ****   * @retval toggle (0/1)
 492:USB_HOST/Target/usbh_conf.c ****   */
 493:USB_HOST/Target/usbh_conf.c **** uint8_t USBH_LL_GetToggle(USBH_HandleTypeDef *phost, uint8_t pipe)
 494:USB_HOST/Target/usbh_conf.c **** {
 678              		.loc 1 494 0
 679              		.cfi_startproc
 680              		@ args = 0, pretend = 0, frame = 0
 681              		@ frame_needed = 0, uses_anonymous_args = 0
 682              		@ link register save eliminated.
 683              	.LVL67:
 495:USB_HOST/Target/usbh_conf.c ****   uint8_t toggle = 0;
 496:USB_HOST/Target/usbh_conf.c ****   HCD_HandleTypeDef *pHandle;
 497:USB_HOST/Target/usbh_conf.c ****   pHandle = phost->pData;
 684              		.loc 1 497 0
 685 0000 D0F8D033 		ldr	r3, [r0, #976]
 686              	.LVL68:
 498:USB_HOST/Target/usbh_conf.c **** 
 499:USB_HOST/Target/usbh_conf.c ****   if(pHandle->hc[pipe].ep_is_in)
 687              		.loc 1 499 0
 688 0004 01EB8100 		add	r0, r1, r1, lsl #2
 689              	.LVL69:
 690 0008 C200     		lsls	r2, r0, #3
 691 000a 1046     		mov	r0, r2
 692 000c 1A44     		add	r2, r2, r3
 693 000e 92F83B20 		ldrb	r2, [r2, #59]	@ zero_extendqisi2
 694 0012 32B9     		cbnz	r2, .L58
 500:USB_HOST/Target/usbh_conf.c ****   {
ARM GAS  C:\Users\User\AppData\Local\Temp\ccSgWNni.s 			page 22


 501:USB_HOST/Target/usbh_conf.c ****     toggle = pHandle->hc[pipe].toggle_in;
 502:USB_HOST/Target/usbh_conf.c ****   }
 503:USB_HOST/Target/usbh_conf.c ****   else
 504:USB_HOST/Target/usbh_conf.c ****   {
 505:USB_HOST/Target/usbh_conf.c ****     toggle = pHandle->hc[pipe].toggle_out;
 695              		.loc 1 505 0
 696 0014 01EB8101 		add	r1, r1, r1, lsl #2
 697              	.LVL70:
 698 0018 CA00     		lsls	r2, r1, #3
 699 001a 1344     		add	r3, r3, r2
 700              	.LVL71:
 701 001c 93F85100 		ldrb	r0, [r3, #81]	@ zero_extendqisi2
 702              	.LVL72:
 506:USB_HOST/Target/usbh_conf.c ****   }
 507:USB_HOST/Target/usbh_conf.c ****   return toggle;
 508:USB_HOST/Target/usbh_conf.c **** }
 703              		.loc 1 508 0
 704 0020 7047     		bx	lr
 705              	.LVL73:
 706              	.L58:
 501:USB_HOST/Target/usbh_conf.c ****   }
 707              		.loc 1 501 0
 708 0022 0344     		add	r3, r3, r0
 709              	.LVL74:
 710 0024 93F85000 		ldrb	r0, [r3, #80]	@ zero_extendqisi2
 711              	.LVL75:
 712 0028 7047     		bx	lr
 713              		.cfi_endproc
 714              	.LFE154:
 716              		.section	.text.USBH_Delay,"ax",%progbits
 717              		.align	1
 718              		.global	USBH_Delay
 719              		.syntax unified
 720              		.thumb
 721              		.thumb_func
 722              		.fpu fpv4-sp-d16
 724              	USBH_Delay:
 725              	.LFB155:
 509:USB_HOST/Target/usbh_conf.c **** 
 510:USB_HOST/Target/usbh_conf.c **** /**
 511:USB_HOST/Target/usbh_conf.c ****   * @brief  Delay routine for the USB Host Library
 512:USB_HOST/Target/usbh_conf.c ****   * @param  Delay: Delay in ms
 513:USB_HOST/Target/usbh_conf.c ****   * @retval None
 514:USB_HOST/Target/usbh_conf.c ****   */
 515:USB_HOST/Target/usbh_conf.c **** void USBH_Delay(uint32_t Delay)
 516:USB_HOST/Target/usbh_conf.c **** {
 726              		.loc 1 516 0
 727              		.cfi_startproc
 728              		@ args = 0, pretend = 0, frame = 0
 729              		@ frame_needed = 0, uses_anonymous_args = 0
 730              	.LVL76:
 731 0000 08B5     		push	{r3, lr}
 732              	.LCFI18:
 733              		.cfi_def_cfa_offset 8
 734              		.cfi_offset 3, -8
 735              		.cfi_offset 14, -4
 517:USB_HOST/Target/usbh_conf.c ****   HAL_Delay(Delay);
ARM GAS  C:\Users\User\AppData\Local\Temp\ccSgWNni.s 			page 23


 736              		.loc 1 517 0
 737 0002 FFF7FEFF 		bl	HAL_Delay
 738              	.LVL77:
 518:USB_HOST/Target/usbh_conf.c **** }
 739              		.loc 1 518 0
 740 0006 08BD     		pop	{r3, pc}
 741              		.cfi_endproc
 742              	.LFE155:
 744              		.section	.text.USBH_Get_USB_Status,"ax",%progbits
 745              		.align	1
 746              		.global	USBH_Get_USB_Status
 747              		.syntax unified
 748              		.thumb
 749              		.thumb_func
 750              		.fpu fpv4-sp-d16
 752              	USBH_Get_USB_Status:
 753              	.LFB156:
 519:USB_HOST/Target/usbh_conf.c **** 
 520:USB_HOST/Target/usbh_conf.c **** /**
 521:USB_HOST/Target/usbh_conf.c ****   * @brief  Retuns the USB status depending on the HAL status:
 522:USB_HOST/Target/usbh_conf.c ****   * @param  hal_status: HAL status
 523:USB_HOST/Target/usbh_conf.c ****   * @retval USB status
 524:USB_HOST/Target/usbh_conf.c ****   */
 525:USB_HOST/Target/usbh_conf.c **** USBH_StatusTypeDef USBH_Get_USB_Status(HAL_StatusTypeDef hal_status)
 526:USB_HOST/Target/usbh_conf.c **** {
 754              		.loc 1 526 0
 755              		.cfi_startproc
 756              		@ args = 0, pretend = 0, frame = 0
 757              		@ frame_needed = 0, uses_anonymous_args = 0
 758              		@ link register save eliminated.
 759              	.LVL78:
 527:USB_HOST/Target/usbh_conf.c ****   USBH_StatusTypeDef usb_status = USBH_OK;
 528:USB_HOST/Target/usbh_conf.c **** 
 529:USB_HOST/Target/usbh_conf.c ****   switch (hal_status)
 760              		.loc 1 529 0
 761 0000 18B1     		cbz	r0, .L63
 762 0002 0228     		cmp	r0, #2
 763 0004 03D0     		beq	.L64
 530:USB_HOST/Target/usbh_conf.c ****   {
 531:USB_HOST/Target/usbh_conf.c ****     case HAL_OK :
 532:USB_HOST/Target/usbh_conf.c ****       usb_status = USBH_OK;
 533:USB_HOST/Target/usbh_conf.c ****     break;
 534:USB_HOST/Target/usbh_conf.c ****     case HAL_ERROR :
 535:USB_HOST/Target/usbh_conf.c ****       usb_status = USBH_FAIL;
 764              		.loc 1 535 0
 765 0006 0220     		movs	r0, #2
 766              	.LVL79:
 536:USB_HOST/Target/usbh_conf.c ****     break;
 537:USB_HOST/Target/usbh_conf.c ****     case HAL_BUSY :
 538:USB_HOST/Target/usbh_conf.c ****       usb_status = USBH_BUSY;
 539:USB_HOST/Target/usbh_conf.c ****     break;
 540:USB_HOST/Target/usbh_conf.c ****     case HAL_TIMEOUT :
 541:USB_HOST/Target/usbh_conf.c ****       usb_status = USBH_FAIL;
 542:USB_HOST/Target/usbh_conf.c ****     break;
 543:USB_HOST/Target/usbh_conf.c ****     default :
 544:USB_HOST/Target/usbh_conf.c ****       usb_status = USBH_FAIL;
 545:USB_HOST/Target/usbh_conf.c ****     break;
ARM GAS  C:\Users\User\AppData\Local\Temp\ccSgWNni.s 			page 24


 546:USB_HOST/Target/usbh_conf.c ****   }
 547:USB_HOST/Target/usbh_conf.c ****   return usb_status;
 548:USB_HOST/Target/usbh_conf.c **** }
 767              		.loc 1 548 0
 768 0008 7047     		bx	lr
 769              	.LVL80:
 770              	.L63:
 532:USB_HOST/Target/usbh_conf.c ****     break;
 771              		.loc 1 532 0
 772 000a 0020     		movs	r0, #0
 773              	.LVL81:
 774 000c 7047     		bx	lr
 775              	.LVL82:
 776              	.L64:
 538:USB_HOST/Target/usbh_conf.c ****     break;
 777              		.loc 1 538 0
 778 000e 0120     		movs	r0, #1
 779              	.LVL83:
 539:USB_HOST/Target/usbh_conf.c ****     case HAL_TIMEOUT :
 780              		.loc 1 539 0
 781 0010 7047     		bx	lr
 782              		.cfi_endproc
 783              	.LFE156:
 785              		.section	.text.USBH_LL_DeInit,"ax",%progbits
 786              		.align	1
 787              		.global	USBH_LL_DeInit
 788              		.syntax unified
 789              		.thumb
 790              		.thumb_func
 791              		.fpu fpv4-sp-d16
 793              	USBH_LL_DeInit:
 794              	.LFB142:
 233:USB_HOST/Target/usbh_conf.c ****   HAL_StatusTypeDef hal_status = HAL_OK;
 795              		.loc 1 233 0
 796              		.cfi_startproc
 797              		@ args = 0, pretend = 0, frame = 0
 798              		@ frame_needed = 0, uses_anonymous_args = 0
 799              	.LVL84:
 800 0000 08B5     		push	{r3, lr}
 801              	.LCFI19:
 802              		.cfi_def_cfa_offset 8
 803              		.cfi_offset 3, -8
 804              		.cfi_offset 14, -4
 805              	.LVL85:
 237:USB_HOST/Target/usbh_conf.c **** 
 806              		.loc 1 237 0
 807 0002 D0F8D003 		ldr	r0, [r0, #976]
 808              	.LVL86:
 809 0006 FFF7FEFF 		bl	HAL_HCD_DeInit
 810              	.LVL87:
 239:USB_HOST/Target/usbh_conf.c **** 
 811              		.loc 1 239 0
 812 000a FFF7FEFF 		bl	USBH_Get_USB_Status
 813              	.LVL88:
 242:USB_HOST/Target/usbh_conf.c **** 
 814              		.loc 1 242 0
 815 000e 08BD     		pop	{r3, pc}
ARM GAS  C:\Users\User\AppData\Local\Temp\ccSgWNni.s 			page 25


 816              		.cfi_endproc
 817              	.LFE142:
 819              		.section	.text.USBH_LL_Start,"ax",%progbits
 820              		.align	1
 821              		.global	USBH_LL_Start
 822              		.syntax unified
 823              		.thumb
 824              		.thumb_func
 825              		.fpu fpv4-sp-d16
 827              	USBH_LL_Start:
 828              	.LFB143:
 250:USB_HOST/Target/usbh_conf.c ****   HAL_StatusTypeDef hal_status = HAL_OK;
 829              		.loc 1 250 0
 830              		.cfi_startproc
 831              		@ args = 0, pretend = 0, frame = 0
 832              		@ frame_needed = 0, uses_anonymous_args = 0
 833              	.LVL89:
 834 0000 08B5     		push	{r3, lr}
 835              	.LCFI20:
 836              		.cfi_def_cfa_offset 8
 837              		.cfi_offset 3, -8
 838              		.cfi_offset 14, -4
 839              	.LVL90:
 254:USB_HOST/Target/usbh_conf.c **** 
 840              		.loc 1 254 0
 841 0002 D0F8D003 		ldr	r0, [r0, #976]
 842              	.LVL91:
 843 0006 FFF7FEFF 		bl	HAL_HCD_Start
 844              	.LVL92:
 256:USB_HOST/Target/usbh_conf.c **** 
 845              		.loc 1 256 0
 846 000a FFF7FEFF 		bl	USBH_Get_USB_Status
 847              	.LVL93:
 259:USB_HOST/Target/usbh_conf.c **** 
 848              		.loc 1 259 0
 849 000e 08BD     		pop	{r3, pc}
 850              		.cfi_endproc
 851              	.LFE143:
 853              		.section	.text.USBH_LL_Stop,"ax",%progbits
 854              		.align	1
 855              		.global	USBH_LL_Stop
 856              		.syntax unified
 857              		.thumb
 858              		.thumb_func
 859              		.fpu fpv4-sp-d16
 861              	USBH_LL_Stop:
 862              	.LFB144:
 267:USB_HOST/Target/usbh_conf.c ****   HAL_StatusTypeDef hal_status = HAL_OK;
 863              		.loc 1 267 0
 864              		.cfi_startproc
 865              		@ args = 0, pretend = 0, frame = 0
 866              		@ frame_needed = 0, uses_anonymous_args = 0
 867              	.LVL94:
 868 0000 08B5     		push	{r3, lr}
 869              	.LCFI21:
 870              		.cfi_def_cfa_offset 8
 871              		.cfi_offset 3, -8
ARM GAS  C:\Users\User\AppData\Local\Temp\ccSgWNni.s 			page 26


 872              		.cfi_offset 14, -4
 873              	.LVL95:
 271:USB_HOST/Target/usbh_conf.c **** 
 874              		.loc 1 271 0
 875 0002 D0F8D003 		ldr	r0, [r0, #976]
 876              	.LVL96:
 877 0006 FFF7FEFF 		bl	HAL_HCD_Stop
 878              	.LVL97:
 273:USB_HOST/Target/usbh_conf.c **** 
 879              		.loc 1 273 0
 880 000a FFF7FEFF 		bl	USBH_Get_USB_Status
 881              	.LVL98:
 276:USB_HOST/Target/usbh_conf.c **** 
 882              		.loc 1 276 0
 883 000e 08BD     		pop	{r3, pc}
 884              		.cfi_endproc
 885              	.LFE144:
 887              		.section	.text.USBH_LL_ResetPort,"ax",%progbits
 888              		.align	1
 889              		.global	USBH_LL_ResetPort
 890              		.syntax unified
 891              		.thumb
 892              		.thumb_func
 893              		.fpu fpv4-sp-d16
 895              	USBH_LL_ResetPort:
 896              	.LFB146:
 314:USB_HOST/Target/usbh_conf.c ****   HAL_StatusTypeDef hal_status = HAL_OK;
 897              		.loc 1 314 0
 898              		.cfi_startproc
 899              		@ args = 0, pretend = 0, frame = 0
 900              		@ frame_needed = 0, uses_anonymous_args = 0
 901              	.LVL99:
 902 0000 08B5     		push	{r3, lr}
 903              	.LCFI22:
 904              		.cfi_def_cfa_offset 8
 905              		.cfi_offset 3, -8
 906              		.cfi_offset 14, -4
 907              	.LVL100:
 318:USB_HOST/Target/usbh_conf.c **** 
 908              		.loc 1 318 0
 909 0002 D0F8D003 		ldr	r0, [r0, #976]
 910              	.LVL101:
 911 0006 FFF7FEFF 		bl	HAL_HCD_ResetPort
 912              	.LVL102:
 320:USB_HOST/Target/usbh_conf.c **** 
 913              		.loc 1 320 0
 914 000a FFF7FEFF 		bl	USBH_Get_USB_Status
 915              	.LVL103:
 323:USB_HOST/Target/usbh_conf.c **** 
 916              		.loc 1 323 0
 917 000e 08BD     		pop	{r3, pc}
 918              		.cfi_endproc
 919              	.LFE146:
 921              		.section	.text.USBH_LL_OpenPipe,"ax",%progbits
 922              		.align	1
 923              		.global	USBH_LL_OpenPipe
 924              		.syntax unified
ARM GAS  C:\Users\User\AppData\Local\Temp\ccSgWNni.s 			page 27


 925              		.thumb
 926              		.thumb_func
 927              		.fpu fpv4-sp-d16
 929              	USBH_LL_OpenPipe:
 930              	.LFB148:
 349:USB_HOST/Target/usbh_conf.c ****   HAL_StatusTypeDef hal_status = HAL_OK;
 931              		.loc 1 349 0
 932              		.cfi_startproc
 933              		@ args = 12, pretend = 0, frame = 0
 934              		@ frame_needed = 0, uses_anonymous_args = 0
 935              	.LVL104:
 936 0000 10B5     		push	{r4, lr}
 937              	.LCFI23:
 938              		.cfi_def_cfa_offset 8
 939              		.cfi_offset 4, -8
 940              		.cfi_offset 14, -4
 941 0002 84B0     		sub	sp, sp, #16
 942              	.LCFI24:
 943              		.cfi_def_cfa_offset 24
 944              	.LVL105:
 353:USB_HOST/Target/usbh_conf.c ****                                dev_address, speed, ep_type, mps);
 945              		.loc 1 353 0
 946 0004 D0F8D003 		ldr	r0, [r0, #976]
 947              	.LVL106:
 948 0008 BDF82040 		ldrh	r4, [sp, #32]
 949 000c 0294     		str	r4, [sp, #8]
 950 000e 9DF81C40 		ldrb	r4, [sp, #28]	@ zero_extendqisi2
 951 0012 0194     		str	r4, [sp, #4]
 952 0014 9DF81840 		ldrb	r4, [sp, #24]	@ zero_extendqisi2
 953 0018 0094     		str	r4, [sp]
 954 001a FFF7FEFF 		bl	HAL_HCD_HC_Init
 955              	.LVL107:
 356:USB_HOST/Target/usbh_conf.c **** 
 956              		.loc 1 356 0
 957 001e FFF7FEFF 		bl	USBH_Get_USB_Status
 958              	.LVL108:
 359:USB_HOST/Target/usbh_conf.c **** 
 959              		.loc 1 359 0
 960 0022 04B0     		add	sp, sp, #16
 961              	.LCFI25:
 962              		.cfi_def_cfa_offset 8
 963              		@ sp needed
 964 0024 10BD     		pop	{r4, pc}
 965              		.cfi_endproc
 966              	.LFE148:
 968              		.section	.text.USBH_LL_ClosePipe,"ax",%progbits
 969              		.align	1
 970              		.global	USBH_LL_ClosePipe
 971              		.syntax unified
 972              		.thumb
 973              		.thumb_func
 974              		.fpu fpv4-sp-d16
 976              	USBH_LL_ClosePipe:
 977              	.LFB149:
 368:USB_HOST/Target/usbh_conf.c ****   HAL_StatusTypeDef hal_status = HAL_OK;
 978              		.loc 1 368 0
 979              		.cfi_startproc
ARM GAS  C:\Users\User\AppData\Local\Temp\ccSgWNni.s 			page 28


 980              		@ args = 0, pretend = 0, frame = 0
 981              		@ frame_needed = 0, uses_anonymous_args = 0
 982              	.LVL109:
 983 0000 08B5     		push	{r3, lr}
 984              	.LCFI26:
 985              		.cfi_def_cfa_offset 8
 986              		.cfi_offset 3, -8
 987              		.cfi_offset 14, -4
 988              	.LVL110:
 372:USB_HOST/Target/usbh_conf.c **** 
 989              		.loc 1 372 0
 990 0002 D0F8D003 		ldr	r0, [r0, #976]
 991              	.LVL111:
 992 0006 FFF7FEFF 		bl	HAL_HCD_HC_Halt
 993              	.LVL112:
 374:USB_HOST/Target/usbh_conf.c **** 
 994              		.loc 1 374 0
 995 000a FFF7FEFF 		bl	USBH_Get_USB_Status
 996              	.LVL113:
 377:USB_HOST/Target/usbh_conf.c **** 
 997              		.loc 1 377 0
 998 000e 08BD     		pop	{r3, pc}
 999              		.cfi_endproc
 1000              	.LFE149:
 1002              		.section	.text.USBH_LL_SubmitURB,"ax",%progbits
 1003              		.align	1
 1004              		.global	USBH_LL_SubmitURB
 1005              		.syntax unified
 1006              		.thumb
 1007              		.thumb_func
 1008              		.fpu fpv4-sp-d16
 1010              	USBH_LL_SubmitURB:
 1011              	.LFB150:
 409:USB_HOST/Target/usbh_conf.c ****   HAL_StatusTypeDef hal_status = HAL_OK;
 1012              		.loc 1 409 0
 1013              		.cfi_startproc
 1014              		@ args = 16, pretend = 0, frame = 0
 1015              		@ frame_needed = 0, uses_anonymous_args = 0
 1016              	.LVL114:
 1017 0000 10B5     		push	{r4, lr}
 1018              	.LCFI27:
 1019              		.cfi_def_cfa_offset 8
 1020              		.cfi_offset 4, -8
 1021              		.cfi_offset 14, -4
 1022 0002 84B0     		sub	sp, sp, #16
 1023              	.LCFI28:
 1024              		.cfi_def_cfa_offset 24
 1025              	.LVL115:
 413:USB_HOST/Target/usbh_conf.c ****                                         ep_type, token, pbuff, length,
 1026              		.loc 1 413 0
 1027 0004 D0F8D003 		ldr	r0, [r0, #976]
 1028              	.LVL116:
 1029 0008 9DF82440 		ldrb	r4, [sp, #36]	@ zero_extendqisi2
 1030 000c 0394     		str	r4, [sp, #12]
 1031 000e BDF82040 		ldrh	r4, [sp, #32]
 1032 0012 0294     		str	r4, [sp, #8]
 1033 0014 079C     		ldr	r4, [sp, #28]
ARM GAS  C:\Users\User\AppData\Local\Temp\ccSgWNni.s 			page 29


 1034 0016 0194     		str	r4, [sp, #4]
 1035 0018 9DF81840 		ldrb	r4, [sp, #24]	@ zero_extendqisi2
 1036 001c 0094     		str	r4, [sp]
 1037 001e FFF7FEFF 		bl	HAL_HCD_HC_SubmitRequest
 1038              	.LVL117:
 416:USB_HOST/Target/usbh_conf.c **** 
 1039              		.loc 1 416 0
 1040 0022 FFF7FEFF 		bl	USBH_Get_USB_Status
 1041              	.LVL118:
 419:USB_HOST/Target/usbh_conf.c **** 
 1042              		.loc 1 419 0
 1043 0026 04B0     		add	sp, sp, #16
 1044              	.LCFI29:
 1045              		.cfi_def_cfa_offset 8
 1046              		@ sp needed
 1047 0028 10BD     		pop	{r4, pc}
 1048              		.cfi_endproc
 1049              	.LFE150:
 1051              		.comm	hhcd_USB_OTG_FS,708,4
 1052              		.text
 1053              	.Letext0:
 1054              		.file 2 "d:\\stm32_project\\tool\\7-2018-q2-update\\arm-none-eabi\\include\\machine\\_default_type
 1055              		.file 3 "d:\\stm32_project\\tool\\7-2018-q2-update\\arm-none-eabi\\include\\sys\\lock.h"
 1056              		.file 4 "d:\\stm32_project\\tool\\7-2018-q2-update\\arm-none-eabi\\include\\sys\\_types.h"
 1057              		.file 5 "d:\\stm32_project\\tool\\7-2018-q2-update\\lib\\gcc\\arm-none-eabi\\7.3.1\\include\\stdde
 1058              		.file 6 "d:\\stm32_project\\tool\\7-2018-q2-update\\arm-none-eabi\\include\\sys\\reent.h"
 1059              		.file 7 "d:\\stm32_project\\tool\\7-2018-q2-update\\arm-none-eabi\\include\\sys\\_stdint.h"
 1060              		.file 8 "d:\\stm32_project\\tool\\7-2018-q2-update\\arm-none-eabi\\include\\stdlib.h"
 1061              		.file 9 "Drivers/CMSIS/Include/core_cm4.h"
 1062              		.file 10 "Drivers/CMSIS/Device/ST/STM32F4xx/Include/system_stm32f4xx.h"
 1063              		.file 11 "Drivers/CMSIS/Device/ST/STM32F4xx/Include/stm32f407xx.h"
 1064              		.file 12 "Drivers/CMSIS/Device/ST/STM32F4xx/Include/stm32f4xx.h"
 1065              		.file 13 "Drivers/STM32F4xx_HAL_Driver/Inc/stm32f4xx_hal_def.h"
 1066              		.file 14 "Drivers/STM32F4xx_HAL_Driver/Inc/stm32f4xx_hal_gpio.h"
 1067              		.file 15 "Drivers/STM32F4xx_HAL_Driver/Inc/stm32f4xx_ll_usb.h"
 1068              		.file 16 "Drivers/STM32F4xx_HAL_Driver/Inc/stm32f4xx_hal_hcd.h"
 1069              		.file 17 "Drivers/STM32F4xx_HAL_Driver/Inc/stm32f4xx_hal.h"
 1070              		.file 18 "Middlewares/ST/STM32_USB_Host_Library/Core/Inc/usbh_def.h"
 1071              		.file 19 "Middlewares/ST/STM32_USB_Host_Library/Core/Inc/usbh_ctlreq.h"
 1072              		.file 20 "USB_HOST/Target/usbh_platform.h"
 1073              		.file 21 "Middlewares/ST/STM32_USB_Host_Library/Core/Inc/usbh_core.h"
 1074              		.file 22 "Drivers/STM32F4xx_HAL_Driver/Inc/stm32f4xx_hal_cortex.h"
ARM GAS  C:\Users\User\AppData\Local\Temp\ccSgWNni.s 			page 30

