ARM GAS  C:\Users\User\AppData\Local\Temp\ccMoYMA0.s 			page 1


   1              		.cpu cortex-m4
   2              		.eabi_attribute 27, 1
   3              		.eabi_attribute 28, 1
   4              		.eabi_attribute 20, 1
   5              		.eabi_attribute 21, 1
   6              		.eabi_attribute 23, 3
   7              		.eabi_attribute 24, 1
   8              		.eabi_attribute 25, 1
   9              		.eabi_attribute 26, 1
  10              		.eabi_attribute 30, 1
  11              		.eabi_attribute 34, 1
  12              		.eabi_attribute 18, 4
  13              		.file	"usbh_core.c"
  14              		.text
  15              	.Ltext0:
  16              		.cfi_sections	.debug_frame
  17              		.section	.text.DeInitStateMachine,"ax",%progbits
  18              		.align	1
  19              		.syntax unified
  20              		.thumb
  21              		.thumb_func
  22              		.fpu fpv4-sp-d16
  24              	DeInitStateMachine:
  25              	.LFB135:
  26              		.file 1 "Middlewares/ST/STM32_USB_Host_Library/Core/Src/usbh_core.c"
   1:Middlewares/ST/STM32_USB_Host_Library/Core/Src/usbh_core.c **** /**
   2:Middlewares/ST/STM32_USB_Host_Library/Core/Src/usbh_core.c ****   ******************************************************************************
   3:Middlewares/ST/STM32_USB_Host_Library/Core/Src/usbh_core.c ****   * @file    usbh_core.c
   4:Middlewares/ST/STM32_USB_Host_Library/Core/Src/usbh_core.c ****   * @author  MCD Application Team
   5:Middlewares/ST/STM32_USB_Host_Library/Core/Src/usbh_core.c ****   * @brief   This file implements the functions for the core state machine process
   6:Middlewares/ST/STM32_USB_Host_Library/Core/Src/usbh_core.c ****   *          the enumeration and the control transfer process
   7:Middlewares/ST/STM32_USB_Host_Library/Core/Src/usbh_core.c ****   ******************************************************************************
   8:Middlewares/ST/STM32_USB_Host_Library/Core/Src/usbh_core.c ****   * @attention
   9:Middlewares/ST/STM32_USB_Host_Library/Core/Src/usbh_core.c ****   *
  10:Middlewares/ST/STM32_USB_Host_Library/Core/Src/usbh_core.c ****   * <h2><center>&copy; Copyright (c) 2015 STMicroelectronics.
  11:Middlewares/ST/STM32_USB_Host_Library/Core/Src/usbh_core.c ****   * All rights reserved.</center></h2>
  12:Middlewares/ST/STM32_USB_Host_Library/Core/Src/usbh_core.c ****   *
  13:Middlewares/ST/STM32_USB_Host_Library/Core/Src/usbh_core.c ****   * This software component is licensed by ST under Ultimate Liberty license
  14:Middlewares/ST/STM32_USB_Host_Library/Core/Src/usbh_core.c ****   * SLA0044, the "License"; You may not use this file except in compliance with
  15:Middlewares/ST/STM32_USB_Host_Library/Core/Src/usbh_core.c ****   * the License. You may obtain a copy of the License at:
  16:Middlewares/ST/STM32_USB_Host_Library/Core/Src/usbh_core.c ****   *                      www.st.com/SLA0044
  17:Middlewares/ST/STM32_USB_Host_Library/Core/Src/usbh_core.c ****   *
  18:Middlewares/ST/STM32_USB_Host_Library/Core/Src/usbh_core.c ****   ******************************************************************************
  19:Middlewares/ST/STM32_USB_Host_Library/Core/Src/usbh_core.c ****   */
  20:Middlewares/ST/STM32_USB_Host_Library/Core/Src/usbh_core.c **** 
  21:Middlewares/ST/STM32_USB_Host_Library/Core/Src/usbh_core.c **** /* Includes ------------------------------------------------------------------*/
  22:Middlewares/ST/STM32_USB_Host_Library/Core/Src/usbh_core.c **** #include "usbh_core.h"
  23:Middlewares/ST/STM32_USB_Host_Library/Core/Src/usbh_core.c **** 
  24:Middlewares/ST/STM32_USB_Host_Library/Core/Src/usbh_core.c **** 
  25:Middlewares/ST/STM32_USB_Host_Library/Core/Src/usbh_core.c **** /** @addtogroup USBH_LIB
  26:Middlewares/ST/STM32_USB_Host_Library/Core/Src/usbh_core.c ****   * @{
  27:Middlewares/ST/STM32_USB_Host_Library/Core/Src/usbh_core.c ****   */
  28:Middlewares/ST/STM32_USB_Host_Library/Core/Src/usbh_core.c **** 
  29:Middlewares/ST/STM32_USB_Host_Library/Core/Src/usbh_core.c **** /** @addtogroup USBH_LIB_CORE
  30:Middlewares/ST/STM32_USB_Host_Library/Core/Src/usbh_core.c ****   * @{
  31:Middlewares/ST/STM32_USB_Host_Library/Core/Src/usbh_core.c ****   */
  32:Middlewares/ST/STM32_USB_Host_Library/Core/Src/usbh_core.c **** 
ARM GAS  C:\Users\User\AppData\Local\Temp\ccMoYMA0.s 			page 2


  33:Middlewares/ST/STM32_USB_Host_Library/Core/Src/usbh_core.c **** /** @defgroup USBH_CORE
  34:Middlewares/ST/STM32_USB_Host_Library/Core/Src/usbh_core.c ****   * @brief This file handles the basic enumeration when a device is connected
  35:Middlewares/ST/STM32_USB_Host_Library/Core/Src/usbh_core.c ****   *          to the host.
  36:Middlewares/ST/STM32_USB_Host_Library/Core/Src/usbh_core.c ****   * @{
  37:Middlewares/ST/STM32_USB_Host_Library/Core/Src/usbh_core.c ****   */
  38:Middlewares/ST/STM32_USB_Host_Library/Core/Src/usbh_core.c **** 
  39:Middlewares/ST/STM32_USB_Host_Library/Core/Src/usbh_core.c **** 
  40:Middlewares/ST/STM32_USB_Host_Library/Core/Src/usbh_core.c **** /** @defgroup USBH_CORE_Private_Defines
  41:Middlewares/ST/STM32_USB_Host_Library/Core/Src/usbh_core.c ****   * @{
  42:Middlewares/ST/STM32_USB_Host_Library/Core/Src/usbh_core.c ****   */
  43:Middlewares/ST/STM32_USB_Host_Library/Core/Src/usbh_core.c **** #define USBH_ADDRESS_DEFAULT                     0x00U
  44:Middlewares/ST/STM32_USB_Host_Library/Core/Src/usbh_core.c **** #define USBH_ADDRESS_ASSIGNED                    0x01U
  45:Middlewares/ST/STM32_USB_Host_Library/Core/Src/usbh_core.c **** #define USBH_MPS_DEFAULT                         0x40U
  46:Middlewares/ST/STM32_USB_Host_Library/Core/Src/usbh_core.c **** /**
  47:Middlewares/ST/STM32_USB_Host_Library/Core/Src/usbh_core.c ****   * @}
  48:Middlewares/ST/STM32_USB_Host_Library/Core/Src/usbh_core.c ****   */
  49:Middlewares/ST/STM32_USB_Host_Library/Core/Src/usbh_core.c **** 
  50:Middlewares/ST/STM32_USB_Host_Library/Core/Src/usbh_core.c **** /** @defgroup USBH_CORE_Private_Macros
  51:Middlewares/ST/STM32_USB_Host_Library/Core/Src/usbh_core.c ****   * @{
  52:Middlewares/ST/STM32_USB_Host_Library/Core/Src/usbh_core.c ****   */
  53:Middlewares/ST/STM32_USB_Host_Library/Core/Src/usbh_core.c **** /**
  54:Middlewares/ST/STM32_USB_Host_Library/Core/Src/usbh_core.c ****   * @}
  55:Middlewares/ST/STM32_USB_Host_Library/Core/Src/usbh_core.c ****   */
  56:Middlewares/ST/STM32_USB_Host_Library/Core/Src/usbh_core.c **** 
  57:Middlewares/ST/STM32_USB_Host_Library/Core/Src/usbh_core.c **** 
  58:Middlewares/ST/STM32_USB_Host_Library/Core/Src/usbh_core.c **** /** @defgroup USBH_CORE_Private_Variables
  59:Middlewares/ST/STM32_USB_Host_Library/Core/Src/usbh_core.c ****   * @{
  60:Middlewares/ST/STM32_USB_Host_Library/Core/Src/usbh_core.c ****   */
  61:Middlewares/ST/STM32_USB_Host_Library/Core/Src/usbh_core.c **** #if (USBH_USE_OS == 1U)
  62:Middlewares/ST/STM32_USB_Host_Library/Core/Src/usbh_core.c **** #if (osCMSIS >= 0x20000U)
  63:Middlewares/ST/STM32_USB_Host_Library/Core/Src/usbh_core.c **** osThreadAttr_t USBH_Thread_Atrr;
  64:Middlewares/ST/STM32_USB_Host_Library/Core/Src/usbh_core.c **** #endif
  65:Middlewares/ST/STM32_USB_Host_Library/Core/Src/usbh_core.c **** #endif
  66:Middlewares/ST/STM32_USB_Host_Library/Core/Src/usbh_core.c **** 
  67:Middlewares/ST/STM32_USB_Host_Library/Core/Src/usbh_core.c **** 
  68:Middlewares/ST/STM32_USB_Host_Library/Core/Src/usbh_core.c **** /**
  69:Middlewares/ST/STM32_USB_Host_Library/Core/Src/usbh_core.c ****   * @}
  70:Middlewares/ST/STM32_USB_Host_Library/Core/Src/usbh_core.c ****   */
  71:Middlewares/ST/STM32_USB_Host_Library/Core/Src/usbh_core.c **** 
  72:Middlewares/ST/STM32_USB_Host_Library/Core/Src/usbh_core.c **** 
  73:Middlewares/ST/STM32_USB_Host_Library/Core/Src/usbh_core.c **** /** @defgroup USBH_CORE_Private_Functions
  74:Middlewares/ST/STM32_USB_Host_Library/Core/Src/usbh_core.c ****   * @{
  75:Middlewares/ST/STM32_USB_Host_Library/Core/Src/usbh_core.c ****   */
  76:Middlewares/ST/STM32_USB_Host_Library/Core/Src/usbh_core.c **** static USBH_StatusTypeDef USBH_HandleEnum(USBH_HandleTypeDef *phost);
  77:Middlewares/ST/STM32_USB_Host_Library/Core/Src/usbh_core.c **** static void USBH_HandleSof(USBH_HandleTypeDef *phost);
  78:Middlewares/ST/STM32_USB_Host_Library/Core/Src/usbh_core.c **** static USBH_StatusTypeDef DeInitStateMachine(USBH_HandleTypeDef *phost);
  79:Middlewares/ST/STM32_USB_Host_Library/Core/Src/usbh_core.c **** 
  80:Middlewares/ST/STM32_USB_Host_Library/Core/Src/usbh_core.c **** #if (USBH_USE_OS == 1U)
  81:Middlewares/ST/STM32_USB_Host_Library/Core/Src/usbh_core.c **** #if (osCMSIS < 0x20000U)
  82:Middlewares/ST/STM32_USB_Host_Library/Core/Src/usbh_core.c **** static void USBH_Process_OS(void const *argument);
  83:Middlewares/ST/STM32_USB_Host_Library/Core/Src/usbh_core.c **** #else
  84:Middlewares/ST/STM32_USB_Host_Library/Core/Src/usbh_core.c **** static void USBH_Process_OS(void *argument);
  85:Middlewares/ST/STM32_USB_Host_Library/Core/Src/usbh_core.c **** #endif
  86:Middlewares/ST/STM32_USB_Host_Library/Core/Src/usbh_core.c **** #endif
  87:Middlewares/ST/STM32_USB_Host_Library/Core/Src/usbh_core.c **** 
  88:Middlewares/ST/STM32_USB_Host_Library/Core/Src/usbh_core.c **** 
  89:Middlewares/ST/STM32_USB_Host_Library/Core/Src/usbh_core.c **** /**
ARM GAS  C:\Users\User\AppData\Local\Temp\ccMoYMA0.s 			page 3


  90:Middlewares/ST/STM32_USB_Host_Library/Core/Src/usbh_core.c ****   * @brief  HCD_Init
  91:Middlewares/ST/STM32_USB_Host_Library/Core/Src/usbh_core.c ****   *         Initialize the HOST Core.
  92:Middlewares/ST/STM32_USB_Host_Library/Core/Src/usbh_core.c ****   * @param  phost: Host Handle
  93:Middlewares/ST/STM32_USB_Host_Library/Core/Src/usbh_core.c ****   * @param  pUsrFunc: User Callback
  94:Middlewares/ST/STM32_USB_Host_Library/Core/Src/usbh_core.c ****   * @retval USBH Status
  95:Middlewares/ST/STM32_USB_Host_Library/Core/Src/usbh_core.c ****   */
  96:Middlewares/ST/STM32_USB_Host_Library/Core/Src/usbh_core.c **** USBH_StatusTypeDef  USBH_Init(USBH_HandleTypeDef *phost,
  97:Middlewares/ST/STM32_USB_Host_Library/Core/Src/usbh_core.c ****                               void (*pUsrFunc)(USBH_HandleTypeDef *phost,
  98:Middlewares/ST/STM32_USB_Host_Library/Core/Src/usbh_core.c ****                               uint8_t id), uint8_t id)
  99:Middlewares/ST/STM32_USB_Host_Library/Core/Src/usbh_core.c **** {
 100:Middlewares/ST/STM32_USB_Host_Library/Core/Src/usbh_core.c ****   /* Check whether the USB Host handle is valid */
 101:Middlewares/ST/STM32_USB_Host_Library/Core/Src/usbh_core.c ****   if (phost == NULL)
 102:Middlewares/ST/STM32_USB_Host_Library/Core/Src/usbh_core.c ****   {
 103:Middlewares/ST/STM32_USB_Host_Library/Core/Src/usbh_core.c ****     USBH_ErrLog("Invalid Host handle");
 104:Middlewares/ST/STM32_USB_Host_Library/Core/Src/usbh_core.c ****     return USBH_FAIL;
 105:Middlewares/ST/STM32_USB_Host_Library/Core/Src/usbh_core.c ****   }
 106:Middlewares/ST/STM32_USB_Host_Library/Core/Src/usbh_core.c **** 
 107:Middlewares/ST/STM32_USB_Host_Library/Core/Src/usbh_core.c ****   /* Set DRiver ID */
 108:Middlewares/ST/STM32_USB_Host_Library/Core/Src/usbh_core.c ****   phost->id = id;
 109:Middlewares/ST/STM32_USB_Host_Library/Core/Src/usbh_core.c **** 
 110:Middlewares/ST/STM32_USB_Host_Library/Core/Src/usbh_core.c ****   /* Unlink class*/
 111:Middlewares/ST/STM32_USB_Host_Library/Core/Src/usbh_core.c ****   phost->pActiveClass = NULL;
 112:Middlewares/ST/STM32_USB_Host_Library/Core/Src/usbh_core.c ****   phost->ClassNumber = 0U;
 113:Middlewares/ST/STM32_USB_Host_Library/Core/Src/usbh_core.c **** 
 114:Middlewares/ST/STM32_USB_Host_Library/Core/Src/usbh_core.c ****   /* Restore default states and prepare EP0 */
 115:Middlewares/ST/STM32_USB_Host_Library/Core/Src/usbh_core.c ****   DeInitStateMachine(phost);
 116:Middlewares/ST/STM32_USB_Host_Library/Core/Src/usbh_core.c **** 
 117:Middlewares/ST/STM32_USB_Host_Library/Core/Src/usbh_core.c ****   /* Restore default Device connection states */
 118:Middlewares/ST/STM32_USB_Host_Library/Core/Src/usbh_core.c ****   phost->device.PortEnabled = 0U;
 119:Middlewares/ST/STM32_USB_Host_Library/Core/Src/usbh_core.c ****   phost->device.is_connected = 0U;
 120:Middlewares/ST/STM32_USB_Host_Library/Core/Src/usbh_core.c ****   phost->device.is_disconnected = 0U;
 121:Middlewares/ST/STM32_USB_Host_Library/Core/Src/usbh_core.c ****   phost->device.is_ReEnumerated = 0U;
 122:Middlewares/ST/STM32_USB_Host_Library/Core/Src/usbh_core.c **** 
 123:Middlewares/ST/STM32_USB_Host_Library/Core/Src/usbh_core.c ****   /* Assign User process */
 124:Middlewares/ST/STM32_USB_Host_Library/Core/Src/usbh_core.c ****   if (pUsrFunc != NULL)
 125:Middlewares/ST/STM32_USB_Host_Library/Core/Src/usbh_core.c ****   {
 126:Middlewares/ST/STM32_USB_Host_Library/Core/Src/usbh_core.c ****     phost->pUser = pUsrFunc;
 127:Middlewares/ST/STM32_USB_Host_Library/Core/Src/usbh_core.c ****   }
 128:Middlewares/ST/STM32_USB_Host_Library/Core/Src/usbh_core.c **** 
 129:Middlewares/ST/STM32_USB_Host_Library/Core/Src/usbh_core.c **** #if (USBH_USE_OS == 1U)
 130:Middlewares/ST/STM32_USB_Host_Library/Core/Src/usbh_core.c **** #if (osCMSIS < 0x20000U)
 131:Middlewares/ST/STM32_USB_Host_Library/Core/Src/usbh_core.c **** 
 132:Middlewares/ST/STM32_USB_Host_Library/Core/Src/usbh_core.c ****   /* Create USB Host Queue */
 133:Middlewares/ST/STM32_USB_Host_Library/Core/Src/usbh_core.c ****   osMessageQDef(USBH_Queue, MSGQUEUE_OBJECTS, uint16_t);
 134:Middlewares/ST/STM32_USB_Host_Library/Core/Src/usbh_core.c ****   phost->os_event = osMessageCreate(osMessageQ(USBH_Queue), NULL);
 135:Middlewares/ST/STM32_USB_Host_Library/Core/Src/usbh_core.c **** 
 136:Middlewares/ST/STM32_USB_Host_Library/Core/Src/usbh_core.c ****   /* Create USB Host Task */
 137:Middlewares/ST/STM32_USB_Host_Library/Core/Src/usbh_core.c **** #if defined (USBH_PROCESS_STACK_SIZE)
 138:Middlewares/ST/STM32_USB_Host_Library/Core/Src/usbh_core.c ****   osThreadDef(USBH_Thread, USBH_Process_OS, USBH_PROCESS_PRIO, 0U, USBH_PROCESS_STACK_SIZE);
 139:Middlewares/ST/STM32_USB_Host_Library/Core/Src/usbh_core.c **** #else
 140:Middlewares/ST/STM32_USB_Host_Library/Core/Src/usbh_core.c ****   osThreadDef(USBH_Thread, USBH_Process_OS, USBH_PROCESS_PRIO, 0U, 8U * configMINIMAL_STACK_SIZE);
 141:Middlewares/ST/STM32_USB_Host_Library/Core/Src/usbh_core.c **** #endif /* defined (USBH_PROCESS_STACK_SIZE) */
 142:Middlewares/ST/STM32_USB_Host_Library/Core/Src/usbh_core.c **** 
 143:Middlewares/ST/STM32_USB_Host_Library/Core/Src/usbh_core.c ****   phost->thread = osThreadCreate(osThread(USBH_Thread), phost);
 144:Middlewares/ST/STM32_USB_Host_Library/Core/Src/usbh_core.c **** 
 145:Middlewares/ST/STM32_USB_Host_Library/Core/Src/usbh_core.c **** #else
 146:Middlewares/ST/STM32_USB_Host_Library/Core/Src/usbh_core.c **** 
ARM GAS  C:\Users\User\AppData\Local\Temp\ccMoYMA0.s 			page 4


 147:Middlewares/ST/STM32_USB_Host_Library/Core/Src/usbh_core.c ****   /* Create USB Host Queue */
 148:Middlewares/ST/STM32_USB_Host_Library/Core/Src/usbh_core.c ****   phost->os_event = osMessageQueueNew(MSGQUEUE_OBJECTS, sizeof(uint32_t), NULL);
 149:Middlewares/ST/STM32_USB_Host_Library/Core/Src/usbh_core.c **** 
 150:Middlewares/ST/STM32_USB_Host_Library/Core/Src/usbh_core.c ****   /* Create USB Host Task */
 151:Middlewares/ST/STM32_USB_Host_Library/Core/Src/usbh_core.c ****   USBH_Thread_Atrr.name = "USBH_Queue";
 152:Middlewares/ST/STM32_USB_Host_Library/Core/Src/usbh_core.c **** 
 153:Middlewares/ST/STM32_USB_Host_Library/Core/Src/usbh_core.c **** #if defined (USBH_PROCESS_STACK_SIZE)
 154:Middlewares/ST/STM32_USB_Host_Library/Core/Src/usbh_core.c ****   USBH_Thread_Atrr.stack_size = USBH_PROCESS_STACK_SIZE;
 155:Middlewares/ST/STM32_USB_Host_Library/Core/Src/usbh_core.c **** #else
 156:Middlewares/ST/STM32_USB_Host_Library/Core/Src/usbh_core.c ****   USBH_Thread_Atrr.stack_size = (8U * configMINIMAL_STACK_SIZE);
 157:Middlewares/ST/STM32_USB_Host_Library/Core/Src/usbh_core.c **** #endif /* defined (USBH_PROCESS_STACK_SIZE) */
 158:Middlewares/ST/STM32_USB_Host_Library/Core/Src/usbh_core.c **** 
 159:Middlewares/ST/STM32_USB_Host_Library/Core/Src/usbh_core.c ****   USBH_Thread_Atrr.priority = USBH_PROCESS_PRIO;
 160:Middlewares/ST/STM32_USB_Host_Library/Core/Src/usbh_core.c ****   phost->thread = osThreadNew(USBH_Process_OS, phost, &USBH_Thread_Atrr);
 161:Middlewares/ST/STM32_USB_Host_Library/Core/Src/usbh_core.c **** 
 162:Middlewares/ST/STM32_USB_Host_Library/Core/Src/usbh_core.c **** #endif /* (osCMSIS < 0x20000U) */
 163:Middlewares/ST/STM32_USB_Host_Library/Core/Src/usbh_core.c **** #endif /* (USBH_USE_OS == 1U) */
 164:Middlewares/ST/STM32_USB_Host_Library/Core/Src/usbh_core.c **** 
 165:Middlewares/ST/STM32_USB_Host_Library/Core/Src/usbh_core.c ****   /* Initialize low level driver */
 166:Middlewares/ST/STM32_USB_Host_Library/Core/Src/usbh_core.c ****   USBH_LL_Init(phost);
 167:Middlewares/ST/STM32_USB_Host_Library/Core/Src/usbh_core.c **** 
 168:Middlewares/ST/STM32_USB_Host_Library/Core/Src/usbh_core.c ****   return USBH_OK;
 169:Middlewares/ST/STM32_USB_Host_Library/Core/Src/usbh_core.c **** }
 170:Middlewares/ST/STM32_USB_Host_Library/Core/Src/usbh_core.c **** 
 171:Middlewares/ST/STM32_USB_Host_Library/Core/Src/usbh_core.c **** 
 172:Middlewares/ST/STM32_USB_Host_Library/Core/Src/usbh_core.c **** /**
 173:Middlewares/ST/STM32_USB_Host_Library/Core/Src/usbh_core.c ****   * @brief  HCD_Init
 174:Middlewares/ST/STM32_USB_Host_Library/Core/Src/usbh_core.c ****   *         De-Initialize the Host portion of the driver.
 175:Middlewares/ST/STM32_USB_Host_Library/Core/Src/usbh_core.c ****   * @param  phost: Host Handle
 176:Middlewares/ST/STM32_USB_Host_Library/Core/Src/usbh_core.c ****   * @retval USBH Status
 177:Middlewares/ST/STM32_USB_Host_Library/Core/Src/usbh_core.c ****   */
 178:Middlewares/ST/STM32_USB_Host_Library/Core/Src/usbh_core.c **** USBH_StatusTypeDef USBH_DeInit(USBH_HandleTypeDef *phost)
 179:Middlewares/ST/STM32_USB_Host_Library/Core/Src/usbh_core.c **** {
 180:Middlewares/ST/STM32_USB_Host_Library/Core/Src/usbh_core.c ****   DeInitStateMachine(phost);
 181:Middlewares/ST/STM32_USB_Host_Library/Core/Src/usbh_core.c **** 
 182:Middlewares/ST/STM32_USB_Host_Library/Core/Src/usbh_core.c ****   /* Restore default Device connection states */
 183:Middlewares/ST/STM32_USB_Host_Library/Core/Src/usbh_core.c ****   phost->device.PortEnabled = 0U;
 184:Middlewares/ST/STM32_USB_Host_Library/Core/Src/usbh_core.c ****   phost->device.is_connected = 0U;
 185:Middlewares/ST/STM32_USB_Host_Library/Core/Src/usbh_core.c ****   phost->device.is_disconnected = 0U;
 186:Middlewares/ST/STM32_USB_Host_Library/Core/Src/usbh_core.c ****   phost->device.is_ReEnumerated = 0U;
 187:Middlewares/ST/STM32_USB_Host_Library/Core/Src/usbh_core.c ****   phost->device.RstCnt = 0U;
 188:Middlewares/ST/STM32_USB_Host_Library/Core/Src/usbh_core.c ****   phost->device.EnumCnt = 0U;
 189:Middlewares/ST/STM32_USB_Host_Library/Core/Src/usbh_core.c **** 
 190:Middlewares/ST/STM32_USB_Host_Library/Core/Src/usbh_core.c ****   if (phost->pData != NULL)
 191:Middlewares/ST/STM32_USB_Host_Library/Core/Src/usbh_core.c ****   {
 192:Middlewares/ST/STM32_USB_Host_Library/Core/Src/usbh_core.c ****     USBH_LL_Stop(phost);
 193:Middlewares/ST/STM32_USB_Host_Library/Core/Src/usbh_core.c ****   }
 194:Middlewares/ST/STM32_USB_Host_Library/Core/Src/usbh_core.c **** 
 195:Middlewares/ST/STM32_USB_Host_Library/Core/Src/usbh_core.c ****   return USBH_OK;
 196:Middlewares/ST/STM32_USB_Host_Library/Core/Src/usbh_core.c **** }
 197:Middlewares/ST/STM32_USB_Host_Library/Core/Src/usbh_core.c **** 
 198:Middlewares/ST/STM32_USB_Host_Library/Core/Src/usbh_core.c **** 
 199:Middlewares/ST/STM32_USB_Host_Library/Core/Src/usbh_core.c **** /**
 200:Middlewares/ST/STM32_USB_Host_Library/Core/Src/usbh_core.c ****   * @brief  DeInitStateMachine
 201:Middlewares/ST/STM32_USB_Host_Library/Core/Src/usbh_core.c ****   *         De-Initialize the Host state machine.
 202:Middlewares/ST/STM32_USB_Host_Library/Core/Src/usbh_core.c ****   * @param  phost: Host Handle
 203:Middlewares/ST/STM32_USB_Host_Library/Core/Src/usbh_core.c ****   * @retval USBH Status
ARM GAS  C:\Users\User\AppData\Local\Temp\ccMoYMA0.s 			page 5


 204:Middlewares/ST/STM32_USB_Host_Library/Core/Src/usbh_core.c ****   */
 205:Middlewares/ST/STM32_USB_Host_Library/Core/Src/usbh_core.c **** static USBH_StatusTypeDef DeInitStateMachine(USBH_HandleTypeDef *phost)
 206:Middlewares/ST/STM32_USB_Host_Library/Core/Src/usbh_core.c **** {
  27              		.loc 1 206 0
  28              		.cfi_startproc
  29              		@ args = 0, pretend = 0, frame = 0
  30              		@ frame_needed = 0, uses_anonymous_args = 0
  31              		@ link register save eliminated.
  32              	.LVL0:
 207:Middlewares/ST/STM32_USB_Host_Library/Core/Src/usbh_core.c ****   uint32_t i = 0U;
 208:Middlewares/ST/STM32_USB_Host_Library/Core/Src/usbh_core.c **** 
 209:Middlewares/ST/STM32_USB_Host_Library/Core/Src/usbh_core.c ****   /* Clear Pipes flags*/
 210:Middlewares/ST/STM32_USB_Host_Library/Core/Src/usbh_core.c ****   for (i = 0U; i < USBH_MAX_PIPES_NBR; i++)
  33              		.loc 1 210 0
  34 0000 0023     		movs	r3, #0
  35 0002 06E0     		b	.L2
  36              	.LVL1:
  37              	.L3:
 211:Middlewares/ST/STM32_USB_Host_Library/Core/Src/usbh_core.c ****   {
 212:Middlewares/ST/STM32_USB_Host_Library/Core/Src/usbh_core.c ****     phost->Pipes[i] = 0U;
  38              		.loc 1 212 0 discriminator 3
  39 0004 03F1E002 		add	r2, r3, #224
  40 0008 00EB8202 		add	r2, r0, r2, lsl #2
  41 000c 0021     		movs	r1, #0
  42 000e 5160     		str	r1, [r2, #4]
 210:Middlewares/ST/STM32_USB_Host_Library/Core/Src/usbh_core.c ****   {
  43              		.loc 1 210 0 discriminator 3
  44 0010 0133     		adds	r3, r3, #1
  45              	.LVL2:
  46              	.L2:
 210:Middlewares/ST/STM32_USB_Host_Library/Core/Src/usbh_core.c ****   {
  47              		.loc 1 210 0 is_stmt 0 discriminator 1
  48 0012 0E2B     		cmp	r3, #14
  49 0014 F6D9     		bls	.L3
 213:Middlewares/ST/STM32_USB_Host_Library/Core/Src/usbh_core.c ****   }
 214:Middlewares/ST/STM32_USB_Host_Library/Core/Src/usbh_core.c **** 
 215:Middlewares/ST/STM32_USB_Host_Library/Core/Src/usbh_core.c ****   for (i = 0U; i < USBH_MAX_DATA_BUFFER; i++)
  50              		.loc 1 215 0 is_stmt 1
  51 0016 0023     		movs	r3, #0
  52              	.LVL3:
  53 0018 04E0     		b	.L4
  54              	.LVL4:
  55              	.L5:
 216:Middlewares/ST/STM32_USB_Host_Library/Core/Src/usbh_core.c ****   {
 217:Middlewares/ST/STM32_USB_Host_Library/Core/Src/usbh_core.c ****     phost->device.Data[i] = 0U;
  56              		.loc 1 217 0 discriminator 3
  57 001a C218     		adds	r2, r0, r3
  58 001c 0021     		movs	r1, #0
  59 001e 82F81C11 		strb	r1, [r2, #284]
 215:Middlewares/ST/STM32_USB_Host_Library/Core/Src/usbh_core.c ****   {
  60              		.loc 1 215 0 discriminator 3
  61 0022 0133     		adds	r3, r3, #1
  62              	.LVL5:
  63              	.L4:
 215:Middlewares/ST/STM32_USB_Host_Library/Core/Src/usbh_core.c ****   {
  64              		.loc 1 215 0 is_stmt 0 discriminator 1
  65 0024 B3F5007F 		cmp	r3, #512
ARM GAS  C:\Users\User\AppData\Local\Temp\ccMoYMA0.s 			page 6


  66 0028 F7D3     		bcc	.L5
 218:Middlewares/ST/STM32_USB_Host_Library/Core/Src/usbh_core.c ****   }
 219:Middlewares/ST/STM32_USB_Host_Library/Core/Src/usbh_core.c **** 
 220:Middlewares/ST/STM32_USB_Host_Library/Core/Src/usbh_core.c ****   phost->gState = HOST_IDLE;
  67              		.loc 1 220 0 is_stmt 1
  68 002a 0023     		movs	r3, #0
  69              	.LVL6:
  70 002c 0370     		strb	r3, [r0]
 221:Middlewares/ST/STM32_USB_Host_Library/Core/Src/usbh_core.c ****   phost->EnumState = ENUM_IDLE;
  71              		.loc 1 221 0
  72 002e 4370     		strb	r3, [r0, #1]
 222:Middlewares/ST/STM32_USB_Host_Library/Core/Src/usbh_core.c ****   phost->RequestState = CMD_SEND;
  73              		.loc 1 222 0
  74 0030 0122     		movs	r2, #1
  75 0032 8270     		strb	r2, [r0, #2]
 223:Middlewares/ST/STM32_USB_Host_Library/Core/Src/usbh_core.c ****   phost->Timer = 0U;
  76              		.loc 1 223 0
  77 0034 C0F8C433 		str	r3, [r0, #964]
 224:Middlewares/ST/STM32_USB_Host_Library/Core/Src/usbh_core.c **** 
 225:Middlewares/ST/STM32_USB_Host_Library/Core/Src/usbh_core.c ****   phost->Control.state = CTRL_SETUP;
  78              		.loc 1 225 0
  79 0038 0276     		strb	r2, [r0, #24]
 226:Middlewares/ST/STM32_USB_Host_Library/Core/Src/usbh_core.c ****   phost->Control.pipe_size = USBH_MPS_DEFAULT;
  80              		.loc 1 226 0
  81 003a 4021     		movs	r1, #64
  82 003c 8171     		strb	r1, [r0, #6]
 227:Middlewares/ST/STM32_USB_Host_Library/Core/Src/usbh_core.c ****   phost->Control.errorcount = 0U;
  83              		.loc 1 227 0
  84 003e 4376     		strb	r3, [r0, #25]
 228:Middlewares/ST/STM32_USB_Host_Library/Core/Src/usbh_core.c **** 
 229:Middlewares/ST/STM32_USB_Host_Library/Core/Src/usbh_core.c ****   phost->device.address = USBH_ADDRESS_DEFAULT;
  85              		.loc 1 229 0
  86 0040 80F81C33 		strb	r3, [r0, #796]
 230:Middlewares/ST/STM32_USB_Host_Library/Core/Src/usbh_core.c ****   phost->device.speed = USBH_SPEED_FULL;
  87              		.loc 1 230 0
  88 0044 80F81D23 		strb	r2, [r0, #797]
 231:Middlewares/ST/STM32_USB_Host_Library/Core/Src/usbh_core.c ****   phost->device.RstCnt = 0U;
  89              		.loc 1 231 0
  90 0048 80F81F33 		strb	r3, [r0, #799]
 232:Middlewares/ST/STM32_USB_Host_Library/Core/Src/usbh_core.c ****   phost->device.EnumCnt = 0U;
  91              		.loc 1 232 0
  92 004c 80F81E33 		strb	r3, [r0, #798]
 233:Middlewares/ST/STM32_USB_Host_Library/Core/Src/usbh_core.c **** 
 234:Middlewares/ST/STM32_USB_Host_Library/Core/Src/usbh_core.c ****   return USBH_OK;
 235:Middlewares/ST/STM32_USB_Host_Library/Core/Src/usbh_core.c **** }
  93              		.loc 1 235 0
  94 0050 1846     		mov	r0, r3
  95              	.LVL7:
  96 0052 7047     		bx	lr
  97              		.cfi_endproc
  98              	.LFE135:
 100              		.section	.text.USBH_HandleSof,"ax",%progbits
 101              		.align	1
 102              		.syntax unified
 103              		.thumb
 104              		.thumb_func
 105              		.fpu fpv4-sp-d16
ARM GAS  C:\Users\User\AppData\Local\Temp\ccMoYMA0.s 			page 7


 107              	USBH_HandleSof:
 108              	.LFB148:
 236:Middlewares/ST/STM32_USB_Host_Library/Core/Src/usbh_core.c **** 
 237:Middlewares/ST/STM32_USB_Host_Library/Core/Src/usbh_core.c **** 
 238:Middlewares/ST/STM32_USB_Host_Library/Core/Src/usbh_core.c **** /**
 239:Middlewares/ST/STM32_USB_Host_Library/Core/Src/usbh_core.c ****   * @brief  USBH_RegisterClass
 240:Middlewares/ST/STM32_USB_Host_Library/Core/Src/usbh_core.c ****   *         Link class driver to Host Core.
 241:Middlewares/ST/STM32_USB_Host_Library/Core/Src/usbh_core.c ****   * @param  phost : Host Handle
 242:Middlewares/ST/STM32_USB_Host_Library/Core/Src/usbh_core.c ****   * @param  pclass: Class handle
 243:Middlewares/ST/STM32_USB_Host_Library/Core/Src/usbh_core.c ****   * @retval USBH Status
 244:Middlewares/ST/STM32_USB_Host_Library/Core/Src/usbh_core.c ****   */
 245:Middlewares/ST/STM32_USB_Host_Library/Core/Src/usbh_core.c **** USBH_StatusTypeDef USBH_RegisterClass(USBH_HandleTypeDef *phost, USBH_ClassTypeDef *pclass)
 246:Middlewares/ST/STM32_USB_Host_Library/Core/Src/usbh_core.c **** {
 247:Middlewares/ST/STM32_USB_Host_Library/Core/Src/usbh_core.c ****   USBH_StatusTypeDef status = USBH_OK;
 248:Middlewares/ST/STM32_USB_Host_Library/Core/Src/usbh_core.c **** 
 249:Middlewares/ST/STM32_USB_Host_Library/Core/Src/usbh_core.c ****   if (pclass != NULL)
 250:Middlewares/ST/STM32_USB_Host_Library/Core/Src/usbh_core.c ****   {
 251:Middlewares/ST/STM32_USB_Host_Library/Core/Src/usbh_core.c ****     if (phost->ClassNumber < USBH_MAX_NUM_SUPPORTED_CLASS)
 252:Middlewares/ST/STM32_USB_Host_Library/Core/Src/usbh_core.c ****     {
 253:Middlewares/ST/STM32_USB_Host_Library/Core/Src/usbh_core.c ****       /* link the class to the USB Host handle */
 254:Middlewares/ST/STM32_USB_Host_Library/Core/Src/usbh_core.c ****       phost->pClass[phost->ClassNumber++] = pclass;
 255:Middlewares/ST/STM32_USB_Host_Library/Core/Src/usbh_core.c ****       status = USBH_OK;
 256:Middlewares/ST/STM32_USB_Host_Library/Core/Src/usbh_core.c ****     }
 257:Middlewares/ST/STM32_USB_Host_Library/Core/Src/usbh_core.c ****     else
 258:Middlewares/ST/STM32_USB_Host_Library/Core/Src/usbh_core.c ****     {
 259:Middlewares/ST/STM32_USB_Host_Library/Core/Src/usbh_core.c ****       USBH_ErrLog("Max Class Number reached");
 260:Middlewares/ST/STM32_USB_Host_Library/Core/Src/usbh_core.c ****       status = USBH_FAIL;
 261:Middlewares/ST/STM32_USB_Host_Library/Core/Src/usbh_core.c ****     }
 262:Middlewares/ST/STM32_USB_Host_Library/Core/Src/usbh_core.c ****   }
 263:Middlewares/ST/STM32_USB_Host_Library/Core/Src/usbh_core.c ****   else
 264:Middlewares/ST/STM32_USB_Host_Library/Core/Src/usbh_core.c ****   {
 265:Middlewares/ST/STM32_USB_Host_Library/Core/Src/usbh_core.c ****     USBH_ErrLog("Invalid Class handle");
 266:Middlewares/ST/STM32_USB_Host_Library/Core/Src/usbh_core.c ****     status = USBH_FAIL;
 267:Middlewares/ST/STM32_USB_Host_Library/Core/Src/usbh_core.c ****   }
 268:Middlewares/ST/STM32_USB_Host_Library/Core/Src/usbh_core.c **** 
 269:Middlewares/ST/STM32_USB_Host_Library/Core/Src/usbh_core.c ****   return status;
 270:Middlewares/ST/STM32_USB_Host_Library/Core/Src/usbh_core.c **** }
 271:Middlewares/ST/STM32_USB_Host_Library/Core/Src/usbh_core.c **** 
 272:Middlewares/ST/STM32_USB_Host_Library/Core/Src/usbh_core.c **** 
 273:Middlewares/ST/STM32_USB_Host_Library/Core/Src/usbh_core.c **** /**
 274:Middlewares/ST/STM32_USB_Host_Library/Core/Src/usbh_core.c ****   * @brief  USBH_SelectInterface
 275:Middlewares/ST/STM32_USB_Host_Library/Core/Src/usbh_core.c ****   *         Select current interface.
 276:Middlewares/ST/STM32_USB_Host_Library/Core/Src/usbh_core.c ****   * @param  phost: Host Handle
 277:Middlewares/ST/STM32_USB_Host_Library/Core/Src/usbh_core.c ****   * @param  interface: Interface number
 278:Middlewares/ST/STM32_USB_Host_Library/Core/Src/usbh_core.c ****   * @retval USBH Status
 279:Middlewares/ST/STM32_USB_Host_Library/Core/Src/usbh_core.c ****   */
 280:Middlewares/ST/STM32_USB_Host_Library/Core/Src/usbh_core.c **** USBH_StatusTypeDef USBH_SelectInterface(USBH_HandleTypeDef *phost, uint8_t interface)
 281:Middlewares/ST/STM32_USB_Host_Library/Core/Src/usbh_core.c **** {
 282:Middlewares/ST/STM32_USB_Host_Library/Core/Src/usbh_core.c ****   USBH_StatusTypeDef status = USBH_OK;
 283:Middlewares/ST/STM32_USB_Host_Library/Core/Src/usbh_core.c **** 
 284:Middlewares/ST/STM32_USB_Host_Library/Core/Src/usbh_core.c ****   if (interface < phost->device.CfgDesc.bNumInterfaces)
 285:Middlewares/ST/STM32_USB_Host_Library/Core/Src/usbh_core.c ****   {
 286:Middlewares/ST/STM32_USB_Host_Library/Core/Src/usbh_core.c ****     phost->device.current_interface = interface;
 287:Middlewares/ST/STM32_USB_Host_Library/Core/Src/usbh_core.c ****     USBH_UsrLog("Switching to Interface (#%d)", interface);
 288:Middlewares/ST/STM32_USB_Host_Library/Core/Src/usbh_core.c ****     USBH_UsrLog("Class    : %xh", phost->device.CfgDesc.Itf_Desc[interface].bInterfaceClass);
 289:Middlewares/ST/STM32_USB_Host_Library/Core/Src/usbh_core.c ****     USBH_UsrLog("SubClass : %xh", phost->device.CfgDesc.Itf_Desc[interface].bInterfaceSubClass);
 290:Middlewares/ST/STM32_USB_Host_Library/Core/Src/usbh_core.c ****     USBH_UsrLog("Protocol : %xh", phost->device.CfgDesc.Itf_Desc[interface].bInterfaceProtocol);
ARM GAS  C:\Users\User\AppData\Local\Temp\ccMoYMA0.s 			page 8


 291:Middlewares/ST/STM32_USB_Host_Library/Core/Src/usbh_core.c ****   }
 292:Middlewares/ST/STM32_USB_Host_Library/Core/Src/usbh_core.c ****   else
 293:Middlewares/ST/STM32_USB_Host_Library/Core/Src/usbh_core.c ****   {
 294:Middlewares/ST/STM32_USB_Host_Library/Core/Src/usbh_core.c ****     USBH_ErrLog("Cannot Select This Interface.");
 295:Middlewares/ST/STM32_USB_Host_Library/Core/Src/usbh_core.c ****     status = USBH_FAIL;
 296:Middlewares/ST/STM32_USB_Host_Library/Core/Src/usbh_core.c ****   }
 297:Middlewares/ST/STM32_USB_Host_Library/Core/Src/usbh_core.c **** 
 298:Middlewares/ST/STM32_USB_Host_Library/Core/Src/usbh_core.c ****   return status;
 299:Middlewares/ST/STM32_USB_Host_Library/Core/Src/usbh_core.c **** }
 300:Middlewares/ST/STM32_USB_Host_Library/Core/Src/usbh_core.c **** 
 301:Middlewares/ST/STM32_USB_Host_Library/Core/Src/usbh_core.c **** 
 302:Middlewares/ST/STM32_USB_Host_Library/Core/Src/usbh_core.c **** /**
 303:Middlewares/ST/STM32_USB_Host_Library/Core/Src/usbh_core.c ****   * @brief  USBH_GetActiveClass
 304:Middlewares/ST/STM32_USB_Host_Library/Core/Src/usbh_core.c ****   *         Return Device Class.
 305:Middlewares/ST/STM32_USB_Host_Library/Core/Src/usbh_core.c ****   * @param  phost: Host Handle
 306:Middlewares/ST/STM32_USB_Host_Library/Core/Src/usbh_core.c ****   * @param  interface: Interface index
 307:Middlewares/ST/STM32_USB_Host_Library/Core/Src/usbh_core.c ****   * @retval Class Code
 308:Middlewares/ST/STM32_USB_Host_Library/Core/Src/usbh_core.c ****   */
 309:Middlewares/ST/STM32_USB_Host_Library/Core/Src/usbh_core.c **** uint8_t USBH_GetActiveClass(USBH_HandleTypeDef *phost)
 310:Middlewares/ST/STM32_USB_Host_Library/Core/Src/usbh_core.c **** {
 311:Middlewares/ST/STM32_USB_Host_Library/Core/Src/usbh_core.c ****   return (phost->device.CfgDesc.Itf_Desc[0].bInterfaceClass);
 312:Middlewares/ST/STM32_USB_Host_Library/Core/Src/usbh_core.c **** }
 313:Middlewares/ST/STM32_USB_Host_Library/Core/Src/usbh_core.c **** 
 314:Middlewares/ST/STM32_USB_Host_Library/Core/Src/usbh_core.c **** 
 315:Middlewares/ST/STM32_USB_Host_Library/Core/Src/usbh_core.c **** /**
 316:Middlewares/ST/STM32_USB_Host_Library/Core/Src/usbh_core.c ****   * @brief  USBH_FindInterface
 317:Middlewares/ST/STM32_USB_Host_Library/Core/Src/usbh_core.c ****   *         Find the interface index for a specific class.
 318:Middlewares/ST/STM32_USB_Host_Library/Core/Src/usbh_core.c ****   * @param  phost: Host Handle
 319:Middlewares/ST/STM32_USB_Host_Library/Core/Src/usbh_core.c ****   * @param  Class: Class code
 320:Middlewares/ST/STM32_USB_Host_Library/Core/Src/usbh_core.c ****   * @param  SubClass: SubClass code
 321:Middlewares/ST/STM32_USB_Host_Library/Core/Src/usbh_core.c ****   * @param  Protocol: Protocol code
 322:Middlewares/ST/STM32_USB_Host_Library/Core/Src/usbh_core.c ****   * @retval interface index in the configuration structure
 323:Middlewares/ST/STM32_USB_Host_Library/Core/Src/usbh_core.c ****   * @note : (1)interface index 0xFF means interface index not found
 324:Middlewares/ST/STM32_USB_Host_Library/Core/Src/usbh_core.c ****   */
 325:Middlewares/ST/STM32_USB_Host_Library/Core/Src/usbh_core.c **** uint8_t  USBH_FindInterface(USBH_HandleTypeDef *phost, uint8_t Class, uint8_t SubClass, uint8_t Pro
 326:Middlewares/ST/STM32_USB_Host_Library/Core/Src/usbh_core.c **** {
 327:Middlewares/ST/STM32_USB_Host_Library/Core/Src/usbh_core.c ****   USBH_InterfaceDescTypeDef *pif;
 328:Middlewares/ST/STM32_USB_Host_Library/Core/Src/usbh_core.c ****   USBH_CfgDescTypeDef *pcfg;
 329:Middlewares/ST/STM32_USB_Host_Library/Core/Src/usbh_core.c ****   uint8_t if_ix = 0U;
 330:Middlewares/ST/STM32_USB_Host_Library/Core/Src/usbh_core.c **** 
 331:Middlewares/ST/STM32_USB_Host_Library/Core/Src/usbh_core.c ****   pif = (USBH_InterfaceDescTypeDef *)0;
 332:Middlewares/ST/STM32_USB_Host_Library/Core/Src/usbh_core.c ****   pcfg = &phost->device.CfgDesc;
 333:Middlewares/ST/STM32_USB_Host_Library/Core/Src/usbh_core.c **** 
 334:Middlewares/ST/STM32_USB_Host_Library/Core/Src/usbh_core.c ****   while (if_ix < USBH_MAX_NUM_INTERFACES)
 335:Middlewares/ST/STM32_USB_Host_Library/Core/Src/usbh_core.c ****   {
 336:Middlewares/ST/STM32_USB_Host_Library/Core/Src/usbh_core.c ****     pif = &pcfg->Itf_Desc[if_ix];
 337:Middlewares/ST/STM32_USB_Host_Library/Core/Src/usbh_core.c ****     if (((pif->bInterfaceClass == Class) || (Class == 0xFFU)) &&
 338:Middlewares/ST/STM32_USB_Host_Library/Core/Src/usbh_core.c ****         ((pif->bInterfaceSubClass == SubClass) || (SubClass == 0xFFU)) &&
 339:Middlewares/ST/STM32_USB_Host_Library/Core/Src/usbh_core.c ****         ((pif->bInterfaceProtocol == Protocol) || (Protocol == 0xFFU)))
 340:Middlewares/ST/STM32_USB_Host_Library/Core/Src/usbh_core.c ****     {
 341:Middlewares/ST/STM32_USB_Host_Library/Core/Src/usbh_core.c ****       return  if_ix;
 342:Middlewares/ST/STM32_USB_Host_Library/Core/Src/usbh_core.c ****     }
 343:Middlewares/ST/STM32_USB_Host_Library/Core/Src/usbh_core.c ****     if_ix++;
 344:Middlewares/ST/STM32_USB_Host_Library/Core/Src/usbh_core.c ****   }
 345:Middlewares/ST/STM32_USB_Host_Library/Core/Src/usbh_core.c ****   return 0xFFU;
 346:Middlewares/ST/STM32_USB_Host_Library/Core/Src/usbh_core.c **** }
 347:Middlewares/ST/STM32_USB_Host_Library/Core/Src/usbh_core.c **** 
ARM GAS  C:\Users\User\AppData\Local\Temp\ccMoYMA0.s 			page 9


 348:Middlewares/ST/STM32_USB_Host_Library/Core/Src/usbh_core.c **** 
 349:Middlewares/ST/STM32_USB_Host_Library/Core/Src/usbh_core.c **** /**
 350:Middlewares/ST/STM32_USB_Host_Library/Core/Src/usbh_core.c ****   * @brief  USBH_FindInterfaceIndex
 351:Middlewares/ST/STM32_USB_Host_Library/Core/Src/usbh_core.c ****   *         Find the interface index for a specific class interface and alternate setting number.
 352:Middlewares/ST/STM32_USB_Host_Library/Core/Src/usbh_core.c ****   * @param  phost: Host Handle
 353:Middlewares/ST/STM32_USB_Host_Library/Core/Src/usbh_core.c ****   * @param  interface_number: interface number
 354:Middlewares/ST/STM32_USB_Host_Library/Core/Src/usbh_core.c ****   * @param  alt_settings    : alternate setting number
 355:Middlewares/ST/STM32_USB_Host_Library/Core/Src/usbh_core.c ****   * @retval interface index in the configuration structure
 356:Middlewares/ST/STM32_USB_Host_Library/Core/Src/usbh_core.c ****   * @note : (1)interface index 0xFF means interface index not found
 357:Middlewares/ST/STM32_USB_Host_Library/Core/Src/usbh_core.c ****   */
 358:Middlewares/ST/STM32_USB_Host_Library/Core/Src/usbh_core.c **** uint8_t  USBH_FindInterfaceIndex(USBH_HandleTypeDef *phost, uint8_t interface_number, uint8_t alt_s
 359:Middlewares/ST/STM32_USB_Host_Library/Core/Src/usbh_core.c **** {
 360:Middlewares/ST/STM32_USB_Host_Library/Core/Src/usbh_core.c ****   USBH_InterfaceDescTypeDef *pif;
 361:Middlewares/ST/STM32_USB_Host_Library/Core/Src/usbh_core.c ****   USBH_CfgDescTypeDef *pcfg;
 362:Middlewares/ST/STM32_USB_Host_Library/Core/Src/usbh_core.c ****   uint8_t if_ix = 0U;
 363:Middlewares/ST/STM32_USB_Host_Library/Core/Src/usbh_core.c **** 
 364:Middlewares/ST/STM32_USB_Host_Library/Core/Src/usbh_core.c ****   pif = (USBH_InterfaceDescTypeDef *)0;
 365:Middlewares/ST/STM32_USB_Host_Library/Core/Src/usbh_core.c ****   pcfg = &phost->device.CfgDesc;
 366:Middlewares/ST/STM32_USB_Host_Library/Core/Src/usbh_core.c **** 
 367:Middlewares/ST/STM32_USB_Host_Library/Core/Src/usbh_core.c ****   while (if_ix < USBH_MAX_NUM_INTERFACES)
 368:Middlewares/ST/STM32_USB_Host_Library/Core/Src/usbh_core.c ****   {
 369:Middlewares/ST/STM32_USB_Host_Library/Core/Src/usbh_core.c ****     pif = &pcfg->Itf_Desc[if_ix];
 370:Middlewares/ST/STM32_USB_Host_Library/Core/Src/usbh_core.c ****     if ((pif->bInterfaceNumber == interface_number) && (pif->bAlternateSetting == alt_settings))
 371:Middlewares/ST/STM32_USB_Host_Library/Core/Src/usbh_core.c ****     {
 372:Middlewares/ST/STM32_USB_Host_Library/Core/Src/usbh_core.c ****       return  if_ix;
 373:Middlewares/ST/STM32_USB_Host_Library/Core/Src/usbh_core.c ****     }
 374:Middlewares/ST/STM32_USB_Host_Library/Core/Src/usbh_core.c ****     if_ix++;
 375:Middlewares/ST/STM32_USB_Host_Library/Core/Src/usbh_core.c ****   }
 376:Middlewares/ST/STM32_USB_Host_Library/Core/Src/usbh_core.c ****   return 0xFFU;
 377:Middlewares/ST/STM32_USB_Host_Library/Core/Src/usbh_core.c **** }
 378:Middlewares/ST/STM32_USB_Host_Library/Core/Src/usbh_core.c **** 
 379:Middlewares/ST/STM32_USB_Host_Library/Core/Src/usbh_core.c **** 
 380:Middlewares/ST/STM32_USB_Host_Library/Core/Src/usbh_core.c **** /**
 381:Middlewares/ST/STM32_USB_Host_Library/Core/Src/usbh_core.c ****   * @brief  USBH_Start
 382:Middlewares/ST/STM32_USB_Host_Library/Core/Src/usbh_core.c ****   *         Start the USB Host Core.
 383:Middlewares/ST/STM32_USB_Host_Library/Core/Src/usbh_core.c ****   * @param  phost: Host Handle
 384:Middlewares/ST/STM32_USB_Host_Library/Core/Src/usbh_core.c ****   * @retval USBH Status
 385:Middlewares/ST/STM32_USB_Host_Library/Core/Src/usbh_core.c ****   */
 386:Middlewares/ST/STM32_USB_Host_Library/Core/Src/usbh_core.c **** USBH_StatusTypeDef  USBH_Start(USBH_HandleTypeDef *phost)
 387:Middlewares/ST/STM32_USB_Host_Library/Core/Src/usbh_core.c **** {
 388:Middlewares/ST/STM32_USB_Host_Library/Core/Src/usbh_core.c ****   /* Start the low level driver  */
 389:Middlewares/ST/STM32_USB_Host_Library/Core/Src/usbh_core.c ****   USBH_LL_Start(phost);
 390:Middlewares/ST/STM32_USB_Host_Library/Core/Src/usbh_core.c **** 
 391:Middlewares/ST/STM32_USB_Host_Library/Core/Src/usbh_core.c ****   /* Activate VBUS on the port */
 392:Middlewares/ST/STM32_USB_Host_Library/Core/Src/usbh_core.c ****   USBH_LL_DriverVBUS(phost, TRUE);
 393:Middlewares/ST/STM32_USB_Host_Library/Core/Src/usbh_core.c **** 
 394:Middlewares/ST/STM32_USB_Host_Library/Core/Src/usbh_core.c ****   return USBH_OK;
 395:Middlewares/ST/STM32_USB_Host_Library/Core/Src/usbh_core.c **** }
 396:Middlewares/ST/STM32_USB_Host_Library/Core/Src/usbh_core.c **** 
 397:Middlewares/ST/STM32_USB_Host_Library/Core/Src/usbh_core.c **** 
 398:Middlewares/ST/STM32_USB_Host_Library/Core/Src/usbh_core.c **** /**
 399:Middlewares/ST/STM32_USB_Host_Library/Core/Src/usbh_core.c ****   * @brief  USBH_Stop
 400:Middlewares/ST/STM32_USB_Host_Library/Core/Src/usbh_core.c ****   *         Stop the USB Host Core.
 401:Middlewares/ST/STM32_USB_Host_Library/Core/Src/usbh_core.c ****   * @param  phost: Host Handle
 402:Middlewares/ST/STM32_USB_Host_Library/Core/Src/usbh_core.c ****   * @retval USBH Status
 403:Middlewares/ST/STM32_USB_Host_Library/Core/Src/usbh_core.c ****   */
 404:Middlewares/ST/STM32_USB_Host_Library/Core/Src/usbh_core.c **** USBH_StatusTypeDef  USBH_Stop(USBH_HandleTypeDef *phost)
ARM GAS  C:\Users\User\AppData\Local\Temp\ccMoYMA0.s 			page 10


 405:Middlewares/ST/STM32_USB_Host_Library/Core/Src/usbh_core.c **** {
 406:Middlewares/ST/STM32_USB_Host_Library/Core/Src/usbh_core.c ****   /* DeActivate VBUS on the port */
 407:Middlewares/ST/STM32_USB_Host_Library/Core/Src/usbh_core.c ****   USBH_LL_DriverVBUS(phost, FALSE);
 408:Middlewares/ST/STM32_USB_Host_Library/Core/Src/usbh_core.c **** 
 409:Middlewares/ST/STM32_USB_Host_Library/Core/Src/usbh_core.c ****   /* Stop and cleanup the low level driver  */
 410:Middlewares/ST/STM32_USB_Host_Library/Core/Src/usbh_core.c ****   USBH_LL_Stop(phost);
 411:Middlewares/ST/STM32_USB_Host_Library/Core/Src/usbh_core.c **** 
 412:Middlewares/ST/STM32_USB_Host_Library/Core/Src/usbh_core.c ****   /* Free Control Pipes */
 413:Middlewares/ST/STM32_USB_Host_Library/Core/Src/usbh_core.c ****   USBH_FreePipe(phost, phost->Control.pipe_in);
 414:Middlewares/ST/STM32_USB_Host_Library/Core/Src/usbh_core.c ****   USBH_FreePipe(phost, phost->Control.pipe_out);
 415:Middlewares/ST/STM32_USB_Host_Library/Core/Src/usbh_core.c **** 
 416:Middlewares/ST/STM32_USB_Host_Library/Core/Src/usbh_core.c ****   return USBH_OK;
 417:Middlewares/ST/STM32_USB_Host_Library/Core/Src/usbh_core.c **** }
 418:Middlewares/ST/STM32_USB_Host_Library/Core/Src/usbh_core.c **** 
 419:Middlewares/ST/STM32_USB_Host_Library/Core/Src/usbh_core.c **** 
 420:Middlewares/ST/STM32_USB_Host_Library/Core/Src/usbh_core.c **** /**
 421:Middlewares/ST/STM32_USB_Host_Library/Core/Src/usbh_core.c ****   * @brief  HCD_ReEnumerate
 422:Middlewares/ST/STM32_USB_Host_Library/Core/Src/usbh_core.c ****   *         Perform a new Enumeration phase.
 423:Middlewares/ST/STM32_USB_Host_Library/Core/Src/usbh_core.c ****   * @param  phost: Host Handle
 424:Middlewares/ST/STM32_USB_Host_Library/Core/Src/usbh_core.c ****   * @retval USBH Status
 425:Middlewares/ST/STM32_USB_Host_Library/Core/Src/usbh_core.c ****   */
 426:Middlewares/ST/STM32_USB_Host_Library/Core/Src/usbh_core.c **** USBH_StatusTypeDef USBH_ReEnumerate(USBH_HandleTypeDef *phost)
 427:Middlewares/ST/STM32_USB_Host_Library/Core/Src/usbh_core.c **** {
 428:Middlewares/ST/STM32_USB_Host_Library/Core/Src/usbh_core.c ****   if (USBH_IsPortEnabled(phost))
 429:Middlewares/ST/STM32_USB_Host_Library/Core/Src/usbh_core.c ****   {
 430:Middlewares/ST/STM32_USB_Host_Library/Core/Src/usbh_core.c ****     phost->device.is_ReEnumerated = 1U;
 431:Middlewares/ST/STM32_USB_Host_Library/Core/Src/usbh_core.c **** 
 432:Middlewares/ST/STM32_USB_Host_Library/Core/Src/usbh_core.c ****     /* Stop Host */
 433:Middlewares/ST/STM32_USB_Host_Library/Core/Src/usbh_core.c ****     USBH_Stop(phost);
 434:Middlewares/ST/STM32_USB_Host_Library/Core/Src/usbh_core.c **** 
 435:Middlewares/ST/STM32_USB_Host_Library/Core/Src/usbh_core.c ****     phost->device.is_disconnected = 1U;
 436:Middlewares/ST/STM32_USB_Host_Library/Core/Src/usbh_core.c ****   }
 437:Middlewares/ST/STM32_USB_Host_Library/Core/Src/usbh_core.c **** 
 438:Middlewares/ST/STM32_USB_Host_Library/Core/Src/usbh_core.c **** #if (USBH_USE_OS == 1U)
 439:Middlewares/ST/STM32_USB_Host_Library/Core/Src/usbh_core.c ****   phost->os_msg = (uint32_t)USBH_PORT_EVENT;
 440:Middlewares/ST/STM32_USB_Host_Library/Core/Src/usbh_core.c **** #if (osCMSIS < 0x20000U)
 441:Middlewares/ST/STM32_USB_Host_Library/Core/Src/usbh_core.c ****   (void)osMessagePut(phost->os_event, phost->os_msg, 0U);
 442:Middlewares/ST/STM32_USB_Host_Library/Core/Src/usbh_core.c **** #else
 443:Middlewares/ST/STM32_USB_Host_Library/Core/Src/usbh_core.c ****   (void)osMessageQueuePut(phost->os_event, &phost->os_msg, 0U, NULL);
 444:Middlewares/ST/STM32_USB_Host_Library/Core/Src/usbh_core.c **** #endif
 445:Middlewares/ST/STM32_USB_Host_Library/Core/Src/usbh_core.c **** #endif
 446:Middlewares/ST/STM32_USB_Host_Library/Core/Src/usbh_core.c **** 
 447:Middlewares/ST/STM32_USB_Host_Library/Core/Src/usbh_core.c ****   return USBH_OK;
 448:Middlewares/ST/STM32_USB_Host_Library/Core/Src/usbh_core.c **** }
 449:Middlewares/ST/STM32_USB_Host_Library/Core/Src/usbh_core.c **** 
 450:Middlewares/ST/STM32_USB_Host_Library/Core/Src/usbh_core.c **** 
 451:Middlewares/ST/STM32_USB_Host_Library/Core/Src/usbh_core.c **** /**
 452:Middlewares/ST/STM32_USB_Host_Library/Core/Src/usbh_core.c ****   * @brief  USBH_Process
 453:Middlewares/ST/STM32_USB_Host_Library/Core/Src/usbh_core.c ****   *         Background process of the USB Core.
 454:Middlewares/ST/STM32_USB_Host_Library/Core/Src/usbh_core.c ****   * @param  phost: Host Handle
 455:Middlewares/ST/STM32_USB_Host_Library/Core/Src/usbh_core.c ****   * @retval USBH Status
 456:Middlewares/ST/STM32_USB_Host_Library/Core/Src/usbh_core.c ****   */
 457:Middlewares/ST/STM32_USB_Host_Library/Core/Src/usbh_core.c **** USBH_StatusTypeDef  USBH_Process(USBH_HandleTypeDef *phost)
 458:Middlewares/ST/STM32_USB_Host_Library/Core/Src/usbh_core.c **** {
 459:Middlewares/ST/STM32_USB_Host_Library/Core/Src/usbh_core.c ****   __IO USBH_StatusTypeDef status = USBH_FAIL;
 460:Middlewares/ST/STM32_USB_Host_Library/Core/Src/usbh_core.c ****   uint8_t idx = 0U;
 461:Middlewares/ST/STM32_USB_Host_Library/Core/Src/usbh_core.c **** 
ARM GAS  C:\Users\User\AppData\Local\Temp\ccMoYMA0.s 			page 11


 462:Middlewares/ST/STM32_USB_Host_Library/Core/Src/usbh_core.c ****   /* check for Host pending port disconnect event */
 463:Middlewares/ST/STM32_USB_Host_Library/Core/Src/usbh_core.c ****   if (phost->device.is_disconnected == 1U)
 464:Middlewares/ST/STM32_USB_Host_Library/Core/Src/usbh_core.c ****   {
 465:Middlewares/ST/STM32_USB_Host_Library/Core/Src/usbh_core.c ****     phost->gState = HOST_DEV_DISCONNECTED;
 466:Middlewares/ST/STM32_USB_Host_Library/Core/Src/usbh_core.c ****   }
 467:Middlewares/ST/STM32_USB_Host_Library/Core/Src/usbh_core.c **** 
 468:Middlewares/ST/STM32_USB_Host_Library/Core/Src/usbh_core.c ****   switch (phost->gState)
 469:Middlewares/ST/STM32_USB_Host_Library/Core/Src/usbh_core.c ****   {
 470:Middlewares/ST/STM32_USB_Host_Library/Core/Src/usbh_core.c ****     case HOST_IDLE :
 471:Middlewares/ST/STM32_USB_Host_Library/Core/Src/usbh_core.c **** 
 472:Middlewares/ST/STM32_USB_Host_Library/Core/Src/usbh_core.c ****       if (phost->device.is_connected)
 473:Middlewares/ST/STM32_USB_Host_Library/Core/Src/usbh_core.c ****       {
 474:Middlewares/ST/STM32_USB_Host_Library/Core/Src/usbh_core.c ****         USBH_UsrLog("USB Device Connected");
 475:Middlewares/ST/STM32_USB_Host_Library/Core/Src/usbh_core.c **** 
 476:Middlewares/ST/STM32_USB_Host_Library/Core/Src/usbh_core.c ****         /* Wait for 200 ms after connection */
 477:Middlewares/ST/STM32_USB_Host_Library/Core/Src/usbh_core.c ****         phost->gState = HOST_DEV_WAIT_FOR_ATTACHMENT;
 478:Middlewares/ST/STM32_USB_Host_Library/Core/Src/usbh_core.c ****         USBH_Delay(200U);
 479:Middlewares/ST/STM32_USB_Host_Library/Core/Src/usbh_core.c ****         USBH_LL_ResetPort(phost);
 480:Middlewares/ST/STM32_USB_Host_Library/Core/Src/usbh_core.c **** 
 481:Middlewares/ST/STM32_USB_Host_Library/Core/Src/usbh_core.c ****         /* Make sure to start with Default address */
 482:Middlewares/ST/STM32_USB_Host_Library/Core/Src/usbh_core.c ****         phost->device.address = USBH_ADDRESS_DEFAULT;
 483:Middlewares/ST/STM32_USB_Host_Library/Core/Src/usbh_core.c ****         phost->Timeout = 0U;
 484:Middlewares/ST/STM32_USB_Host_Library/Core/Src/usbh_core.c **** 
 485:Middlewares/ST/STM32_USB_Host_Library/Core/Src/usbh_core.c **** #if (USBH_USE_OS == 1U)
 486:Middlewares/ST/STM32_USB_Host_Library/Core/Src/usbh_core.c ****         phost->os_msg = (uint32_t)USBH_PORT_EVENT;
 487:Middlewares/ST/STM32_USB_Host_Library/Core/Src/usbh_core.c **** #if (osCMSIS < 0x20000U)
 488:Middlewares/ST/STM32_USB_Host_Library/Core/Src/usbh_core.c ****         (void)osMessagePut(phost->os_event, phost->os_msg, 0U);
 489:Middlewares/ST/STM32_USB_Host_Library/Core/Src/usbh_core.c **** #else
 490:Middlewares/ST/STM32_USB_Host_Library/Core/Src/usbh_core.c ****         (void)osMessageQueuePut(phost->os_event, &phost->os_msg, 0U, NULL);
 491:Middlewares/ST/STM32_USB_Host_Library/Core/Src/usbh_core.c **** #endif
 492:Middlewares/ST/STM32_USB_Host_Library/Core/Src/usbh_core.c **** #endif
 493:Middlewares/ST/STM32_USB_Host_Library/Core/Src/usbh_core.c ****       }
 494:Middlewares/ST/STM32_USB_Host_Library/Core/Src/usbh_core.c ****       break;
 495:Middlewares/ST/STM32_USB_Host_Library/Core/Src/usbh_core.c **** 
 496:Middlewares/ST/STM32_USB_Host_Library/Core/Src/usbh_core.c ****     case HOST_DEV_WAIT_FOR_ATTACHMENT: /* Wait for Port Enabled */
 497:Middlewares/ST/STM32_USB_Host_Library/Core/Src/usbh_core.c **** 
 498:Middlewares/ST/STM32_USB_Host_Library/Core/Src/usbh_core.c ****       if (phost->device.PortEnabled == 1U)
 499:Middlewares/ST/STM32_USB_Host_Library/Core/Src/usbh_core.c ****       {
 500:Middlewares/ST/STM32_USB_Host_Library/Core/Src/usbh_core.c ****         USBH_UsrLog("USB Device Reset Completed");
 501:Middlewares/ST/STM32_USB_Host_Library/Core/Src/usbh_core.c ****         phost->device.RstCnt = 0U;
 502:Middlewares/ST/STM32_USB_Host_Library/Core/Src/usbh_core.c ****         phost->gState = HOST_DEV_ATTACHED;
 503:Middlewares/ST/STM32_USB_Host_Library/Core/Src/usbh_core.c ****       }
 504:Middlewares/ST/STM32_USB_Host_Library/Core/Src/usbh_core.c ****       else
 505:Middlewares/ST/STM32_USB_Host_Library/Core/Src/usbh_core.c ****       {
 506:Middlewares/ST/STM32_USB_Host_Library/Core/Src/usbh_core.c ****         if (phost->Timeout > USBH_DEV_RESET_TIMEOUT)
 507:Middlewares/ST/STM32_USB_Host_Library/Core/Src/usbh_core.c ****         {
 508:Middlewares/ST/STM32_USB_Host_Library/Core/Src/usbh_core.c ****           phost->device.RstCnt++;
 509:Middlewares/ST/STM32_USB_Host_Library/Core/Src/usbh_core.c ****           if (phost->device.RstCnt > 3U)
 510:Middlewares/ST/STM32_USB_Host_Library/Core/Src/usbh_core.c ****           {
 511:Middlewares/ST/STM32_USB_Host_Library/Core/Src/usbh_core.c ****             /* Buggy Device can't complete reset */
 512:Middlewares/ST/STM32_USB_Host_Library/Core/Src/usbh_core.c ****             USBH_UsrLog("USB Reset Failed, Please unplug the Device.");
 513:Middlewares/ST/STM32_USB_Host_Library/Core/Src/usbh_core.c ****             phost->gState = HOST_ABORT_STATE;
 514:Middlewares/ST/STM32_USB_Host_Library/Core/Src/usbh_core.c ****           }
 515:Middlewares/ST/STM32_USB_Host_Library/Core/Src/usbh_core.c ****           else
 516:Middlewares/ST/STM32_USB_Host_Library/Core/Src/usbh_core.c ****           {
 517:Middlewares/ST/STM32_USB_Host_Library/Core/Src/usbh_core.c ****             phost->gState = HOST_IDLE;
 518:Middlewares/ST/STM32_USB_Host_Library/Core/Src/usbh_core.c ****           }
ARM GAS  C:\Users\User\AppData\Local\Temp\ccMoYMA0.s 			page 12


 519:Middlewares/ST/STM32_USB_Host_Library/Core/Src/usbh_core.c ****         }
 520:Middlewares/ST/STM32_USB_Host_Library/Core/Src/usbh_core.c ****         else
 521:Middlewares/ST/STM32_USB_Host_Library/Core/Src/usbh_core.c ****         {
 522:Middlewares/ST/STM32_USB_Host_Library/Core/Src/usbh_core.c ****           phost->Timeout += 10U;
 523:Middlewares/ST/STM32_USB_Host_Library/Core/Src/usbh_core.c ****           USBH_Delay(10U);
 524:Middlewares/ST/STM32_USB_Host_Library/Core/Src/usbh_core.c ****         }
 525:Middlewares/ST/STM32_USB_Host_Library/Core/Src/usbh_core.c ****       }
 526:Middlewares/ST/STM32_USB_Host_Library/Core/Src/usbh_core.c **** #if (USBH_USE_OS == 1U)
 527:Middlewares/ST/STM32_USB_Host_Library/Core/Src/usbh_core.c ****       phost->os_msg = (uint32_t)USBH_PORT_EVENT;
 528:Middlewares/ST/STM32_USB_Host_Library/Core/Src/usbh_core.c **** #if (osCMSIS < 0x20000U)
 529:Middlewares/ST/STM32_USB_Host_Library/Core/Src/usbh_core.c ****       (void)osMessagePut(phost->os_event, phost->os_msg, 0U);
 530:Middlewares/ST/STM32_USB_Host_Library/Core/Src/usbh_core.c **** #else
 531:Middlewares/ST/STM32_USB_Host_Library/Core/Src/usbh_core.c ****       (void)osMessageQueuePut(phost->os_event, &phost->os_msg, 0U, NULL);
 532:Middlewares/ST/STM32_USB_Host_Library/Core/Src/usbh_core.c **** #endif
 533:Middlewares/ST/STM32_USB_Host_Library/Core/Src/usbh_core.c **** #endif
 534:Middlewares/ST/STM32_USB_Host_Library/Core/Src/usbh_core.c ****       break;
 535:Middlewares/ST/STM32_USB_Host_Library/Core/Src/usbh_core.c **** 
 536:Middlewares/ST/STM32_USB_Host_Library/Core/Src/usbh_core.c ****     case HOST_DEV_ATTACHED :
 537:Middlewares/ST/STM32_USB_Host_Library/Core/Src/usbh_core.c **** 
 538:Middlewares/ST/STM32_USB_Host_Library/Core/Src/usbh_core.c ****       if (phost->pUser != NULL)
 539:Middlewares/ST/STM32_USB_Host_Library/Core/Src/usbh_core.c ****       {
 540:Middlewares/ST/STM32_USB_Host_Library/Core/Src/usbh_core.c ****         phost->pUser(phost, HOST_USER_CONNECTION);
 541:Middlewares/ST/STM32_USB_Host_Library/Core/Src/usbh_core.c ****       }
 542:Middlewares/ST/STM32_USB_Host_Library/Core/Src/usbh_core.c **** 
 543:Middlewares/ST/STM32_USB_Host_Library/Core/Src/usbh_core.c ****       /* Wait for 100 ms after Reset */
 544:Middlewares/ST/STM32_USB_Host_Library/Core/Src/usbh_core.c ****       USBH_Delay(100U);
 545:Middlewares/ST/STM32_USB_Host_Library/Core/Src/usbh_core.c **** 
 546:Middlewares/ST/STM32_USB_Host_Library/Core/Src/usbh_core.c ****       phost->device.speed = USBH_LL_GetSpeed(phost);
 547:Middlewares/ST/STM32_USB_Host_Library/Core/Src/usbh_core.c **** 
 548:Middlewares/ST/STM32_USB_Host_Library/Core/Src/usbh_core.c ****       phost->gState = HOST_ENUMERATION;
 549:Middlewares/ST/STM32_USB_Host_Library/Core/Src/usbh_core.c **** 
 550:Middlewares/ST/STM32_USB_Host_Library/Core/Src/usbh_core.c ****       phost->Control.pipe_out = USBH_AllocPipe(phost, 0x00U);
 551:Middlewares/ST/STM32_USB_Host_Library/Core/Src/usbh_core.c ****       phost->Control.pipe_in  = USBH_AllocPipe(phost, 0x80U);
 552:Middlewares/ST/STM32_USB_Host_Library/Core/Src/usbh_core.c **** 
 553:Middlewares/ST/STM32_USB_Host_Library/Core/Src/usbh_core.c ****       /* Open Control pipes */
 554:Middlewares/ST/STM32_USB_Host_Library/Core/Src/usbh_core.c ****       USBH_OpenPipe(phost, phost->Control.pipe_in, 0x80U,
 555:Middlewares/ST/STM32_USB_Host_Library/Core/Src/usbh_core.c ****                     phost->device.address, phost->device.speed,
 556:Middlewares/ST/STM32_USB_Host_Library/Core/Src/usbh_core.c ****                     USBH_EP_CONTROL, (uint16_t)phost->Control.pipe_size);
 557:Middlewares/ST/STM32_USB_Host_Library/Core/Src/usbh_core.c **** 
 558:Middlewares/ST/STM32_USB_Host_Library/Core/Src/usbh_core.c ****       /* Open Control pipes */
 559:Middlewares/ST/STM32_USB_Host_Library/Core/Src/usbh_core.c ****       USBH_OpenPipe(phost, phost->Control.pipe_out, 0x00U,
 560:Middlewares/ST/STM32_USB_Host_Library/Core/Src/usbh_core.c ****                     phost->device.address, phost->device.speed,
 561:Middlewares/ST/STM32_USB_Host_Library/Core/Src/usbh_core.c ****                     USBH_EP_CONTROL, (uint16_t)phost->Control.pipe_size);
 562:Middlewares/ST/STM32_USB_Host_Library/Core/Src/usbh_core.c **** 
 563:Middlewares/ST/STM32_USB_Host_Library/Core/Src/usbh_core.c **** #if (USBH_USE_OS == 1U)
 564:Middlewares/ST/STM32_USB_Host_Library/Core/Src/usbh_core.c ****       phost->os_msg = (uint32_t)USBH_PORT_EVENT;
 565:Middlewares/ST/STM32_USB_Host_Library/Core/Src/usbh_core.c **** #if (osCMSIS < 0x20000U)
 566:Middlewares/ST/STM32_USB_Host_Library/Core/Src/usbh_core.c ****       (void)osMessagePut(phost->os_event, phost->os_msg, 0U);
 567:Middlewares/ST/STM32_USB_Host_Library/Core/Src/usbh_core.c **** #else
 568:Middlewares/ST/STM32_USB_Host_Library/Core/Src/usbh_core.c ****       (void)osMessageQueuePut(phost->os_event, &phost->os_msg, 0U, NULL);
 569:Middlewares/ST/STM32_USB_Host_Library/Core/Src/usbh_core.c **** #endif
 570:Middlewares/ST/STM32_USB_Host_Library/Core/Src/usbh_core.c **** #endif
 571:Middlewares/ST/STM32_USB_Host_Library/Core/Src/usbh_core.c ****       break;
 572:Middlewares/ST/STM32_USB_Host_Library/Core/Src/usbh_core.c **** 
 573:Middlewares/ST/STM32_USB_Host_Library/Core/Src/usbh_core.c ****     case HOST_ENUMERATION:
 574:Middlewares/ST/STM32_USB_Host_Library/Core/Src/usbh_core.c ****       /* Check for enumeration status */
 575:Middlewares/ST/STM32_USB_Host_Library/Core/Src/usbh_core.c ****       status = USBH_HandleEnum(phost);
ARM GAS  C:\Users\User\AppData\Local\Temp\ccMoYMA0.s 			page 13


 576:Middlewares/ST/STM32_USB_Host_Library/Core/Src/usbh_core.c ****       if (status == USBH_OK)
 577:Middlewares/ST/STM32_USB_Host_Library/Core/Src/usbh_core.c ****       {
 578:Middlewares/ST/STM32_USB_Host_Library/Core/Src/usbh_core.c ****         /* The function shall return USBH_OK when full enumeration is complete */
 579:Middlewares/ST/STM32_USB_Host_Library/Core/Src/usbh_core.c ****         USBH_UsrLog("Enumeration done.");
 580:Middlewares/ST/STM32_USB_Host_Library/Core/Src/usbh_core.c **** 
 581:Middlewares/ST/STM32_USB_Host_Library/Core/Src/usbh_core.c ****         phost->device.current_interface = 0U;
 582:Middlewares/ST/STM32_USB_Host_Library/Core/Src/usbh_core.c **** 
 583:Middlewares/ST/STM32_USB_Host_Library/Core/Src/usbh_core.c ****         if (phost->device.DevDesc.bNumConfigurations == 1U)
 584:Middlewares/ST/STM32_USB_Host_Library/Core/Src/usbh_core.c ****         {
 585:Middlewares/ST/STM32_USB_Host_Library/Core/Src/usbh_core.c ****           USBH_UsrLog("This device has only 1 configuration.");
 586:Middlewares/ST/STM32_USB_Host_Library/Core/Src/usbh_core.c ****           phost->gState = HOST_SET_CONFIGURATION;
 587:Middlewares/ST/STM32_USB_Host_Library/Core/Src/usbh_core.c ****         }
 588:Middlewares/ST/STM32_USB_Host_Library/Core/Src/usbh_core.c ****         else
 589:Middlewares/ST/STM32_USB_Host_Library/Core/Src/usbh_core.c ****         {
 590:Middlewares/ST/STM32_USB_Host_Library/Core/Src/usbh_core.c ****           phost->gState = HOST_INPUT;
 591:Middlewares/ST/STM32_USB_Host_Library/Core/Src/usbh_core.c ****         }
 592:Middlewares/ST/STM32_USB_Host_Library/Core/Src/usbh_core.c **** #if (USBH_USE_OS == 1U)
 593:Middlewares/ST/STM32_USB_Host_Library/Core/Src/usbh_core.c ****         phost->os_msg = (uint32_t)USBH_STATE_CHANGED_EVENT;
 594:Middlewares/ST/STM32_USB_Host_Library/Core/Src/usbh_core.c **** #if (osCMSIS < 0x20000U)
 595:Middlewares/ST/STM32_USB_Host_Library/Core/Src/usbh_core.c ****         (void)osMessagePut(phost->os_event, phost->os_msg, 0U);
 596:Middlewares/ST/STM32_USB_Host_Library/Core/Src/usbh_core.c **** #else
 597:Middlewares/ST/STM32_USB_Host_Library/Core/Src/usbh_core.c ****         (void)osMessageQueuePut(phost->os_event, &phost->os_msg, 0U, NULL);
 598:Middlewares/ST/STM32_USB_Host_Library/Core/Src/usbh_core.c **** #endif
 599:Middlewares/ST/STM32_USB_Host_Library/Core/Src/usbh_core.c **** #endif
 600:Middlewares/ST/STM32_USB_Host_Library/Core/Src/usbh_core.c ****       }
 601:Middlewares/ST/STM32_USB_Host_Library/Core/Src/usbh_core.c ****       break;
 602:Middlewares/ST/STM32_USB_Host_Library/Core/Src/usbh_core.c **** 
 603:Middlewares/ST/STM32_USB_Host_Library/Core/Src/usbh_core.c ****     case HOST_INPUT:
 604:Middlewares/ST/STM32_USB_Host_Library/Core/Src/usbh_core.c ****     {
 605:Middlewares/ST/STM32_USB_Host_Library/Core/Src/usbh_core.c ****       /* user callback for end of device basic enumeration */
 606:Middlewares/ST/STM32_USB_Host_Library/Core/Src/usbh_core.c ****       if (phost->pUser != NULL)
 607:Middlewares/ST/STM32_USB_Host_Library/Core/Src/usbh_core.c ****       {
 608:Middlewares/ST/STM32_USB_Host_Library/Core/Src/usbh_core.c ****         phost->pUser(phost, HOST_USER_SELECT_CONFIGURATION);
 609:Middlewares/ST/STM32_USB_Host_Library/Core/Src/usbh_core.c ****         phost->gState = HOST_SET_CONFIGURATION;
 610:Middlewares/ST/STM32_USB_Host_Library/Core/Src/usbh_core.c **** 
 611:Middlewares/ST/STM32_USB_Host_Library/Core/Src/usbh_core.c **** #if (USBH_USE_OS == 1U)
 612:Middlewares/ST/STM32_USB_Host_Library/Core/Src/usbh_core.c ****         phost->os_msg = (uint32_t)USBH_STATE_CHANGED_EVENT;
 613:Middlewares/ST/STM32_USB_Host_Library/Core/Src/usbh_core.c **** #if (osCMSIS < 0x20000U)
 614:Middlewares/ST/STM32_USB_Host_Library/Core/Src/usbh_core.c ****         (void)osMessagePut(phost->os_event, phost->os_msg, 0U);
 615:Middlewares/ST/STM32_USB_Host_Library/Core/Src/usbh_core.c **** #else
 616:Middlewares/ST/STM32_USB_Host_Library/Core/Src/usbh_core.c ****         (void)osMessageQueuePut(phost->os_event, &phost->os_msg, 0U, NULL);
 617:Middlewares/ST/STM32_USB_Host_Library/Core/Src/usbh_core.c **** #endif
 618:Middlewares/ST/STM32_USB_Host_Library/Core/Src/usbh_core.c **** #endif
 619:Middlewares/ST/STM32_USB_Host_Library/Core/Src/usbh_core.c ****       }
 620:Middlewares/ST/STM32_USB_Host_Library/Core/Src/usbh_core.c ****     }
 621:Middlewares/ST/STM32_USB_Host_Library/Core/Src/usbh_core.c ****     break;
 622:Middlewares/ST/STM32_USB_Host_Library/Core/Src/usbh_core.c **** 
 623:Middlewares/ST/STM32_USB_Host_Library/Core/Src/usbh_core.c ****     case HOST_SET_CONFIGURATION:
 624:Middlewares/ST/STM32_USB_Host_Library/Core/Src/usbh_core.c ****       /* set configuration */
 625:Middlewares/ST/STM32_USB_Host_Library/Core/Src/usbh_core.c ****       if (USBH_SetCfg(phost, (uint16_t)phost->device.CfgDesc.bConfigurationValue) == USBH_OK)
 626:Middlewares/ST/STM32_USB_Host_Library/Core/Src/usbh_core.c ****       {
 627:Middlewares/ST/STM32_USB_Host_Library/Core/Src/usbh_core.c ****         phost->gState = HOST_SET_WAKEUP_FEATURE;
 628:Middlewares/ST/STM32_USB_Host_Library/Core/Src/usbh_core.c ****         USBH_UsrLog("Default configuration set.");
 629:Middlewares/ST/STM32_USB_Host_Library/Core/Src/usbh_core.c ****       }
 630:Middlewares/ST/STM32_USB_Host_Library/Core/Src/usbh_core.c **** 
 631:Middlewares/ST/STM32_USB_Host_Library/Core/Src/usbh_core.c **** #if (USBH_USE_OS == 1U)
 632:Middlewares/ST/STM32_USB_Host_Library/Core/Src/usbh_core.c ****       phost->os_msg = (uint32_t)USBH_PORT_EVENT;
ARM GAS  C:\Users\User\AppData\Local\Temp\ccMoYMA0.s 			page 14


 633:Middlewares/ST/STM32_USB_Host_Library/Core/Src/usbh_core.c **** #if (osCMSIS < 0x20000U)
 634:Middlewares/ST/STM32_USB_Host_Library/Core/Src/usbh_core.c ****       (void)osMessagePut(phost->os_event, phost->os_msg, 0U);
 635:Middlewares/ST/STM32_USB_Host_Library/Core/Src/usbh_core.c **** #else
 636:Middlewares/ST/STM32_USB_Host_Library/Core/Src/usbh_core.c ****       (void)osMessageQueuePut(phost->os_event, &phost->os_msg, 0U, NULL);
 637:Middlewares/ST/STM32_USB_Host_Library/Core/Src/usbh_core.c **** #endif
 638:Middlewares/ST/STM32_USB_Host_Library/Core/Src/usbh_core.c **** #endif
 639:Middlewares/ST/STM32_USB_Host_Library/Core/Src/usbh_core.c ****       break;
 640:Middlewares/ST/STM32_USB_Host_Library/Core/Src/usbh_core.c **** 
 641:Middlewares/ST/STM32_USB_Host_Library/Core/Src/usbh_core.c ****     case  HOST_SET_WAKEUP_FEATURE:
 642:Middlewares/ST/STM32_USB_Host_Library/Core/Src/usbh_core.c **** 
 643:Middlewares/ST/STM32_USB_Host_Library/Core/Src/usbh_core.c ****       if ((phost->device.CfgDesc.bmAttributes) & (1U << 5))
 644:Middlewares/ST/STM32_USB_Host_Library/Core/Src/usbh_core.c ****       {
 645:Middlewares/ST/STM32_USB_Host_Library/Core/Src/usbh_core.c ****         if (USBH_SetFeature(phost, FEATURE_SELECTOR_REMOTEWAKEUP) == USBH_OK)
 646:Middlewares/ST/STM32_USB_Host_Library/Core/Src/usbh_core.c ****         {
 647:Middlewares/ST/STM32_USB_Host_Library/Core/Src/usbh_core.c ****           USBH_UsrLog("Device remote wakeup enabled");
 648:Middlewares/ST/STM32_USB_Host_Library/Core/Src/usbh_core.c ****           phost->gState = HOST_CHECK_CLASS;
 649:Middlewares/ST/STM32_USB_Host_Library/Core/Src/usbh_core.c ****         }
 650:Middlewares/ST/STM32_USB_Host_Library/Core/Src/usbh_core.c ****       }
 651:Middlewares/ST/STM32_USB_Host_Library/Core/Src/usbh_core.c ****       else
 652:Middlewares/ST/STM32_USB_Host_Library/Core/Src/usbh_core.c ****       {
 653:Middlewares/ST/STM32_USB_Host_Library/Core/Src/usbh_core.c ****         phost->gState = HOST_CHECK_CLASS;
 654:Middlewares/ST/STM32_USB_Host_Library/Core/Src/usbh_core.c ****       }
 655:Middlewares/ST/STM32_USB_Host_Library/Core/Src/usbh_core.c **** 
 656:Middlewares/ST/STM32_USB_Host_Library/Core/Src/usbh_core.c **** #if (USBH_USE_OS == 1U)
 657:Middlewares/ST/STM32_USB_Host_Library/Core/Src/usbh_core.c ****       phost->os_msg = (uint32_t)USBH_PORT_EVENT;
 658:Middlewares/ST/STM32_USB_Host_Library/Core/Src/usbh_core.c **** #if (osCMSIS < 0x20000U)
 659:Middlewares/ST/STM32_USB_Host_Library/Core/Src/usbh_core.c ****       (void)osMessagePut(phost->os_event, phost->os_msg, 0U);
 660:Middlewares/ST/STM32_USB_Host_Library/Core/Src/usbh_core.c **** #else
 661:Middlewares/ST/STM32_USB_Host_Library/Core/Src/usbh_core.c ****       (void)osMessageQueuePut(phost->os_event, &phost->os_msg, 0U, NULL);
 662:Middlewares/ST/STM32_USB_Host_Library/Core/Src/usbh_core.c **** #endif
 663:Middlewares/ST/STM32_USB_Host_Library/Core/Src/usbh_core.c **** #endif
 664:Middlewares/ST/STM32_USB_Host_Library/Core/Src/usbh_core.c ****       break;
 665:Middlewares/ST/STM32_USB_Host_Library/Core/Src/usbh_core.c **** 
 666:Middlewares/ST/STM32_USB_Host_Library/Core/Src/usbh_core.c ****     case HOST_CHECK_CLASS:
 667:Middlewares/ST/STM32_USB_Host_Library/Core/Src/usbh_core.c **** 
 668:Middlewares/ST/STM32_USB_Host_Library/Core/Src/usbh_core.c ****       if (phost->ClassNumber == 0U)
 669:Middlewares/ST/STM32_USB_Host_Library/Core/Src/usbh_core.c ****       {
 670:Middlewares/ST/STM32_USB_Host_Library/Core/Src/usbh_core.c ****         USBH_UsrLog("No Class has been registered.");
 671:Middlewares/ST/STM32_USB_Host_Library/Core/Src/usbh_core.c ****       }
 672:Middlewares/ST/STM32_USB_Host_Library/Core/Src/usbh_core.c ****       else
 673:Middlewares/ST/STM32_USB_Host_Library/Core/Src/usbh_core.c ****       {
 674:Middlewares/ST/STM32_USB_Host_Library/Core/Src/usbh_core.c ****         phost->pActiveClass = NULL;
 675:Middlewares/ST/STM32_USB_Host_Library/Core/Src/usbh_core.c **** 
 676:Middlewares/ST/STM32_USB_Host_Library/Core/Src/usbh_core.c ****         for (idx = 0U; idx < USBH_MAX_NUM_SUPPORTED_CLASS; idx++)
 677:Middlewares/ST/STM32_USB_Host_Library/Core/Src/usbh_core.c ****         {
 678:Middlewares/ST/STM32_USB_Host_Library/Core/Src/usbh_core.c ****           if (phost->pClass[idx]->ClassCode == phost->device.CfgDesc.Itf_Desc[0].bInterfaceClass)
 679:Middlewares/ST/STM32_USB_Host_Library/Core/Src/usbh_core.c ****           {
 680:Middlewares/ST/STM32_USB_Host_Library/Core/Src/usbh_core.c ****             phost->pActiveClass = phost->pClass[idx];
 681:Middlewares/ST/STM32_USB_Host_Library/Core/Src/usbh_core.c ****             break;
 682:Middlewares/ST/STM32_USB_Host_Library/Core/Src/usbh_core.c ****           }
 683:Middlewares/ST/STM32_USB_Host_Library/Core/Src/usbh_core.c ****         }
 684:Middlewares/ST/STM32_USB_Host_Library/Core/Src/usbh_core.c **** 
 685:Middlewares/ST/STM32_USB_Host_Library/Core/Src/usbh_core.c ****         if (phost->pActiveClass != NULL)
 686:Middlewares/ST/STM32_USB_Host_Library/Core/Src/usbh_core.c ****         {
 687:Middlewares/ST/STM32_USB_Host_Library/Core/Src/usbh_core.c ****           if (phost->pActiveClass->Init(phost) == USBH_OK)
 688:Middlewares/ST/STM32_USB_Host_Library/Core/Src/usbh_core.c ****           {
 689:Middlewares/ST/STM32_USB_Host_Library/Core/Src/usbh_core.c ****             phost->gState = HOST_CLASS_REQUEST;
ARM GAS  C:\Users\User\AppData\Local\Temp\ccMoYMA0.s 			page 15


 690:Middlewares/ST/STM32_USB_Host_Library/Core/Src/usbh_core.c ****             USBH_UsrLog("%s class started.", phost->pActiveClass->Name);
 691:Middlewares/ST/STM32_USB_Host_Library/Core/Src/usbh_core.c **** 
 692:Middlewares/ST/STM32_USB_Host_Library/Core/Src/usbh_core.c ****             /* Inform user that a class has been activated */
 693:Middlewares/ST/STM32_USB_Host_Library/Core/Src/usbh_core.c ****             phost->pUser(phost, HOST_USER_CLASS_SELECTED);
 694:Middlewares/ST/STM32_USB_Host_Library/Core/Src/usbh_core.c ****           }
 695:Middlewares/ST/STM32_USB_Host_Library/Core/Src/usbh_core.c ****           else
 696:Middlewares/ST/STM32_USB_Host_Library/Core/Src/usbh_core.c ****           {
 697:Middlewares/ST/STM32_USB_Host_Library/Core/Src/usbh_core.c ****             phost->gState = HOST_ABORT_STATE;
 698:Middlewares/ST/STM32_USB_Host_Library/Core/Src/usbh_core.c ****             USBH_UsrLog("Device not supporting %s class.", phost->pActiveClass->Name);
 699:Middlewares/ST/STM32_USB_Host_Library/Core/Src/usbh_core.c ****           }
 700:Middlewares/ST/STM32_USB_Host_Library/Core/Src/usbh_core.c ****         }
 701:Middlewares/ST/STM32_USB_Host_Library/Core/Src/usbh_core.c ****         else
 702:Middlewares/ST/STM32_USB_Host_Library/Core/Src/usbh_core.c ****         {
 703:Middlewares/ST/STM32_USB_Host_Library/Core/Src/usbh_core.c ****           phost->gState = HOST_ABORT_STATE;
 704:Middlewares/ST/STM32_USB_Host_Library/Core/Src/usbh_core.c ****           USBH_UsrLog("No registered class for this device.");
 705:Middlewares/ST/STM32_USB_Host_Library/Core/Src/usbh_core.c ****         }
 706:Middlewares/ST/STM32_USB_Host_Library/Core/Src/usbh_core.c ****       }
 707:Middlewares/ST/STM32_USB_Host_Library/Core/Src/usbh_core.c **** 
 708:Middlewares/ST/STM32_USB_Host_Library/Core/Src/usbh_core.c **** #if (USBH_USE_OS == 1U)
 709:Middlewares/ST/STM32_USB_Host_Library/Core/Src/usbh_core.c ****       phost->os_msg = (uint32_t)USBH_STATE_CHANGED_EVENT;
 710:Middlewares/ST/STM32_USB_Host_Library/Core/Src/usbh_core.c **** #if (osCMSIS < 0x20000U)
 711:Middlewares/ST/STM32_USB_Host_Library/Core/Src/usbh_core.c ****       (void)osMessagePut(phost->os_event, phost->os_msg, 0U);
 712:Middlewares/ST/STM32_USB_Host_Library/Core/Src/usbh_core.c **** #else
 713:Middlewares/ST/STM32_USB_Host_Library/Core/Src/usbh_core.c ****       (void)osMessageQueuePut(phost->os_event, &phost->os_msg, 0U, NULL);
 714:Middlewares/ST/STM32_USB_Host_Library/Core/Src/usbh_core.c **** #endif
 715:Middlewares/ST/STM32_USB_Host_Library/Core/Src/usbh_core.c **** #endif
 716:Middlewares/ST/STM32_USB_Host_Library/Core/Src/usbh_core.c ****       break;
 717:Middlewares/ST/STM32_USB_Host_Library/Core/Src/usbh_core.c **** 
 718:Middlewares/ST/STM32_USB_Host_Library/Core/Src/usbh_core.c ****     case HOST_CLASS_REQUEST:
 719:Middlewares/ST/STM32_USB_Host_Library/Core/Src/usbh_core.c ****       /* process class standard control requests state machine */
 720:Middlewares/ST/STM32_USB_Host_Library/Core/Src/usbh_core.c ****       if (phost->pActiveClass != NULL)
 721:Middlewares/ST/STM32_USB_Host_Library/Core/Src/usbh_core.c ****       {
 722:Middlewares/ST/STM32_USB_Host_Library/Core/Src/usbh_core.c ****         status = phost->pActiveClass->Requests(phost);
 723:Middlewares/ST/STM32_USB_Host_Library/Core/Src/usbh_core.c **** 
 724:Middlewares/ST/STM32_USB_Host_Library/Core/Src/usbh_core.c ****         if (status == USBH_OK)
 725:Middlewares/ST/STM32_USB_Host_Library/Core/Src/usbh_core.c ****         {
 726:Middlewares/ST/STM32_USB_Host_Library/Core/Src/usbh_core.c ****           phost->gState = HOST_CLASS;
 727:Middlewares/ST/STM32_USB_Host_Library/Core/Src/usbh_core.c ****         }
 728:Middlewares/ST/STM32_USB_Host_Library/Core/Src/usbh_core.c ****         else if (status == USBH_FAIL)
 729:Middlewares/ST/STM32_USB_Host_Library/Core/Src/usbh_core.c ****         {
 730:Middlewares/ST/STM32_USB_Host_Library/Core/Src/usbh_core.c ****           phost->gState = HOST_ABORT_STATE;
 731:Middlewares/ST/STM32_USB_Host_Library/Core/Src/usbh_core.c ****           USBH_ErrLog("Device not responding Please Unplug.");
 732:Middlewares/ST/STM32_USB_Host_Library/Core/Src/usbh_core.c ****         }
 733:Middlewares/ST/STM32_USB_Host_Library/Core/Src/usbh_core.c ****         else
 734:Middlewares/ST/STM32_USB_Host_Library/Core/Src/usbh_core.c ****         {
 735:Middlewares/ST/STM32_USB_Host_Library/Core/Src/usbh_core.c ****           /* .. */
 736:Middlewares/ST/STM32_USB_Host_Library/Core/Src/usbh_core.c ****         }
 737:Middlewares/ST/STM32_USB_Host_Library/Core/Src/usbh_core.c ****       }
 738:Middlewares/ST/STM32_USB_Host_Library/Core/Src/usbh_core.c ****       else
 739:Middlewares/ST/STM32_USB_Host_Library/Core/Src/usbh_core.c ****       {
 740:Middlewares/ST/STM32_USB_Host_Library/Core/Src/usbh_core.c ****         phost->gState = HOST_ABORT_STATE;
 741:Middlewares/ST/STM32_USB_Host_Library/Core/Src/usbh_core.c ****         USBH_ErrLog("Invalid Class Driver.");
 742:Middlewares/ST/STM32_USB_Host_Library/Core/Src/usbh_core.c ****       }
 743:Middlewares/ST/STM32_USB_Host_Library/Core/Src/usbh_core.c **** #if (USBH_USE_OS == 1U)
 744:Middlewares/ST/STM32_USB_Host_Library/Core/Src/usbh_core.c ****       phost->os_msg = (uint32_t)USBH_STATE_CHANGED_EVENT;
 745:Middlewares/ST/STM32_USB_Host_Library/Core/Src/usbh_core.c **** #if (osCMSIS < 0x20000U)
 746:Middlewares/ST/STM32_USB_Host_Library/Core/Src/usbh_core.c ****       (void)osMessagePut(phost->os_event, phost->os_msg, 0U);
ARM GAS  C:\Users\User\AppData\Local\Temp\ccMoYMA0.s 			page 16


 747:Middlewares/ST/STM32_USB_Host_Library/Core/Src/usbh_core.c **** #else
 748:Middlewares/ST/STM32_USB_Host_Library/Core/Src/usbh_core.c ****       (void)osMessageQueuePut(phost->os_event, &phost->os_msg, 0U, NULL);
 749:Middlewares/ST/STM32_USB_Host_Library/Core/Src/usbh_core.c **** #endif
 750:Middlewares/ST/STM32_USB_Host_Library/Core/Src/usbh_core.c **** #endif
 751:Middlewares/ST/STM32_USB_Host_Library/Core/Src/usbh_core.c ****       break;
 752:Middlewares/ST/STM32_USB_Host_Library/Core/Src/usbh_core.c **** 
 753:Middlewares/ST/STM32_USB_Host_Library/Core/Src/usbh_core.c ****     case HOST_CLASS:
 754:Middlewares/ST/STM32_USB_Host_Library/Core/Src/usbh_core.c ****       /* process class state machine */
 755:Middlewares/ST/STM32_USB_Host_Library/Core/Src/usbh_core.c ****       if (phost->pActiveClass != NULL)
 756:Middlewares/ST/STM32_USB_Host_Library/Core/Src/usbh_core.c ****       {
 757:Middlewares/ST/STM32_USB_Host_Library/Core/Src/usbh_core.c ****         phost->pActiveClass->BgndProcess(phost);
 758:Middlewares/ST/STM32_USB_Host_Library/Core/Src/usbh_core.c ****       }
 759:Middlewares/ST/STM32_USB_Host_Library/Core/Src/usbh_core.c ****       break;
 760:Middlewares/ST/STM32_USB_Host_Library/Core/Src/usbh_core.c **** 
 761:Middlewares/ST/STM32_USB_Host_Library/Core/Src/usbh_core.c ****     case HOST_DEV_DISCONNECTED :
 762:Middlewares/ST/STM32_USB_Host_Library/Core/Src/usbh_core.c ****       phost->device.is_disconnected = 0U;
 763:Middlewares/ST/STM32_USB_Host_Library/Core/Src/usbh_core.c **** 
 764:Middlewares/ST/STM32_USB_Host_Library/Core/Src/usbh_core.c ****       DeInitStateMachine(phost);
 765:Middlewares/ST/STM32_USB_Host_Library/Core/Src/usbh_core.c **** 
 766:Middlewares/ST/STM32_USB_Host_Library/Core/Src/usbh_core.c ****       /* Re-Initilaize Host for new Enumeration */
 767:Middlewares/ST/STM32_USB_Host_Library/Core/Src/usbh_core.c ****       if (phost->pActiveClass != NULL)
 768:Middlewares/ST/STM32_USB_Host_Library/Core/Src/usbh_core.c ****       {
 769:Middlewares/ST/STM32_USB_Host_Library/Core/Src/usbh_core.c ****         phost->pActiveClass->DeInit(phost);
 770:Middlewares/ST/STM32_USB_Host_Library/Core/Src/usbh_core.c ****         phost->pActiveClass = NULL;
 771:Middlewares/ST/STM32_USB_Host_Library/Core/Src/usbh_core.c ****       }
 772:Middlewares/ST/STM32_USB_Host_Library/Core/Src/usbh_core.c **** 
 773:Middlewares/ST/STM32_USB_Host_Library/Core/Src/usbh_core.c ****       if (phost->pUser != NULL)
 774:Middlewares/ST/STM32_USB_Host_Library/Core/Src/usbh_core.c ****       {
 775:Middlewares/ST/STM32_USB_Host_Library/Core/Src/usbh_core.c ****         phost->pUser(phost, HOST_USER_DISCONNECTION);
 776:Middlewares/ST/STM32_USB_Host_Library/Core/Src/usbh_core.c ****       }
 777:Middlewares/ST/STM32_USB_Host_Library/Core/Src/usbh_core.c ****       USBH_UsrLog("USB Device disconnected");
 778:Middlewares/ST/STM32_USB_Host_Library/Core/Src/usbh_core.c **** 
 779:Middlewares/ST/STM32_USB_Host_Library/Core/Src/usbh_core.c ****       if (phost->device.is_ReEnumerated == 1U)
 780:Middlewares/ST/STM32_USB_Host_Library/Core/Src/usbh_core.c ****       {
 781:Middlewares/ST/STM32_USB_Host_Library/Core/Src/usbh_core.c ****         phost->device.is_ReEnumerated = 0U;
 782:Middlewares/ST/STM32_USB_Host_Library/Core/Src/usbh_core.c **** 
 783:Middlewares/ST/STM32_USB_Host_Library/Core/Src/usbh_core.c ****         /* Start the host and re-enable Vbus */
 784:Middlewares/ST/STM32_USB_Host_Library/Core/Src/usbh_core.c ****         USBH_Start(phost);
 785:Middlewares/ST/STM32_USB_Host_Library/Core/Src/usbh_core.c ****       }
 786:Middlewares/ST/STM32_USB_Host_Library/Core/Src/usbh_core.c ****       else
 787:Middlewares/ST/STM32_USB_Host_Library/Core/Src/usbh_core.c ****       {
 788:Middlewares/ST/STM32_USB_Host_Library/Core/Src/usbh_core.c ****         /* Device Disconnection Completed, start USB Driver */
 789:Middlewares/ST/STM32_USB_Host_Library/Core/Src/usbh_core.c ****         USBH_LL_Start(phost);
 790:Middlewares/ST/STM32_USB_Host_Library/Core/Src/usbh_core.c ****       }
 791:Middlewares/ST/STM32_USB_Host_Library/Core/Src/usbh_core.c **** 
 792:Middlewares/ST/STM32_USB_Host_Library/Core/Src/usbh_core.c **** #if (USBH_USE_OS == 1U)
 793:Middlewares/ST/STM32_USB_Host_Library/Core/Src/usbh_core.c ****       phost->os_msg = (uint32_t)USBH_PORT_EVENT;
 794:Middlewares/ST/STM32_USB_Host_Library/Core/Src/usbh_core.c **** #if (osCMSIS < 0x20000U)
 795:Middlewares/ST/STM32_USB_Host_Library/Core/Src/usbh_core.c ****       (void)osMessagePut(phost->os_event, phost->os_msg, 0U);
 796:Middlewares/ST/STM32_USB_Host_Library/Core/Src/usbh_core.c **** #else
 797:Middlewares/ST/STM32_USB_Host_Library/Core/Src/usbh_core.c ****       (void)osMessageQueuePut(phost->os_event, &phost->os_msg, 0U, NULL);
 798:Middlewares/ST/STM32_USB_Host_Library/Core/Src/usbh_core.c **** #endif
 799:Middlewares/ST/STM32_USB_Host_Library/Core/Src/usbh_core.c **** #endif
 800:Middlewares/ST/STM32_USB_Host_Library/Core/Src/usbh_core.c ****       break;
 801:Middlewares/ST/STM32_USB_Host_Library/Core/Src/usbh_core.c **** 
 802:Middlewares/ST/STM32_USB_Host_Library/Core/Src/usbh_core.c ****     case HOST_ABORT_STATE:
 803:Middlewares/ST/STM32_USB_Host_Library/Core/Src/usbh_core.c ****     default :
ARM GAS  C:\Users\User\AppData\Local\Temp\ccMoYMA0.s 			page 17


 804:Middlewares/ST/STM32_USB_Host_Library/Core/Src/usbh_core.c ****       break;
 805:Middlewares/ST/STM32_USB_Host_Library/Core/Src/usbh_core.c ****   }
 806:Middlewares/ST/STM32_USB_Host_Library/Core/Src/usbh_core.c ****   return USBH_OK;
 807:Middlewares/ST/STM32_USB_Host_Library/Core/Src/usbh_core.c **** }
 808:Middlewares/ST/STM32_USB_Host_Library/Core/Src/usbh_core.c **** 
 809:Middlewares/ST/STM32_USB_Host_Library/Core/Src/usbh_core.c **** 
 810:Middlewares/ST/STM32_USB_Host_Library/Core/Src/usbh_core.c **** /**
 811:Middlewares/ST/STM32_USB_Host_Library/Core/Src/usbh_core.c ****   * @brief  USBH_HandleEnum
 812:Middlewares/ST/STM32_USB_Host_Library/Core/Src/usbh_core.c ****   *         This function includes the complete enumeration process
 813:Middlewares/ST/STM32_USB_Host_Library/Core/Src/usbh_core.c ****   * @param  phost: Host Handle
 814:Middlewares/ST/STM32_USB_Host_Library/Core/Src/usbh_core.c ****   * @retval USBH_Status
 815:Middlewares/ST/STM32_USB_Host_Library/Core/Src/usbh_core.c ****   */
 816:Middlewares/ST/STM32_USB_Host_Library/Core/Src/usbh_core.c **** static USBH_StatusTypeDef USBH_HandleEnum(USBH_HandleTypeDef *phost)
 817:Middlewares/ST/STM32_USB_Host_Library/Core/Src/usbh_core.c **** {
 818:Middlewares/ST/STM32_USB_Host_Library/Core/Src/usbh_core.c ****   USBH_StatusTypeDef Status = USBH_BUSY;
 819:Middlewares/ST/STM32_USB_Host_Library/Core/Src/usbh_core.c ****   USBH_StatusTypeDef ReqStatus = USBH_BUSY;
 820:Middlewares/ST/STM32_USB_Host_Library/Core/Src/usbh_core.c **** 
 821:Middlewares/ST/STM32_USB_Host_Library/Core/Src/usbh_core.c ****   switch (phost->EnumState)
 822:Middlewares/ST/STM32_USB_Host_Library/Core/Src/usbh_core.c ****   {
 823:Middlewares/ST/STM32_USB_Host_Library/Core/Src/usbh_core.c ****     case ENUM_IDLE:
 824:Middlewares/ST/STM32_USB_Host_Library/Core/Src/usbh_core.c ****       /* Get Device Desc for only 1st 8 bytes : To get EP0 MaxPacketSize */
 825:Middlewares/ST/STM32_USB_Host_Library/Core/Src/usbh_core.c ****       ReqStatus = USBH_Get_DevDesc(phost, 8U);
 826:Middlewares/ST/STM32_USB_Host_Library/Core/Src/usbh_core.c ****       if (ReqStatus == USBH_OK)
 827:Middlewares/ST/STM32_USB_Host_Library/Core/Src/usbh_core.c ****       {
 828:Middlewares/ST/STM32_USB_Host_Library/Core/Src/usbh_core.c ****         phost->Control.pipe_size = phost->device.DevDesc.bMaxPacketSize;
 829:Middlewares/ST/STM32_USB_Host_Library/Core/Src/usbh_core.c **** 
 830:Middlewares/ST/STM32_USB_Host_Library/Core/Src/usbh_core.c ****         phost->EnumState = ENUM_GET_FULL_DEV_DESC;
 831:Middlewares/ST/STM32_USB_Host_Library/Core/Src/usbh_core.c **** 
 832:Middlewares/ST/STM32_USB_Host_Library/Core/Src/usbh_core.c ****         /* modify control channels configuration for MaxPacket size */
 833:Middlewares/ST/STM32_USB_Host_Library/Core/Src/usbh_core.c ****         USBH_OpenPipe(phost, phost->Control.pipe_in, 0x80U, phost->device.address,
 834:Middlewares/ST/STM32_USB_Host_Library/Core/Src/usbh_core.c ****                       phost->device.speed, USBH_EP_CONTROL,
 835:Middlewares/ST/STM32_USB_Host_Library/Core/Src/usbh_core.c ****                       (uint16_t)phost->Control.pipe_size);
 836:Middlewares/ST/STM32_USB_Host_Library/Core/Src/usbh_core.c **** 
 837:Middlewares/ST/STM32_USB_Host_Library/Core/Src/usbh_core.c ****         /* Open Control pipes */
 838:Middlewares/ST/STM32_USB_Host_Library/Core/Src/usbh_core.c ****         USBH_OpenPipe(phost, phost->Control.pipe_out, 0x00U, phost->device.address,
 839:Middlewares/ST/STM32_USB_Host_Library/Core/Src/usbh_core.c ****                       phost->device.speed, USBH_EP_CONTROL,
 840:Middlewares/ST/STM32_USB_Host_Library/Core/Src/usbh_core.c ****                       (uint16_t)phost->Control.pipe_size);
 841:Middlewares/ST/STM32_USB_Host_Library/Core/Src/usbh_core.c ****       }
 842:Middlewares/ST/STM32_USB_Host_Library/Core/Src/usbh_core.c ****       else if (ReqStatus == USBH_NOT_SUPPORTED)
 843:Middlewares/ST/STM32_USB_Host_Library/Core/Src/usbh_core.c ****       {
 844:Middlewares/ST/STM32_USB_Host_Library/Core/Src/usbh_core.c ****         USBH_ErrLog("Control error: Get Device Descriptor request failed");
 845:Middlewares/ST/STM32_USB_Host_Library/Core/Src/usbh_core.c ****         phost->device.EnumCnt++;
 846:Middlewares/ST/STM32_USB_Host_Library/Core/Src/usbh_core.c ****         if (phost->device.EnumCnt > 3U)
 847:Middlewares/ST/STM32_USB_Host_Library/Core/Src/usbh_core.c ****         {
 848:Middlewares/ST/STM32_USB_Host_Library/Core/Src/usbh_core.c ****           /* Buggy Device can't complete get device desc request */
 849:Middlewares/ST/STM32_USB_Host_Library/Core/Src/usbh_core.c ****           USBH_UsrLog("Control error, Device not Responding Please unplug the Device.");
 850:Middlewares/ST/STM32_USB_Host_Library/Core/Src/usbh_core.c ****           phost->gState = HOST_ABORT_STATE;
 851:Middlewares/ST/STM32_USB_Host_Library/Core/Src/usbh_core.c ****         }
 852:Middlewares/ST/STM32_USB_Host_Library/Core/Src/usbh_core.c ****         else
 853:Middlewares/ST/STM32_USB_Host_Library/Core/Src/usbh_core.c ****         {
 854:Middlewares/ST/STM32_USB_Host_Library/Core/Src/usbh_core.c ****           /* free control pipes */
 855:Middlewares/ST/STM32_USB_Host_Library/Core/Src/usbh_core.c ****           USBH_FreePipe(phost, phost->Control.pipe_out);
 856:Middlewares/ST/STM32_USB_Host_Library/Core/Src/usbh_core.c ****           USBH_FreePipe(phost, phost->Control.pipe_in);
 857:Middlewares/ST/STM32_USB_Host_Library/Core/Src/usbh_core.c **** 
 858:Middlewares/ST/STM32_USB_Host_Library/Core/Src/usbh_core.c ****           /* Reset the USB Device */
 859:Middlewares/ST/STM32_USB_Host_Library/Core/Src/usbh_core.c ****           phost->gState = HOST_IDLE;
 860:Middlewares/ST/STM32_USB_Host_Library/Core/Src/usbh_core.c ****         }
ARM GAS  C:\Users\User\AppData\Local\Temp\ccMoYMA0.s 			page 18


 861:Middlewares/ST/STM32_USB_Host_Library/Core/Src/usbh_core.c ****       }
 862:Middlewares/ST/STM32_USB_Host_Library/Core/Src/usbh_core.c ****       else
 863:Middlewares/ST/STM32_USB_Host_Library/Core/Src/usbh_core.c ****       {
 864:Middlewares/ST/STM32_USB_Host_Library/Core/Src/usbh_core.c ****         /* .. */
 865:Middlewares/ST/STM32_USB_Host_Library/Core/Src/usbh_core.c ****       }
 866:Middlewares/ST/STM32_USB_Host_Library/Core/Src/usbh_core.c ****       break;
 867:Middlewares/ST/STM32_USB_Host_Library/Core/Src/usbh_core.c **** 
 868:Middlewares/ST/STM32_USB_Host_Library/Core/Src/usbh_core.c ****     case ENUM_GET_FULL_DEV_DESC:
 869:Middlewares/ST/STM32_USB_Host_Library/Core/Src/usbh_core.c ****       /* Get FULL Device Desc  */
 870:Middlewares/ST/STM32_USB_Host_Library/Core/Src/usbh_core.c ****       ReqStatus = USBH_Get_DevDesc(phost, USB_DEVICE_DESC_SIZE);
 871:Middlewares/ST/STM32_USB_Host_Library/Core/Src/usbh_core.c ****       if (ReqStatus == USBH_OK)
 872:Middlewares/ST/STM32_USB_Host_Library/Core/Src/usbh_core.c ****       {
 873:Middlewares/ST/STM32_USB_Host_Library/Core/Src/usbh_core.c ****         USBH_UsrLog("PID: %xh", phost->device.DevDesc.idProduct);
 874:Middlewares/ST/STM32_USB_Host_Library/Core/Src/usbh_core.c ****         USBH_UsrLog("VID: %xh", phost->device.DevDesc.idVendor);
 875:Middlewares/ST/STM32_USB_Host_Library/Core/Src/usbh_core.c **** 
 876:Middlewares/ST/STM32_USB_Host_Library/Core/Src/usbh_core.c ****         phost->EnumState = ENUM_SET_ADDR;
 877:Middlewares/ST/STM32_USB_Host_Library/Core/Src/usbh_core.c ****       }
 878:Middlewares/ST/STM32_USB_Host_Library/Core/Src/usbh_core.c ****       else if (ReqStatus == USBH_NOT_SUPPORTED)
 879:Middlewares/ST/STM32_USB_Host_Library/Core/Src/usbh_core.c ****       {
 880:Middlewares/ST/STM32_USB_Host_Library/Core/Src/usbh_core.c ****         USBH_ErrLog("Control error: Get Full Device Descriptor request failed");
 881:Middlewares/ST/STM32_USB_Host_Library/Core/Src/usbh_core.c ****         phost->device.EnumCnt++;
 882:Middlewares/ST/STM32_USB_Host_Library/Core/Src/usbh_core.c ****         if (phost->device.EnumCnt > 3U)
 883:Middlewares/ST/STM32_USB_Host_Library/Core/Src/usbh_core.c ****         {
 884:Middlewares/ST/STM32_USB_Host_Library/Core/Src/usbh_core.c ****           /* Buggy Device can't complete get device desc request */
 885:Middlewares/ST/STM32_USB_Host_Library/Core/Src/usbh_core.c ****           USBH_UsrLog("Control error, Device not Responding Please unplug the Device.");
 886:Middlewares/ST/STM32_USB_Host_Library/Core/Src/usbh_core.c ****           phost->gState = HOST_ABORT_STATE;
 887:Middlewares/ST/STM32_USB_Host_Library/Core/Src/usbh_core.c ****         }
 888:Middlewares/ST/STM32_USB_Host_Library/Core/Src/usbh_core.c ****         else
 889:Middlewares/ST/STM32_USB_Host_Library/Core/Src/usbh_core.c ****         {
 890:Middlewares/ST/STM32_USB_Host_Library/Core/Src/usbh_core.c ****           /* Free control pipes */
 891:Middlewares/ST/STM32_USB_Host_Library/Core/Src/usbh_core.c ****           USBH_FreePipe(phost, phost->Control.pipe_out);
 892:Middlewares/ST/STM32_USB_Host_Library/Core/Src/usbh_core.c ****           USBH_FreePipe(phost, phost->Control.pipe_in);
 893:Middlewares/ST/STM32_USB_Host_Library/Core/Src/usbh_core.c **** 
 894:Middlewares/ST/STM32_USB_Host_Library/Core/Src/usbh_core.c ****           /* Reset the USB Device */
 895:Middlewares/ST/STM32_USB_Host_Library/Core/Src/usbh_core.c ****           phost->EnumState = ENUM_IDLE;
 896:Middlewares/ST/STM32_USB_Host_Library/Core/Src/usbh_core.c ****           phost->gState = HOST_IDLE;
 897:Middlewares/ST/STM32_USB_Host_Library/Core/Src/usbh_core.c ****         }
 898:Middlewares/ST/STM32_USB_Host_Library/Core/Src/usbh_core.c ****       }
 899:Middlewares/ST/STM32_USB_Host_Library/Core/Src/usbh_core.c ****       else
 900:Middlewares/ST/STM32_USB_Host_Library/Core/Src/usbh_core.c ****       {
 901:Middlewares/ST/STM32_USB_Host_Library/Core/Src/usbh_core.c ****         /* .. */
 902:Middlewares/ST/STM32_USB_Host_Library/Core/Src/usbh_core.c ****       }
 903:Middlewares/ST/STM32_USB_Host_Library/Core/Src/usbh_core.c ****       break;
 904:Middlewares/ST/STM32_USB_Host_Library/Core/Src/usbh_core.c **** 
 905:Middlewares/ST/STM32_USB_Host_Library/Core/Src/usbh_core.c ****     case ENUM_SET_ADDR:
 906:Middlewares/ST/STM32_USB_Host_Library/Core/Src/usbh_core.c ****       /* set address */
 907:Middlewares/ST/STM32_USB_Host_Library/Core/Src/usbh_core.c ****       ReqStatus = USBH_SetAddress(phost, USBH_DEVICE_ADDRESS);
 908:Middlewares/ST/STM32_USB_Host_Library/Core/Src/usbh_core.c ****       if (ReqStatus == USBH_OK)
 909:Middlewares/ST/STM32_USB_Host_Library/Core/Src/usbh_core.c ****       {
 910:Middlewares/ST/STM32_USB_Host_Library/Core/Src/usbh_core.c ****         USBH_Delay(2U);
 911:Middlewares/ST/STM32_USB_Host_Library/Core/Src/usbh_core.c ****         phost->device.address = USBH_DEVICE_ADDRESS;
 912:Middlewares/ST/STM32_USB_Host_Library/Core/Src/usbh_core.c **** 
 913:Middlewares/ST/STM32_USB_Host_Library/Core/Src/usbh_core.c ****         /* user callback for device address assigned */
 914:Middlewares/ST/STM32_USB_Host_Library/Core/Src/usbh_core.c ****         USBH_UsrLog("Address (#%d) assigned.", phost->device.address);
 915:Middlewares/ST/STM32_USB_Host_Library/Core/Src/usbh_core.c ****         phost->EnumState = ENUM_GET_CFG_DESC;
 916:Middlewares/ST/STM32_USB_Host_Library/Core/Src/usbh_core.c **** 
 917:Middlewares/ST/STM32_USB_Host_Library/Core/Src/usbh_core.c ****         /* modify control channels to update device address */
ARM GAS  C:\Users\User\AppData\Local\Temp\ccMoYMA0.s 			page 19


 918:Middlewares/ST/STM32_USB_Host_Library/Core/Src/usbh_core.c ****         USBH_OpenPipe(phost, phost->Control.pipe_in, 0x80U,  phost->device.address,
 919:Middlewares/ST/STM32_USB_Host_Library/Core/Src/usbh_core.c ****                       phost->device.speed, USBH_EP_CONTROL,
 920:Middlewares/ST/STM32_USB_Host_Library/Core/Src/usbh_core.c ****                       (uint16_t)phost->Control.pipe_size);
 921:Middlewares/ST/STM32_USB_Host_Library/Core/Src/usbh_core.c **** 
 922:Middlewares/ST/STM32_USB_Host_Library/Core/Src/usbh_core.c ****         /* Open Control pipes */
 923:Middlewares/ST/STM32_USB_Host_Library/Core/Src/usbh_core.c ****         USBH_OpenPipe(phost, phost->Control.pipe_out, 0x00U, phost->device.address,
 924:Middlewares/ST/STM32_USB_Host_Library/Core/Src/usbh_core.c ****                       phost->device.speed, USBH_EP_CONTROL,
 925:Middlewares/ST/STM32_USB_Host_Library/Core/Src/usbh_core.c ****                       (uint16_t)phost->Control.pipe_size);
 926:Middlewares/ST/STM32_USB_Host_Library/Core/Src/usbh_core.c ****       }
 927:Middlewares/ST/STM32_USB_Host_Library/Core/Src/usbh_core.c ****       else if (ReqStatus == USBH_NOT_SUPPORTED)
 928:Middlewares/ST/STM32_USB_Host_Library/Core/Src/usbh_core.c ****       {
 929:Middlewares/ST/STM32_USB_Host_Library/Core/Src/usbh_core.c ****         USBH_ErrLog("Control error: Device Set Address request failed");
 930:Middlewares/ST/STM32_USB_Host_Library/Core/Src/usbh_core.c **** 
 931:Middlewares/ST/STM32_USB_Host_Library/Core/Src/usbh_core.c ****         /* Buggy Device can't complete get device desc request */
 932:Middlewares/ST/STM32_USB_Host_Library/Core/Src/usbh_core.c ****         USBH_UsrLog("Control error, Device not Responding Please unplug the Device.");
 933:Middlewares/ST/STM32_USB_Host_Library/Core/Src/usbh_core.c ****         phost->gState = HOST_ABORT_STATE;
 934:Middlewares/ST/STM32_USB_Host_Library/Core/Src/usbh_core.c ****         phost->EnumState = ENUM_IDLE;
 935:Middlewares/ST/STM32_USB_Host_Library/Core/Src/usbh_core.c ****       }
 936:Middlewares/ST/STM32_USB_Host_Library/Core/Src/usbh_core.c ****       else
 937:Middlewares/ST/STM32_USB_Host_Library/Core/Src/usbh_core.c ****       {
 938:Middlewares/ST/STM32_USB_Host_Library/Core/Src/usbh_core.c ****         /* .. */
 939:Middlewares/ST/STM32_USB_Host_Library/Core/Src/usbh_core.c ****       }
 940:Middlewares/ST/STM32_USB_Host_Library/Core/Src/usbh_core.c ****       break;
 941:Middlewares/ST/STM32_USB_Host_Library/Core/Src/usbh_core.c **** 
 942:Middlewares/ST/STM32_USB_Host_Library/Core/Src/usbh_core.c ****     case ENUM_GET_CFG_DESC:
 943:Middlewares/ST/STM32_USB_Host_Library/Core/Src/usbh_core.c ****       /* get standard configuration descriptor */
 944:Middlewares/ST/STM32_USB_Host_Library/Core/Src/usbh_core.c ****       ReqStatus = USBH_Get_CfgDesc(phost, USB_CONFIGURATION_DESC_SIZE);
 945:Middlewares/ST/STM32_USB_Host_Library/Core/Src/usbh_core.c ****       if (ReqStatus == USBH_OK)
 946:Middlewares/ST/STM32_USB_Host_Library/Core/Src/usbh_core.c ****       {
 947:Middlewares/ST/STM32_USB_Host_Library/Core/Src/usbh_core.c ****         phost->EnumState = ENUM_GET_FULL_CFG_DESC;
 948:Middlewares/ST/STM32_USB_Host_Library/Core/Src/usbh_core.c ****       }
 949:Middlewares/ST/STM32_USB_Host_Library/Core/Src/usbh_core.c ****       else if (ReqStatus == USBH_NOT_SUPPORTED)
 950:Middlewares/ST/STM32_USB_Host_Library/Core/Src/usbh_core.c ****       {
 951:Middlewares/ST/STM32_USB_Host_Library/Core/Src/usbh_core.c ****         USBH_ErrLog("Control error: Get Device configuration descriptor request failed");
 952:Middlewares/ST/STM32_USB_Host_Library/Core/Src/usbh_core.c ****         phost->device.EnumCnt++;
 953:Middlewares/ST/STM32_USB_Host_Library/Core/Src/usbh_core.c ****         if (phost->device.EnumCnt > 3U)
 954:Middlewares/ST/STM32_USB_Host_Library/Core/Src/usbh_core.c ****         {
 955:Middlewares/ST/STM32_USB_Host_Library/Core/Src/usbh_core.c ****           /* Buggy Device can't complete get device desc request */
 956:Middlewares/ST/STM32_USB_Host_Library/Core/Src/usbh_core.c ****           USBH_UsrLog("Control error, Device not Responding Please unplug the Device.");
 957:Middlewares/ST/STM32_USB_Host_Library/Core/Src/usbh_core.c ****           phost->gState = HOST_ABORT_STATE;
 958:Middlewares/ST/STM32_USB_Host_Library/Core/Src/usbh_core.c ****         }
 959:Middlewares/ST/STM32_USB_Host_Library/Core/Src/usbh_core.c ****         else
 960:Middlewares/ST/STM32_USB_Host_Library/Core/Src/usbh_core.c ****         {
 961:Middlewares/ST/STM32_USB_Host_Library/Core/Src/usbh_core.c ****           /* Free control pipes */
 962:Middlewares/ST/STM32_USB_Host_Library/Core/Src/usbh_core.c ****           USBH_FreePipe(phost, phost->Control.pipe_out);
 963:Middlewares/ST/STM32_USB_Host_Library/Core/Src/usbh_core.c ****           USBH_FreePipe(phost, phost->Control.pipe_in);
 964:Middlewares/ST/STM32_USB_Host_Library/Core/Src/usbh_core.c **** 
 965:Middlewares/ST/STM32_USB_Host_Library/Core/Src/usbh_core.c ****           /* Reset the USB Device */
 966:Middlewares/ST/STM32_USB_Host_Library/Core/Src/usbh_core.c ****           phost->EnumState = ENUM_IDLE;
 967:Middlewares/ST/STM32_USB_Host_Library/Core/Src/usbh_core.c ****           phost->gState = HOST_IDLE;
 968:Middlewares/ST/STM32_USB_Host_Library/Core/Src/usbh_core.c ****         }
 969:Middlewares/ST/STM32_USB_Host_Library/Core/Src/usbh_core.c ****       }
 970:Middlewares/ST/STM32_USB_Host_Library/Core/Src/usbh_core.c ****       else
 971:Middlewares/ST/STM32_USB_Host_Library/Core/Src/usbh_core.c ****       {
 972:Middlewares/ST/STM32_USB_Host_Library/Core/Src/usbh_core.c ****         /* .. */
 973:Middlewares/ST/STM32_USB_Host_Library/Core/Src/usbh_core.c ****       }
 974:Middlewares/ST/STM32_USB_Host_Library/Core/Src/usbh_core.c ****       break;
ARM GAS  C:\Users\User\AppData\Local\Temp\ccMoYMA0.s 			page 20


 975:Middlewares/ST/STM32_USB_Host_Library/Core/Src/usbh_core.c **** 
 976:Middlewares/ST/STM32_USB_Host_Library/Core/Src/usbh_core.c ****     case ENUM_GET_FULL_CFG_DESC:
 977:Middlewares/ST/STM32_USB_Host_Library/Core/Src/usbh_core.c ****       /* get FULL config descriptor (config, interface, endpoints) */
 978:Middlewares/ST/STM32_USB_Host_Library/Core/Src/usbh_core.c ****       ReqStatus = USBH_Get_CfgDesc(phost, phost->device.CfgDesc.wTotalLength);
 979:Middlewares/ST/STM32_USB_Host_Library/Core/Src/usbh_core.c ****       if (ReqStatus == USBH_OK)
 980:Middlewares/ST/STM32_USB_Host_Library/Core/Src/usbh_core.c ****       {
 981:Middlewares/ST/STM32_USB_Host_Library/Core/Src/usbh_core.c ****         phost->EnumState = ENUM_GET_MFC_STRING_DESC;
 982:Middlewares/ST/STM32_USB_Host_Library/Core/Src/usbh_core.c ****       }
 983:Middlewares/ST/STM32_USB_Host_Library/Core/Src/usbh_core.c ****       else if (ReqStatus == USBH_NOT_SUPPORTED)
 984:Middlewares/ST/STM32_USB_Host_Library/Core/Src/usbh_core.c ****       {
 985:Middlewares/ST/STM32_USB_Host_Library/Core/Src/usbh_core.c ****         USBH_ErrLog("Control error: Get Device configuration descriptor request failed");
 986:Middlewares/ST/STM32_USB_Host_Library/Core/Src/usbh_core.c ****         phost->device.EnumCnt++;
 987:Middlewares/ST/STM32_USB_Host_Library/Core/Src/usbh_core.c ****         if (phost->device.EnumCnt > 3U)
 988:Middlewares/ST/STM32_USB_Host_Library/Core/Src/usbh_core.c ****         {
 989:Middlewares/ST/STM32_USB_Host_Library/Core/Src/usbh_core.c ****           /* Buggy Device can't complete get device desc request */
 990:Middlewares/ST/STM32_USB_Host_Library/Core/Src/usbh_core.c ****           USBH_UsrLog("Control error, Device not Responding Please unplug the Device.");
 991:Middlewares/ST/STM32_USB_Host_Library/Core/Src/usbh_core.c ****           phost->gState = HOST_ABORT_STATE;
 992:Middlewares/ST/STM32_USB_Host_Library/Core/Src/usbh_core.c ****         }
 993:Middlewares/ST/STM32_USB_Host_Library/Core/Src/usbh_core.c ****         else
 994:Middlewares/ST/STM32_USB_Host_Library/Core/Src/usbh_core.c ****         {
 995:Middlewares/ST/STM32_USB_Host_Library/Core/Src/usbh_core.c ****           /* Free control pipes */
 996:Middlewares/ST/STM32_USB_Host_Library/Core/Src/usbh_core.c ****           USBH_FreePipe(phost, phost->Control.pipe_out);
 997:Middlewares/ST/STM32_USB_Host_Library/Core/Src/usbh_core.c ****           USBH_FreePipe(phost, phost->Control.pipe_in);
 998:Middlewares/ST/STM32_USB_Host_Library/Core/Src/usbh_core.c **** 
 999:Middlewares/ST/STM32_USB_Host_Library/Core/Src/usbh_core.c ****           /* Reset the USB Device */
1000:Middlewares/ST/STM32_USB_Host_Library/Core/Src/usbh_core.c ****           phost->EnumState = ENUM_IDLE;
1001:Middlewares/ST/STM32_USB_Host_Library/Core/Src/usbh_core.c ****           phost->gState = HOST_IDLE;
1002:Middlewares/ST/STM32_USB_Host_Library/Core/Src/usbh_core.c ****         }
1003:Middlewares/ST/STM32_USB_Host_Library/Core/Src/usbh_core.c ****       }
1004:Middlewares/ST/STM32_USB_Host_Library/Core/Src/usbh_core.c ****       else
1005:Middlewares/ST/STM32_USB_Host_Library/Core/Src/usbh_core.c ****       {
1006:Middlewares/ST/STM32_USB_Host_Library/Core/Src/usbh_core.c ****         /* .. */
1007:Middlewares/ST/STM32_USB_Host_Library/Core/Src/usbh_core.c ****       }
1008:Middlewares/ST/STM32_USB_Host_Library/Core/Src/usbh_core.c ****       break;
1009:Middlewares/ST/STM32_USB_Host_Library/Core/Src/usbh_core.c **** 
1010:Middlewares/ST/STM32_USB_Host_Library/Core/Src/usbh_core.c ****     case ENUM_GET_MFC_STRING_DESC:
1011:Middlewares/ST/STM32_USB_Host_Library/Core/Src/usbh_core.c ****       if (phost->device.DevDesc.iManufacturer != 0U)
1012:Middlewares/ST/STM32_USB_Host_Library/Core/Src/usbh_core.c ****       {
1013:Middlewares/ST/STM32_USB_Host_Library/Core/Src/usbh_core.c ****         /* Check that Manufacturer String is available */
1014:Middlewares/ST/STM32_USB_Host_Library/Core/Src/usbh_core.c ****         ReqStatus = USBH_Get_StringDesc(phost, phost->device.DevDesc.iManufacturer,
1015:Middlewares/ST/STM32_USB_Host_Library/Core/Src/usbh_core.c ****                                         phost->device.Data, 0xFFU);
1016:Middlewares/ST/STM32_USB_Host_Library/Core/Src/usbh_core.c ****         if (ReqStatus == USBH_OK)
1017:Middlewares/ST/STM32_USB_Host_Library/Core/Src/usbh_core.c ****         {
1018:Middlewares/ST/STM32_USB_Host_Library/Core/Src/usbh_core.c ****           /* User callback for Manufacturing string */
1019:Middlewares/ST/STM32_USB_Host_Library/Core/Src/usbh_core.c ****           USBH_UsrLog("Manufacturer : %s", (char *)(void *)phost->device.Data);
1020:Middlewares/ST/STM32_USB_Host_Library/Core/Src/usbh_core.c ****           phost->EnumState = ENUM_GET_PRODUCT_STRING_DESC;
1021:Middlewares/ST/STM32_USB_Host_Library/Core/Src/usbh_core.c **** 
1022:Middlewares/ST/STM32_USB_Host_Library/Core/Src/usbh_core.c **** #if (USBH_USE_OS == 1U)
1023:Middlewares/ST/STM32_USB_Host_Library/Core/Src/usbh_core.c ****           phost->os_msg = (uint32_t)USBH_STATE_CHANGED_EVENT;
1024:Middlewares/ST/STM32_USB_Host_Library/Core/Src/usbh_core.c **** #if (osCMSIS < 0x20000U)
1025:Middlewares/ST/STM32_USB_Host_Library/Core/Src/usbh_core.c ****           (void)osMessagePut(phost->os_event, phost->os_msg, 0U);
1026:Middlewares/ST/STM32_USB_Host_Library/Core/Src/usbh_core.c **** #else
1027:Middlewares/ST/STM32_USB_Host_Library/Core/Src/usbh_core.c ****           (void)osMessageQueuePut(phost->os_event, &phost->os_msg, 0U, NULL);
1028:Middlewares/ST/STM32_USB_Host_Library/Core/Src/usbh_core.c **** #endif
1029:Middlewares/ST/STM32_USB_Host_Library/Core/Src/usbh_core.c **** #endif
1030:Middlewares/ST/STM32_USB_Host_Library/Core/Src/usbh_core.c ****         }
1031:Middlewares/ST/STM32_USB_Host_Library/Core/Src/usbh_core.c ****         else if (ReqStatus == USBH_NOT_SUPPORTED)
ARM GAS  C:\Users\User\AppData\Local\Temp\ccMoYMA0.s 			page 21


1032:Middlewares/ST/STM32_USB_Host_Library/Core/Src/usbh_core.c ****         {
1033:Middlewares/ST/STM32_USB_Host_Library/Core/Src/usbh_core.c ****           USBH_UsrLog("Manufacturer : N/A");
1034:Middlewares/ST/STM32_USB_Host_Library/Core/Src/usbh_core.c ****           phost->EnumState = ENUM_GET_PRODUCT_STRING_DESC;
1035:Middlewares/ST/STM32_USB_Host_Library/Core/Src/usbh_core.c **** 
1036:Middlewares/ST/STM32_USB_Host_Library/Core/Src/usbh_core.c **** #if (USBH_USE_OS == 1U)
1037:Middlewares/ST/STM32_USB_Host_Library/Core/Src/usbh_core.c ****           phost->os_msg = (uint32_t)USBH_STATE_CHANGED_EVENT;
1038:Middlewares/ST/STM32_USB_Host_Library/Core/Src/usbh_core.c **** #if (osCMSIS < 0x20000U)
1039:Middlewares/ST/STM32_USB_Host_Library/Core/Src/usbh_core.c ****           (void)osMessagePut(phost->os_event, phost->os_msg, 0U);
1040:Middlewares/ST/STM32_USB_Host_Library/Core/Src/usbh_core.c **** #else
1041:Middlewares/ST/STM32_USB_Host_Library/Core/Src/usbh_core.c ****           (void)osMessageQueuePut(phost->os_event, &phost->os_msg, 0U, NULL);
1042:Middlewares/ST/STM32_USB_Host_Library/Core/Src/usbh_core.c **** #endif
1043:Middlewares/ST/STM32_USB_Host_Library/Core/Src/usbh_core.c **** #endif
1044:Middlewares/ST/STM32_USB_Host_Library/Core/Src/usbh_core.c ****         }
1045:Middlewares/ST/STM32_USB_Host_Library/Core/Src/usbh_core.c ****         else
1046:Middlewares/ST/STM32_USB_Host_Library/Core/Src/usbh_core.c ****         {
1047:Middlewares/ST/STM32_USB_Host_Library/Core/Src/usbh_core.c ****           /* .. */
1048:Middlewares/ST/STM32_USB_Host_Library/Core/Src/usbh_core.c ****         }
1049:Middlewares/ST/STM32_USB_Host_Library/Core/Src/usbh_core.c ****       }
1050:Middlewares/ST/STM32_USB_Host_Library/Core/Src/usbh_core.c ****       else
1051:Middlewares/ST/STM32_USB_Host_Library/Core/Src/usbh_core.c ****       {
1052:Middlewares/ST/STM32_USB_Host_Library/Core/Src/usbh_core.c ****         USBH_UsrLog("Manufacturer : N/A");
1053:Middlewares/ST/STM32_USB_Host_Library/Core/Src/usbh_core.c ****         phost->EnumState = ENUM_GET_PRODUCT_STRING_DESC;
1054:Middlewares/ST/STM32_USB_Host_Library/Core/Src/usbh_core.c **** 
1055:Middlewares/ST/STM32_USB_Host_Library/Core/Src/usbh_core.c **** #if (USBH_USE_OS == 1U)
1056:Middlewares/ST/STM32_USB_Host_Library/Core/Src/usbh_core.c ****         phost->os_msg = (uint32_t)USBH_STATE_CHANGED_EVENT;
1057:Middlewares/ST/STM32_USB_Host_Library/Core/Src/usbh_core.c **** #if (osCMSIS < 0x20000U)
1058:Middlewares/ST/STM32_USB_Host_Library/Core/Src/usbh_core.c ****         (void)osMessagePut(phost->os_event, phost->os_msg, 0U);
1059:Middlewares/ST/STM32_USB_Host_Library/Core/Src/usbh_core.c **** #else
1060:Middlewares/ST/STM32_USB_Host_Library/Core/Src/usbh_core.c ****         (void)osMessageQueuePut(phost->os_event, &phost->os_msg, 0U, NULL);
1061:Middlewares/ST/STM32_USB_Host_Library/Core/Src/usbh_core.c **** #endif
1062:Middlewares/ST/STM32_USB_Host_Library/Core/Src/usbh_core.c **** #endif
1063:Middlewares/ST/STM32_USB_Host_Library/Core/Src/usbh_core.c ****       }
1064:Middlewares/ST/STM32_USB_Host_Library/Core/Src/usbh_core.c ****       break;
1065:Middlewares/ST/STM32_USB_Host_Library/Core/Src/usbh_core.c **** 
1066:Middlewares/ST/STM32_USB_Host_Library/Core/Src/usbh_core.c ****     case ENUM_GET_PRODUCT_STRING_DESC:
1067:Middlewares/ST/STM32_USB_Host_Library/Core/Src/usbh_core.c ****       if (phost->device.DevDesc.iProduct != 0U)
1068:Middlewares/ST/STM32_USB_Host_Library/Core/Src/usbh_core.c ****       {
1069:Middlewares/ST/STM32_USB_Host_Library/Core/Src/usbh_core.c ****         /* Check that Product string is available */
1070:Middlewares/ST/STM32_USB_Host_Library/Core/Src/usbh_core.c ****         ReqStatus = USBH_Get_StringDesc(phost, phost->device.DevDesc.iProduct,
1071:Middlewares/ST/STM32_USB_Host_Library/Core/Src/usbh_core.c ****                                         phost->device.Data, 0xFFU);
1072:Middlewares/ST/STM32_USB_Host_Library/Core/Src/usbh_core.c ****         if (ReqStatus == USBH_OK)
1073:Middlewares/ST/STM32_USB_Host_Library/Core/Src/usbh_core.c ****         {
1074:Middlewares/ST/STM32_USB_Host_Library/Core/Src/usbh_core.c ****           /* User callback for Product string */
1075:Middlewares/ST/STM32_USB_Host_Library/Core/Src/usbh_core.c ****           USBH_UsrLog("Product : %s", (char *)(void *)phost->device.Data);
1076:Middlewares/ST/STM32_USB_Host_Library/Core/Src/usbh_core.c ****           phost->EnumState = ENUM_GET_SERIALNUM_STRING_DESC;
1077:Middlewares/ST/STM32_USB_Host_Library/Core/Src/usbh_core.c ****         }
1078:Middlewares/ST/STM32_USB_Host_Library/Core/Src/usbh_core.c ****         else if (ReqStatus == USBH_NOT_SUPPORTED)
1079:Middlewares/ST/STM32_USB_Host_Library/Core/Src/usbh_core.c ****         {
1080:Middlewares/ST/STM32_USB_Host_Library/Core/Src/usbh_core.c ****           USBH_UsrLog("Product : N/A");
1081:Middlewares/ST/STM32_USB_Host_Library/Core/Src/usbh_core.c ****           phost->EnumState = ENUM_GET_SERIALNUM_STRING_DESC;
1082:Middlewares/ST/STM32_USB_Host_Library/Core/Src/usbh_core.c **** 
1083:Middlewares/ST/STM32_USB_Host_Library/Core/Src/usbh_core.c **** #if (USBH_USE_OS == 1U)
1084:Middlewares/ST/STM32_USB_Host_Library/Core/Src/usbh_core.c ****           phost->os_msg = (uint32_t)USBH_STATE_CHANGED_EVENT;
1085:Middlewares/ST/STM32_USB_Host_Library/Core/Src/usbh_core.c **** #if (osCMSIS < 0x20000U)
1086:Middlewares/ST/STM32_USB_Host_Library/Core/Src/usbh_core.c ****           (void)osMessagePut(phost->os_event, phost->os_msg, 0U);
1087:Middlewares/ST/STM32_USB_Host_Library/Core/Src/usbh_core.c **** #else
1088:Middlewares/ST/STM32_USB_Host_Library/Core/Src/usbh_core.c ****           (void)osMessageQueuePut(phost->os_event, &phost->os_msg, 0U, NULL);
ARM GAS  C:\Users\User\AppData\Local\Temp\ccMoYMA0.s 			page 22


1089:Middlewares/ST/STM32_USB_Host_Library/Core/Src/usbh_core.c **** #endif
1090:Middlewares/ST/STM32_USB_Host_Library/Core/Src/usbh_core.c **** #endif
1091:Middlewares/ST/STM32_USB_Host_Library/Core/Src/usbh_core.c ****         }
1092:Middlewares/ST/STM32_USB_Host_Library/Core/Src/usbh_core.c ****         else
1093:Middlewares/ST/STM32_USB_Host_Library/Core/Src/usbh_core.c ****         {
1094:Middlewares/ST/STM32_USB_Host_Library/Core/Src/usbh_core.c ****           /* .. */
1095:Middlewares/ST/STM32_USB_Host_Library/Core/Src/usbh_core.c ****         }
1096:Middlewares/ST/STM32_USB_Host_Library/Core/Src/usbh_core.c ****       }
1097:Middlewares/ST/STM32_USB_Host_Library/Core/Src/usbh_core.c ****       else
1098:Middlewares/ST/STM32_USB_Host_Library/Core/Src/usbh_core.c ****       {
1099:Middlewares/ST/STM32_USB_Host_Library/Core/Src/usbh_core.c ****         USBH_UsrLog("Product : N/A");
1100:Middlewares/ST/STM32_USB_Host_Library/Core/Src/usbh_core.c ****         phost->EnumState = ENUM_GET_SERIALNUM_STRING_DESC;
1101:Middlewares/ST/STM32_USB_Host_Library/Core/Src/usbh_core.c **** 
1102:Middlewares/ST/STM32_USB_Host_Library/Core/Src/usbh_core.c **** #if (USBH_USE_OS == 1U)
1103:Middlewares/ST/STM32_USB_Host_Library/Core/Src/usbh_core.c ****         phost->os_msg = (uint32_t)USBH_STATE_CHANGED_EVENT;
1104:Middlewares/ST/STM32_USB_Host_Library/Core/Src/usbh_core.c **** #if (osCMSIS < 0x20000U)
1105:Middlewares/ST/STM32_USB_Host_Library/Core/Src/usbh_core.c ****         (void)osMessagePut(phost->os_event, phost->os_msg, 0U);
1106:Middlewares/ST/STM32_USB_Host_Library/Core/Src/usbh_core.c **** #else
1107:Middlewares/ST/STM32_USB_Host_Library/Core/Src/usbh_core.c ****         (void)osMessageQueuePut(phost->os_event, &phost->os_msg, 0U, NULL);
1108:Middlewares/ST/STM32_USB_Host_Library/Core/Src/usbh_core.c **** #endif
1109:Middlewares/ST/STM32_USB_Host_Library/Core/Src/usbh_core.c **** #endif
1110:Middlewares/ST/STM32_USB_Host_Library/Core/Src/usbh_core.c ****       }
1111:Middlewares/ST/STM32_USB_Host_Library/Core/Src/usbh_core.c ****       break;
1112:Middlewares/ST/STM32_USB_Host_Library/Core/Src/usbh_core.c **** 
1113:Middlewares/ST/STM32_USB_Host_Library/Core/Src/usbh_core.c ****     case ENUM_GET_SERIALNUM_STRING_DESC:
1114:Middlewares/ST/STM32_USB_Host_Library/Core/Src/usbh_core.c ****       if (phost->device.DevDesc.iSerialNumber != 0U)
1115:Middlewares/ST/STM32_USB_Host_Library/Core/Src/usbh_core.c ****       {
1116:Middlewares/ST/STM32_USB_Host_Library/Core/Src/usbh_core.c ****         /* Check that Serial number string is available */
1117:Middlewares/ST/STM32_USB_Host_Library/Core/Src/usbh_core.c ****         ReqStatus = USBH_Get_StringDesc(phost, phost->device.DevDesc.iSerialNumber,
1118:Middlewares/ST/STM32_USB_Host_Library/Core/Src/usbh_core.c ****                                         phost->device.Data, 0xFFU);
1119:Middlewares/ST/STM32_USB_Host_Library/Core/Src/usbh_core.c ****         if (ReqStatus == USBH_OK)
1120:Middlewares/ST/STM32_USB_Host_Library/Core/Src/usbh_core.c ****         {
1121:Middlewares/ST/STM32_USB_Host_Library/Core/Src/usbh_core.c ****           /* User callback for Serial number string */
1122:Middlewares/ST/STM32_USB_Host_Library/Core/Src/usbh_core.c ****           USBH_UsrLog("Serial Number : %s", (char *)(void *)phost->device.Data);
1123:Middlewares/ST/STM32_USB_Host_Library/Core/Src/usbh_core.c ****           Status = USBH_OK;
1124:Middlewares/ST/STM32_USB_Host_Library/Core/Src/usbh_core.c ****         }
1125:Middlewares/ST/STM32_USB_Host_Library/Core/Src/usbh_core.c ****         else if (ReqStatus == USBH_NOT_SUPPORTED)
1126:Middlewares/ST/STM32_USB_Host_Library/Core/Src/usbh_core.c ****         {
1127:Middlewares/ST/STM32_USB_Host_Library/Core/Src/usbh_core.c ****           USBH_UsrLog("Serial Number : N/A");
1128:Middlewares/ST/STM32_USB_Host_Library/Core/Src/usbh_core.c ****           Status = USBH_OK;
1129:Middlewares/ST/STM32_USB_Host_Library/Core/Src/usbh_core.c ****         }
1130:Middlewares/ST/STM32_USB_Host_Library/Core/Src/usbh_core.c ****         else
1131:Middlewares/ST/STM32_USB_Host_Library/Core/Src/usbh_core.c ****         {
1132:Middlewares/ST/STM32_USB_Host_Library/Core/Src/usbh_core.c ****           /* .. */
1133:Middlewares/ST/STM32_USB_Host_Library/Core/Src/usbh_core.c ****         }
1134:Middlewares/ST/STM32_USB_Host_Library/Core/Src/usbh_core.c ****       }
1135:Middlewares/ST/STM32_USB_Host_Library/Core/Src/usbh_core.c ****       else
1136:Middlewares/ST/STM32_USB_Host_Library/Core/Src/usbh_core.c ****       {
1137:Middlewares/ST/STM32_USB_Host_Library/Core/Src/usbh_core.c ****         USBH_UsrLog("Serial Number : N/A");
1138:Middlewares/ST/STM32_USB_Host_Library/Core/Src/usbh_core.c ****         Status = USBH_OK;
1139:Middlewares/ST/STM32_USB_Host_Library/Core/Src/usbh_core.c ****       }
1140:Middlewares/ST/STM32_USB_Host_Library/Core/Src/usbh_core.c ****       break;
1141:Middlewares/ST/STM32_USB_Host_Library/Core/Src/usbh_core.c **** 
1142:Middlewares/ST/STM32_USB_Host_Library/Core/Src/usbh_core.c ****     default:
1143:Middlewares/ST/STM32_USB_Host_Library/Core/Src/usbh_core.c ****       break;
1144:Middlewares/ST/STM32_USB_Host_Library/Core/Src/usbh_core.c ****   }
1145:Middlewares/ST/STM32_USB_Host_Library/Core/Src/usbh_core.c ****   return Status;
ARM GAS  C:\Users\User\AppData\Local\Temp\ccMoYMA0.s 			page 23


1146:Middlewares/ST/STM32_USB_Host_Library/Core/Src/usbh_core.c **** }
1147:Middlewares/ST/STM32_USB_Host_Library/Core/Src/usbh_core.c **** 
1148:Middlewares/ST/STM32_USB_Host_Library/Core/Src/usbh_core.c **** 
1149:Middlewares/ST/STM32_USB_Host_Library/Core/Src/usbh_core.c **** /**
1150:Middlewares/ST/STM32_USB_Host_Library/Core/Src/usbh_core.c ****   * @brief  USBH_LL_SetTimer
1151:Middlewares/ST/STM32_USB_Host_Library/Core/Src/usbh_core.c ****   *         Set the initial Host Timer tick
1152:Middlewares/ST/STM32_USB_Host_Library/Core/Src/usbh_core.c ****   * @param  phost: Host Handle
1153:Middlewares/ST/STM32_USB_Host_Library/Core/Src/usbh_core.c ****   * @retval None
1154:Middlewares/ST/STM32_USB_Host_Library/Core/Src/usbh_core.c ****   */
1155:Middlewares/ST/STM32_USB_Host_Library/Core/Src/usbh_core.c **** void  USBH_LL_SetTimer(USBH_HandleTypeDef *phost, uint32_t time)
1156:Middlewares/ST/STM32_USB_Host_Library/Core/Src/usbh_core.c **** {
1157:Middlewares/ST/STM32_USB_Host_Library/Core/Src/usbh_core.c ****   phost->Timer = time;
1158:Middlewares/ST/STM32_USB_Host_Library/Core/Src/usbh_core.c **** }
1159:Middlewares/ST/STM32_USB_Host_Library/Core/Src/usbh_core.c **** 
1160:Middlewares/ST/STM32_USB_Host_Library/Core/Src/usbh_core.c **** 
1161:Middlewares/ST/STM32_USB_Host_Library/Core/Src/usbh_core.c **** /**
1162:Middlewares/ST/STM32_USB_Host_Library/Core/Src/usbh_core.c ****   * @brief  USBH_LL_IncTimer
1163:Middlewares/ST/STM32_USB_Host_Library/Core/Src/usbh_core.c ****   *         Increment Host Timer tick
1164:Middlewares/ST/STM32_USB_Host_Library/Core/Src/usbh_core.c ****   * @param  phost: Host Handle
1165:Middlewares/ST/STM32_USB_Host_Library/Core/Src/usbh_core.c ****   * @retval None
1166:Middlewares/ST/STM32_USB_Host_Library/Core/Src/usbh_core.c ****   */
1167:Middlewares/ST/STM32_USB_Host_Library/Core/Src/usbh_core.c **** void  USBH_LL_IncTimer(USBH_HandleTypeDef *phost)
1168:Middlewares/ST/STM32_USB_Host_Library/Core/Src/usbh_core.c **** {
1169:Middlewares/ST/STM32_USB_Host_Library/Core/Src/usbh_core.c ****   phost->Timer++;
1170:Middlewares/ST/STM32_USB_Host_Library/Core/Src/usbh_core.c ****   USBH_HandleSof(phost);
1171:Middlewares/ST/STM32_USB_Host_Library/Core/Src/usbh_core.c **** }
1172:Middlewares/ST/STM32_USB_Host_Library/Core/Src/usbh_core.c **** 
1173:Middlewares/ST/STM32_USB_Host_Library/Core/Src/usbh_core.c **** 
1174:Middlewares/ST/STM32_USB_Host_Library/Core/Src/usbh_core.c **** /**
1175:Middlewares/ST/STM32_USB_Host_Library/Core/Src/usbh_core.c ****   * @brief  USBH_HandleSof
1176:Middlewares/ST/STM32_USB_Host_Library/Core/Src/usbh_core.c ****   *         Call SOF process
1177:Middlewares/ST/STM32_USB_Host_Library/Core/Src/usbh_core.c ****   * @param  phost: Host Handle
1178:Middlewares/ST/STM32_USB_Host_Library/Core/Src/usbh_core.c ****   * @retval None
1179:Middlewares/ST/STM32_USB_Host_Library/Core/Src/usbh_core.c ****   */
1180:Middlewares/ST/STM32_USB_Host_Library/Core/Src/usbh_core.c **** static void  USBH_HandleSof(USBH_HandleTypeDef *phost)
1181:Middlewares/ST/STM32_USB_Host_Library/Core/Src/usbh_core.c **** {
 109              		.loc 1 1181 0
 110              		.cfi_startproc
 111              		@ args = 0, pretend = 0, frame = 0
 112              		@ frame_needed = 0, uses_anonymous_args = 0
 113              	.LVL8:
 114 0000 08B5     		push	{r3, lr}
 115              	.LCFI0:
 116              		.cfi_def_cfa_offset 8
 117              		.cfi_offset 3, -8
 118              		.cfi_offset 14, -4
1182:Middlewares/ST/STM32_USB_Host_Library/Core/Src/usbh_core.c ****   if ((phost->gState == HOST_CLASS) && (phost->pActiveClass != NULL))
 119              		.loc 1 1182 0
 120 0002 0378     		ldrb	r3, [r0]	@ zero_extendqisi2
 121 0004 DBB2     		uxtb	r3, r3
 122 0006 0B2B     		cmp	r3, #11
 123 0008 00D0     		beq	.L9
 124              	.LVL9:
 125              	.L6:
1183:Middlewares/ST/STM32_USB_Host_Library/Core/Src/usbh_core.c ****   {
1184:Middlewares/ST/STM32_USB_Host_Library/Core/Src/usbh_core.c ****     phost->pActiveClass->SOFProcess(phost);
1185:Middlewares/ST/STM32_USB_Host_Library/Core/Src/usbh_core.c ****   }
ARM GAS  C:\Users\User\AppData\Local\Temp\ccMoYMA0.s 			page 24


1186:Middlewares/ST/STM32_USB_Host_Library/Core/Src/usbh_core.c **** }
 126              		.loc 1 1186 0
 127 000a 08BD     		pop	{r3, pc}
 128              	.LVL10:
 129              	.L9:
1182:Middlewares/ST/STM32_USB_Host_Library/Core/Src/usbh_core.c ****   if ((phost->gState == HOST_CLASS) && (phost->pActiveClass != NULL))
 130              		.loc 1 1182 0 discriminator 1
 131 000c D0F87C33 		ldr	r3, [r0, #892]
 132 0010 002B     		cmp	r3, #0
 133 0012 FAD0     		beq	.L6
1184:Middlewares/ST/STM32_USB_Host_Library/Core/Src/usbh_core.c ****   }
 134              		.loc 1 1184 0
 135 0014 9B69     		ldr	r3, [r3, #24]
 136 0016 9847     		blx	r3
 137              	.LVL11:
 138              		.loc 1 1186 0
 139 0018 F7E7     		b	.L6
 140              		.cfi_endproc
 141              	.LFE148:
 143              		.section	.text.USBH_HandleEnum,"ax",%progbits
 144              		.align	1
 145              		.syntax unified
 146              		.thumb
 147              		.thumb_func
 148              		.fpu fpv4-sp-d16
 150              	USBH_HandleEnum:
 151              	.LFB145:
 817:Middlewares/ST/STM32_USB_Host_Library/Core/Src/usbh_core.c ****   USBH_StatusTypeDef Status = USBH_BUSY;
 152              		.loc 1 817 0
 153              		.cfi_startproc
 154              		@ args = 0, pretend = 0, frame = 0
 155              		@ frame_needed = 0, uses_anonymous_args = 0
 156              	.LVL12:
 157 0000 70B5     		push	{r4, r5, r6, lr}
 158              	.LCFI1:
 159              		.cfi_def_cfa_offset 16
 160              		.cfi_offset 4, -16
 161              		.cfi_offset 5, -12
 162              		.cfi_offset 6, -8
 163              		.cfi_offset 14, -4
 164 0002 84B0     		sub	sp, sp, #16
 165              	.LCFI2:
 166              		.cfi_def_cfa_offset 32
 167 0004 0446     		mov	r4, r0
 168              	.LVL13:
 821:Middlewares/ST/STM32_USB_Host_Library/Core/Src/usbh_core.c ****   {
 169              		.loc 1 821 0
 170 0006 4378     		ldrb	r3, [r0, #1]	@ zero_extendqisi2
 171 0008 072B     		cmp	r3, #7
 172 000a 00F23081 		bhi	.L34
 173 000e DFE813F0 		tbh	[pc, r3, lsl #1]
 174              	.L13:
 175 0012 0800     		.2byte	(.L12-.L13)/2
 176 0014 4800     		.2byte	(.L14-.L13)/2
 177 0016 6D00     		.2byte	(.L15-.L13)/2
 178 0018 9E00     		.2byte	(.L16-.L13)/2
 179 001a C300     		.2byte	(.L17-.L13)/2
ARM GAS  C:\Users\User\AppData\Local\Temp\ccMoYMA0.s 			page 25


 180 001c E900     		.2byte	(.L18-.L13)/2
 181 001e 0401     		.2byte	(.L19-.L13)/2
 182 0020 1D01     		.2byte	(.L20-.L13)/2
 183              		.p2align 1
 184              	.L12:
 825:Middlewares/ST/STM32_USB_Host_Library/Core/Src/usbh_core.c ****       if (ReqStatus == USBH_OK)
 185              		.loc 1 825 0
 186 0022 0821     		movs	r1, #8
 187 0024 FFF7FEFF 		bl	USBH_Get_DevDesc
 188              	.LVL14:
 826:Middlewares/ST/STM32_USB_Host_Library/Core/Src/usbh_core.c ****       {
 189              		.loc 1 826 0
 190 0028 18B1     		cbz	r0, .L45
 842:Middlewares/ST/STM32_USB_Host_Library/Core/Src/usbh_core.c ****       {
 191              		.loc 1 842 0
 192 002a 0328     		cmp	r0, #3
 193 002c 21D0     		beq	.L46
 818:Middlewares/ST/STM32_USB_Host_Library/Core/Src/usbh_core.c ****   USBH_StatusTypeDef ReqStatus = USBH_BUSY;
 194              		.loc 1 818 0
 195 002e 0125     		movs	r5, #1
 196 0030 DEE0     		b	.L11
 197              	.L45:
 828:Middlewares/ST/STM32_USB_Host_Library/Core/Src/usbh_core.c **** 
 198              		.loc 1 828 0
 199 0032 94F82D23 		ldrb	r2, [r4, #813]	@ zero_extendqisi2
 200 0036 A271     		strb	r2, [r4, #6]
 830:Middlewares/ST/STM32_USB_Host_Library/Core/Src/usbh_core.c **** 
 201              		.loc 1 830 0
 202 0038 0125     		movs	r5, #1
 203 003a 6570     		strb	r5, [r4, #1]
 833:Middlewares/ST/STM32_USB_Host_Library/Core/Src/usbh_core.c ****                       phost->device.speed, USBH_EP_CONTROL,
 204              		.loc 1 833 0
 205 003c 94F81C33 		ldrb	r3, [r4, #796]	@ zero_extendqisi2
 206 0040 2179     		ldrb	r1, [r4, #4]	@ zero_extendqisi2
 207 0042 0292     		str	r2, [sp, #8]
 208 0044 0026     		movs	r6, #0
 209 0046 0196     		str	r6, [sp, #4]
 210 0048 94F81D23 		ldrb	r2, [r4, #797]	@ zero_extendqisi2
 211 004c 0092     		str	r2, [sp]
 212 004e 8022     		movs	r2, #128
 213 0050 2046     		mov	r0, r4
 214              	.LVL15:
 215 0052 FFF7FEFF 		bl	USBH_OpenPipe
 216              	.LVL16:
 838:Middlewares/ST/STM32_USB_Host_Library/Core/Src/usbh_core.c ****                       phost->device.speed, USBH_EP_CONTROL,
 217              		.loc 1 838 0
 218 0056 94F81C33 		ldrb	r3, [r4, #796]	@ zero_extendqisi2
 219 005a 6179     		ldrb	r1, [r4, #5]	@ zero_extendqisi2
 220 005c A279     		ldrb	r2, [r4, #6]	@ zero_extendqisi2
 221 005e 0292     		str	r2, [sp, #8]
 222 0060 0196     		str	r6, [sp, #4]
 223 0062 94F81D23 		ldrb	r2, [r4, #797]	@ zero_extendqisi2
 224 0066 0092     		str	r2, [sp]
 225 0068 3246     		mov	r2, r6
 226 006a 2046     		mov	r0, r4
 227 006c FFF7FEFF 		bl	USBH_OpenPipe
 228              	.LVL17:
ARM GAS  C:\Users\User\AppData\Local\Temp\ccMoYMA0.s 			page 26


 229 0070 BEE0     		b	.L11
 230              	.LVL18:
 231              	.L46:
 845:Middlewares/ST/STM32_USB_Host_Library/Core/Src/usbh_core.c ****         if (phost->device.EnumCnt > 3U)
 232              		.loc 1 845 0
 233 0072 94F81E33 		ldrb	r3, [r4, #798]	@ zero_extendqisi2
 234 0076 0133     		adds	r3, r3, #1
 235 0078 DBB2     		uxtb	r3, r3
 236 007a 84F81E33 		strb	r3, [r4, #798]
 846:Middlewares/ST/STM32_USB_Host_Library/Core/Src/usbh_core.c ****         {
 237              		.loc 1 846 0
 238 007e 032B     		cmp	r3, #3
 239 0080 03D9     		bls	.L22
 850:Middlewares/ST/STM32_USB_Host_Library/Core/Src/usbh_core.c ****         }
 240              		.loc 1 850 0
 241 0082 0D23     		movs	r3, #13
 242 0084 2370     		strb	r3, [r4]
 818:Middlewares/ST/STM32_USB_Host_Library/Core/Src/usbh_core.c ****   USBH_StatusTypeDef ReqStatus = USBH_BUSY;
 243              		.loc 1 818 0
 244 0086 0125     		movs	r5, #1
 245 0088 B2E0     		b	.L11
 246              	.L22:
 855:Middlewares/ST/STM32_USB_Host_Library/Core/Src/usbh_core.c ****           USBH_FreePipe(phost, phost->Control.pipe_in);
 247              		.loc 1 855 0
 248 008a 6179     		ldrb	r1, [r4, #5]	@ zero_extendqisi2
 249 008c 2046     		mov	r0, r4
 250              	.LVL19:
 251 008e FFF7FEFF 		bl	USBH_FreePipe
 252              	.LVL20:
 856:Middlewares/ST/STM32_USB_Host_Library/Core/Src/usbh_core.c **** 
 253              		.loc 1 856 0
 254 0092 2179     		ldrb	r1, [r4, #4]	@ zero_extendqisi2
 255 0094 2046     		mov	r0, r4
 256 0096 FFF7FEFF 		bl	USBH_FreePipe
 257              	.LVL21:
 859:Middlewares/ST/STM32_USB_Host_Library/Core/Src/usbh_core.c ****         }
 258              		.loc 1 859 0
 259 009a 0023     		movs	r3, #0
 260 009c 2370     		strb	r3, [r4]
 818:Middlewares/ST/STM32_USB_Host_Library/Core/Src/usbh_core.c ****   USBH_StatusTypeDef ReqStatus = USBH_BUSY;
 261              		.loc 1 818 0
 262 009e 0125     		movs	r5, #1
 263 00a0 A6E0     		b	.L11
 264              	.LVL22:
 265              	.L14:
 870:Middlewares/ST/STM32_USB_Host_Library/Core/Src/usbh_core.c ****       if (ReqStatus == USBH_OK)
 266              		.loc 1 870 0
 267 00a2 1221     		movs	r1, #18
 268 00a4 FFF7FEFF 		bl	USBH_Get_DevDesc
 269              	.LVL23:
 871:Middlewares/ST/STM32_USB_Host_Library/Core/Src/usbh_core.c ****       {
 270              		.loc 1 871 0
 271 00a8 18B1     		cbz	r0, .L47
 878:Middlewares/ST/STM32_USB_Host_Library/Core/Src/usbh_core.c ****       {
 272              		.loc 1 878 0
 273 00aa 0328     		cmp	r0, #3
 274 00ac 05D0     		beq	.L48
ARM GAS  C:\Users\User\AppData\Local\Temp\ccMoYMA0.s 			page 27


 818:Middlewares/ST/STM32_USB_Host_Library/Core/Src/usbh_core.c ****   USBH_StatusTypeDef ReqStatus = USBH_BUSY;
 275              		.loc 1 818 0
 276 00ae 0125     		movs	r5, #1
 277 00b0 9EE0     		b	.L11
 278              	.L47:
 876:Middlewares/ST/STM32_USB_Host_Library/Core/Src/usbh_core.c ****       }
 279              		.loc 1 876 0
 280 00b2 0223     		movs	r3, #2
 281 00b4 6370     		strb	r3, [r4, #1]
 818:Middlewares/ST/STM32_USB_Host_Library/Core/Src/usbh_core.c ****   USBH_StatusTypeDef ReqStatus = USBH_BUSY;
 282              		.loc 1 818 0
 283 00b6 0125     		movs	r5, #1
 284 00b8 9AE0     		b	.L11
 285              	.L48:
 881:Middlewares/ST/STM32_USB_Host_Library/Core/Src/usbh_core.c ****         if (phost->device.EnumCnt > 3U)
 286              		.loc 1 881 0
 287 00ba 94F81E33 		ldrb	r3, [r4, #798]	@ zero_extendqisi2
 288 00be 0133     		adds	r3, r3, #1
 289 00c0 DBB2     		uxtb	r3, r3
 290 00c2 84F81E33 		strb	r3, [r4, #798]
 882:Middlewares/ST/STM32_USB_Host_Library/Core/Src/usbh_core.c ****         {
 291              		.loc 1 882 0
 292 00c6 032B     		cmp	r3, #3
 293 00c8 03D9     		bls	.L24
 886:Middlewares/ST/STM32_USB_Host_Library/Core/Src/usbh_core.c ****         }
 294              		.loc 1 886 0
 295 00ca 0D23     		movs	r3, #13
 296 00cc 2370     		strb	r3, [r4]
 818:Middlewares/ST/STM32_USB_Host_Library/Core/Src/usbh_core.c ****   USBH_StatusTypeDef ReqStatus = USBH_BUSY;
 297              		.loc 1 818 0
 298 00ce 0125     		movs	r5, #1
 299 00d0 8EE0     		b	.L11
 300              	.L24:
 891:Middlewares/ST/STM32_USB_Host_Library/Core/Src/usbh_core.c ****           USBH_FreePipe(phost, phost->Control.pipe_in);
 301              		.loc 1 891 0
 302 00d2 6179     		ldrb	r1, [r4, #5]	@ zero_extendqisi2
 303 00d4 2046     		mov	r0, r4
 304              	.LVL24:
 305 00d6 FFF7FEFF 		bl	USBH_FreePipe
 306              	.LVL25:
 892:Middlewares/ST/STM32_USB_Host_Library/Core/Src/usbh_core.c **** 
 307              		.loc 1 892 0
 308 00da 2179     		ldrb	r1, [r4, #4]	@ zero_extendqisi2
 309 00dc 2046     		mov	r0, r4
 310 00de FFF7FEFF 		bl	USBH_FreePipe
 311              	.LVL26:
 895:Middlewares/ST/STM32_USB_Host_Library/Core/Src/usbh_core.c ****           phost->gState = HOST_IDLE;
 312              		.loc 1 895 0
 313 00e2 0023     		movs	r3, #0
 314 00e4 6370     		strb	r3, [r4, #1]
 896:Middlewares/ST/STM32_USB_Host_Library/Core/Src/usbh_core.c ****         }
 315              		.loc 1 896 0
 316 00e6 2370     		strb	r3, [r4]
 818:Middlewares/ST/STM32_USB_Host_Library/Core/Src/usbh_core.c ****   USBH_StatusTypeDef ReqStatus = USBH_BUSY;
 317              		.loc 1 818 0
 318 00e8 0125     		movs	r5, #1
 319 00ea 81E0     		b	.L11
ARM GAS  C:\Users\User\AppData\Local\Temp\ccMoYMA0.s 			page 28


 320              	.LVL27:
 321              	.L15:
 907:Middlewares/ST/STM32_USB_Host_Library/Core/Src/usbh_core.c ****       if (ReqStatus == USBH_OK)
 322              		.loc 1 907 0
 323 00ec 0121     		movs	r1, #1
 324 00ee FFF7FEFF 		bl	USBH_SetAddress
 325              	.LVL28:
 908:Middlewares/ST/STM32_USB_Host_Library/Core/Src/usbh_core.c ****       {
 326              		.loc 1 908 0
 327 00f2 18B1     		cbz	r0, .L49
 927:Middlewares/ST/STM32_USB_Host_Library/Core/Src/usbh_core.c ****       {
 328              		.loc 1 927 0
 329 00f4 0328     		cmp	r0, #3
 330 00f6 24D0     		beq	.L50
 818:Middlewares/ST/STM32_USB_Host_Library/Core/Src/usbh_core.c ****   USBH_StatusTypeDef ReqStatus = USBH_BUSY;
 331              		.loc 1 818 0
 332 00f8 0125     		movs	r5, #1
 333 00fa 79E0     		b	.L11
 334              	.L49:
 910:Middlewares/ST/STM32_USB_Host_Library/Core/Src/usbh_core.c ****         phost->device.address = USBH_DEVICE_ADDRESS;
 335              		.loc 1 910 0
 336 00fc 0220     		movs	r0, #2
 337              	.LVL29:
 338 00fe FFF7FEFF 		bl	USBH_Delay
 339              	.LVL30:
 911:Middlewares/ST/STM32_USB_Host_Library/Core/Src/usbh_core.c **** 
 340              		.loc 1 911 0
 341 0102 0125     		movs	r5, #1
 342 0104 84F81C53 		strb	r5, [r4, #796]
 915:Middlewares/ST/STM32_USB_Host_Library/Core/Src/usbh_core.c **** 
 343              		.loc 1 915 0
 344 0108 0323     		movs	r3, #3
 345 010a 6370     		strb	r3, [r4, #1]
 918:Middlewares/ST/STM32_USB_Host_Library/Core/Src/usbh_core.c ****                       phost->device.speed, USBH_EP_CONTROL,
 346              		.loc 1 918 0
 347 010c 2179     		ldrb	r1, [r4, #4]	@ zero_extendqisi2
 348 010e A379     		ldrb	r3, [r4, #6]	@ zero_extendqisi2
 349 0110 0293     		str	r3, [sp, #8]
 350 0112 0026     		movs	r6, #0
 351 0114 0196     		str	r6, [sp, #4]
 352 0116 94F81D33 		ldrb	r3, [r4, #797]	@ zero_extendqisi2
 353 011a 0093     		str	r3, [sp]
 354 011c 2B46     		mov	r3, r5
 355 011e 8022     		movs	r2, #128
 356 0120 2046     		mov	r0, r4
 357 0122 FFF7FEFF 		bl	USBH_OpenPipe
 358              	.LVL31:
 923:Middlewares/ST/STM32_USB_Host_Library/Core/Src/usbh_core.c ****                       phost->device.speed, USBH_EP_CONTROL,
 359              		.loc 1 923 0
 360 0126 94F81C33 		ldrb	r3, [r4, #796]	@ zero_extendqisi2
 361 012a 6179     		ldrb	r1, [r4, #5]	@ zero_extendqisi2
 362 012c A279     		ldrb	r2, [r4, #6]	@ zero_extendqisi2
 363 012e 0292     		str	r2, [sp, #8]
 364 0130 0196     		str	r6, [sp, #4]
 365 0132 94F81D23 		ldrb	r2, [r4, #797]	@ zero_extendqisi2
 366 0136 0092     		str	r2, [sp]
 367 0138 3246     		mov	r2, r6
ARM GAS  C:\Users\User\AppData\Local\Temp\ccMoYMA0.s 			page 29


 368 013a 2046     		mov	r0, r4
 369 013c FFF7FEFF 		bl	USBH_OpenPipe
 370              	.LVL32:
 371 0140 56E0     		b	.L11
 372              	.LVL33:
 373              	.L50:
 933:Middlewares/ST/STM32_USB_Host_Library/Core/Src/usbh_core.c ****         phost->EnumState = ENUM_IDLE;
 374              		.loc 1 933 0
 375 0142 0D23     		movs	r3, #13
 376 0144 2370     		strb	r3, [r4]
 934:Middlewares/ST/STM32_USB_Host_Library/Core/Src/usbh_core.c ****       }
 377              		.loc 1 934 0
 378 0146 0023     		movs	r3, #0
 379 0148 6370     		strb	r3, [r4, #1]
 818:Middlewares/ST/STM32_USB_Host_Library/Core/Src/usbh_core.c ****   USBH_StatusTypeDef ReqStatus = USBH_BUSY;
 380              		.loc 1 818 0
 381 014a 0125     		movs	r5, #1
 382 014c 50E0     		b	.L11
 383              	.LVL34:
 384              	.L16:
 944:Middlewares/ST/STM32_USB_Host_Library/Core/Src/usbh_core.c ****       if (ReqStatus == USBH_OK)
 385              		.loc 1 944 0
 386 014e 0921     		movs	r1, #9
 387 0150 FFF7FEFF 		bl	USBH_Get_CfgDesc
 388              	.LVL35:
 945:Middlewares/ST/STM32_USB_Host_Library/Core/Src/usbh_core.c ****       {
 389              		.loc 1 945 0
 390 0154 18B1     		cbz	r0, .L51
 949:Middlewares/ST/STM32_USB_Host_Library/Core/Src/usbh_core.c ****       {
 391              		.loc 1 949 0
 392 0156 0328     		cmp	r0, #3
 393 0158 05D0     		beq	.L52
 818:Middlewares/ST/STM32_USB_Host_Library/Core/Src/usbh_core.c ****   USBH_StatusTypeDef ReqStatus = USBH_BUSY;
 394              		.loc 1 818 0
 395 015a 0125     		movs	r5, #1
 396 015c 48E0     		b	.L11
 397              	.L51:
 947:Middlewares/ST/STM32_USB_Host_Library/Core/Src/usbh_core.c ****       }
 398              		.loc 1 947 0
 399 015e 0423     		movs	r3, #4
 400 0160 6370     		strb	r3, [r4, #1]
 818:Middlewares/ST/STM32_USB_Host_Library/Core/Src/usbh_core.c ****   USBH_StatusTypeDef ReqStatus = USBH_BUSY;
 401              		.loc 1 818 0
 402 0162 0125     		movs	r5, #1
 403 0164 44E0     		b	.L11
 404              	.L52:
 952:Middlewares/ST/STM32_USB_Host_Library/Core/Src/usbh_core.c ****         if (phost->device.EnumCnt > 3U)
 405              		.loc 1 952 0
 406 0166 94F81E33 		ldrb	r3, [r4, #798]	@ zero_extendqisi2
 407 016a 0133     		adds	r3, r3, #1
 408 016c DBB2     		uxtb	r3, r3
 409 016e 84F81E33 		strb	r3, [r4, #798]
 953:Middlewares/ST/STM32_USB_Host_Library/Core/Src/usbh_core.c ****         {
 410              		.loc 1 953 0
 411 0172 032B     		cmp	r3, #3
 412 0174 03D9     		bls	.L27
 957:Middlewares/ST/STM32_USB_Host_Library/Core/Src/usbh_core.c ****         }
ARM GAS  C:\Users\User\AppData\Local\Temp\ccMoYMA0.s 			page 30


 413              		.loc 1 957 0
 414 0176 0D23     		movs	r3, #13
 415 0178 2370     		strb	r3, [r4]
 818:Middlewares/ST/STM32_USB_Host_Library/Core/Src/usbh_core.c ****   USBH_StatusTypeDef ReqStatus = USBH_BUSY;
 416              		.loc 1 818 0
 417 017a 0125     		movs	r5, #1
 418 017c 38E0     		b	.L11
 419              	.L27:
 962:Middlewares/ST/STM32_USB_Host_Library/Core/Src/usbh_core.c ****           USBH_FreePipe(phost, phost->Control.pipe_in);
 420              		.loc 1 962 0
 421 017e 6179     		ldrb	r1, [r4, #5]	@ zero_extendqisi2
 422 0180 2046     		mov	r0, r4
 423              	.LVL36:
 424 0182 FFF7FEFF 		bl	USBH_FreePipe
 425              	.LVL37:
 963:Middlewares/ST/STM32_USB_Host_Library/Core/Src/usbh_core.c **** 
 426              		.loc 1 963 0
 427 0186 2179     		ldrb	r1, [r4, #4]	@ zero_extendqisi2
 428 0188 2046     		mov	r0, r4
 429 018a FFF7FEFF 		bl	USBH_FreePipe
 430              	.LVL38:
 966:Middlewares/ST/STM32_USB_Host_Library/Core/Src/usbh_core.c ****           phost->gState = HOST_IDLE;
 431              		.loc 1 966 0
 432 018e 0023     		movs	r3, #0
 433 0190 6370     		strb	r3, [r4, #1]
 967:Middlewares/ST/STM32_USB_Host_Library/Core/Src/usbh_core.c ****         }
 434              		.loc 1 967 0
 435 0192 2370     		strb	r3, [r4]
 818:Middlewares/ST/STM32_USB_Host_Library/Core/Src/usbh_core.c ****   USBH_StatusTypeDef ReqStatus = USBH_BUSY;
 436              		.loc 1 818 0
 437 0194 0125     		movs	r5, #1
 438 0196 2BE0     		b	.L11
 439              	.LVL39:
 440              	.L17:
 978:Middlewares/ST/STM32_USB_Host_Library/Core/Src/usbh_core.c ****       if (ReqStatus == USBH_OK)
 441              		.loc 1 978 0
 442 0198 B0F83A13 		ldrh	r1, [r0, #826]
 443 019c FFF7FEFF 		bl	USBH_Get_CfgDesc
 444              	.LVL40:
 979:Middlewares/ST/STM32_USB_Host_Library/Core/Src/usbh_core.c ****       {
 445              		.loc 1 979 0
 446 01a0 18B1     		cbz	r0, .L53
 983:Middlewares/ST/STM32_USB_Host_Library/Core/Src/usbh_core.c ****       {
 447              		.loc 1 983 0
 448 01a2 0328     		cmp	r0, #3
 449 01a4 05D0     		beq	.L54
 818:Middlewares/ST/STM32_USB_Host_Library/Core/Src/usbh_core.c ****   USBH_StatusTypeDef ReqStatus = USBH_BUSY;
 450              		.loc 1 818 0
 451 01a6 0125     		movs	r5, #1
 452 01a8 22E0     		b	.L11
 453              	.L53:
 981:Middlewares/ST/STM32_USB_Host_Library/Core/Src/usbh_core.c ****       }
 454              		.loc 1 981 0
 455 01aa 0523     		movs	r3, #5
 456 01ac 6370     		strb	r3, [r4, #1]
 818:Middlewares/ST/STM32_USB_Host_Library/Core/Src/usbh_core.c ****   USBH_StatusTypeDef ReqStatus = USBH_BUSY;
 457              		.loc 1 818 0
ARM GAS  C:\Users\User\AppData\Local\Temp\ccMoYMA0.s 			page 31


 458 01ae 0125     		movs	r5, #1
 459 01b0 1EE0     		b	.L11
 460              	.L54:
 986:Middlewares/ST/STM32_USB_Host_Library/Core/Src/usbh_core.c ****         if (phost->device.EnumCnt > 3U)
 461              		.loc 1 986 0
 462 01b2 94F81E33 		ldrb	r3, [r4, #798]	@ zero_extendqisi2
 463 01b6 0133     		adds	r3, r3, #1
 464 01b8 DBB2     		uxtb	r3, r3
 465 01ba 84F81E33 		strb	r3, [r4, #798]
 987:Middlewares/ST/STM32_USB_Host_Library/Core/Src/usbh_core.c ****         {
 466              		.loc 1 987 0
 467 01be 032B     		cmp	r3, #3
 468 01c0 03D9     		bls	.L29
 991:Middlewares/ST/STM32_USB_Host_Library/Core/Src/usbh_core.c ****         }
 469              		.loc 1 991 0
 470 01c2 0D23     		movs	r3, #13
 471 01c4 2370     		strb	r3, [r4]
 818:Middlewares/ST/STM32_USB_Host_Library/Core/Src/usbh_core.c ****   USBH_StatusTypeDef ReqStatus = USBH_BUSY;
 472              		.loc 1 818 0
 473 01c6 0125     		movs	r5, #1
 474 01c8 12E0     		b	.L11
 475              	.L29:
 996:Middlewares/ST/STM32_USB_Host_Library/Core/Src/usbh_core.c ****           USBH_FreePipe(phost, phost->Control.pipe_in);
 476              		.loc 1 996 0
 477 01ca 6179     		ldrb	r1, [r4, #5]	@ zero_extendqisi2
 478 01cc 2046     		mov	r0, r4
 479              	.LVL41:
 480 01ce FFF7FEFF 		bl	USBH_FreePipe
 481              	.LVL42:
 997:Middlewares/ST/STM32_USB_Host_Library/Core/Src/usbh_core.c **** 
 482              		.loc 1 997 0
 483 01d2 2179     		ldrb	r1, [r4, #4]	@ zero_extendqisi2
 484 01d4 2046     		mov	r0, r4
 485 01d6 FFF7FEFF 		bl	USBH_FreePipe
 486              	.LVL43:
1000:Middlewares/ST/STM32_USB_Host_Library/Core/Src/usbh_core.c ****           phost->gState = HOST_IDLE;
 487              		.loc 1 1000 0
 488 01da 0023     		movs	r3, #0
 489 01dc 6370     		strb	r3, [r4, #1]
1001:Middlewares/ST/STM32_USB_Host_Library/Core/Src/usbh_core.c ****         }
 490              		.loc 1 1001 0
 491 01de 2370     		strb	r3, [r4]
 818:Middlewares/ST/STM32_USB_Host_Library/Core/Src/usbh_core.c ****   USBH_StatusTypeDef ReqStatus = USBH_BUSY;
 492              		.loc 1 818 0
 493 01e0 0125     		movs	r5, #1
 494 01e2 05E0     		b	.L11
 495              	.LVL44:
 496              	.L18:
1011:Middlewares/ST/STM32_USB_Host_Library/Core/Src/usbh_core.c ****       {
 497              		.loc 1 1011 0
 498 01e4 90F83413 		ldrb	r1, [r0, #820]	@ zero_extendqisi2
 499 01e8 29B9     		cbnz	r1, .L55
1053:Middlewares/ST/STM32_USB_Host_Library/Core/Src/usbh_core.c **** 
 500              		.loc 1 1053 0
 501 01ea 0623     		movs	r3, #6
 502 01ec 4370     		strb	r3, [r0, #1]
 818:Middlewares/ST/STM32_USB_Host_Library/Core/Src/usbh_core.c ****   USBH_StatusTypeDef ReqStatus = USBH_BUSY;
ARM GAS  C:\Users\User\AppData\Local\Temp\ccMoYMA0.s 			page 32


 503              		.loc 1 818 0
 504 01ee 0125     		movs	r5, #1
 505              	.LVL45:
 506              	.L11:
1146:Middlewares/ST/STM32_USB_Host_Library/Core/Src/usbh_core.c **** 
 507              		.loc 1 1146 0
 508 01f0 2846     		mov	r0, r5
 509 01f2 04B0     		add	sp, sp, #16
 510              	.LCFI3:
 511              		.cfi_remember_state
 512              		.cfi_def_cfa_offset 16
 513              		@ sp needed
 514 01f4 70BD     		pop	{r4, r5, r6, pc}
 515              	.LVL46:
 516              	.L55:
 517              	.LCFI4:
 518              		.cfi_restore_state
1014:Middlewares/ST/STM32_USB_Host_Library/Core/Src/usbh_core.c ****                                         phost->device.Data, 0xFFU);
 519              		.loc 1 1014 0
 520 01f6 FF23     		movs	r3, #255
 521 01f8 00F58E72 		add	r2, r0, #284
 522 01fc FFF7FEFF 		bl	USBH_Get_StringDesc
 523              	.LVL47:
1016:Middlewares/ST/STM32_USB_Host_Library/Core/Src/usbh_core.c ****         {
 524              		.loc 1 1016 0
 525 0200 18B1     		cbz	r0, .L56
1031:Middlewares/ST/STM32_USB_Host_Library/Core/Src/usbh_core.c ****         {
 526              		.loc 1 1031 0
 527 0202 0328     		cmp	r0, #3
 528 0204 05D0     		beq	.L57
 818:Middlewares/ST/STM32_USB_Host_Library/Core/Src/usbh_core.c ****   USBH_StatusTypeDef ReqStatus = USBH_BUSY;
 529              		.loc 1 818 0
 530 0206 0125     		movs	r5, #1
 531 0208 F2E7     		b	.L11
 532              	.L56:
1020:Middlewares/ST/STM32_USB_Host_Library/Core/Src/usbh_core.c **** 
 533              		.loc 1 1020 0
 534 020a 0623     		movs	r3, #6
 535 020c 6370     		strb	r3, [r4, #1]
 818:Middlewares/ST/STM32_USB_Host_Library/Core/Src/usbh_core.c ****   USBH_StatusTypeDef ReqStatus = USBH_BUSY;
 536              		.loc 1 818 0
 537 020e 0125     		movs	r5, #1
 538 0210 EEE7     		b	.L11
 539              	.L57:
1034:Middlewares/ST/STM32_USB_Host_Library/Core/Src/usbh_core.c **** 
 540              		.loc 1 1034 0
 541 0212 0623     		movs	r3, #6
 542 0214 6370     		strb	r3, [r4, #1]
 818:Middlewares/ST/STM32_USB_Host_Library/Core/Src/usbh_core.c ****   USBH_StatusTypeDef ReqStatus = USBH_BUSY;
 543              		.loc 1 818 0
 544 0216 0125     		movs	r5, #1
 545 0218 EAE7     		b	.L11
 546              	.LVL48:
 547              	.L19:
1067:Middlewares/ST/STM32_USB_Host_Library/Core/Src/usbh_core.c ****       {
 548              		.loc 1 1067 0
 549 021a 90F83513 		ldrb	r1, [r0, #821]	@ zero_extendqisi2
ARM GAS  C:\Users\User\AppData\Local\Temp\ccMoYMA0.s 			page 33


 550 021e 19B9     		cbnz	r1, .L58
1100:Middlewares/ST/STM32_USB_Host_Library/Core/Src/usbh_core.c **** 
 551              		.loc 1 1100 0
 552 0220 0723     		movs	r3, #7
 553 0222 4370     		strb	r3, [r0, #1]
 818:Middlewares/ST/STM32_USB_Host_Library/Core/Src/usbh_core.c ****   USBH_StatusTypeDef ReqStatus = USBH_BUSY;
 554              		.loc 1 818 0
 555 0224 0125     		movs	r5, #1
 556 0226 E3E7     		b	.L11
 557              	.L58:
1070:Middlewares/ST/STM32_USB_Host_Library/Core/Src/usbh_core.c ****                                         phost->device.Data, 0xFFU);
 558              		.loc 1 1070 0
 559 0228 FF23     		movs	r3, #255
 560 022a 00F58E72 		add	r2, r0, #284
 561 022e FFF7FEFF 		bl	USBH_Get_StringDesc
 562              	.LVL49:
1072:Middlewares/ST/STM32_USB_Host_Library/Core/Src/usbh_core.c ****         {
 563              		.loc 1 1072 0
 564 0232 18B1     		cbz	r0, .L59
1078:Middlewares/ST/STM32_USB_Host_Library/Core/Src/usbh_core.c ****         {
 565              		.loc 1 1078 0
 566 0234 0328     		cmp	r0, #3
 567 0236 05D0     		beq	.L60
 818:Middlewares/ST/STM32_USB_Host_Library/Core/Src/usbh_core.c ****   USBH_StatusTypeDef ReqStatus = USBH_BUSY;
 568              		.loc 1 818 0
 569 0238 0125     		movs	r5, #1
 570 023a D9E7     		b	.L11
 571              	.L59:
1076:Middlewares/ST/STM32_USB_Host_Library/Core/Src/usbh_core.c ****         }
 572              		.loc 1 1076 0
 573 023c 0723     		movs	r3, #7
 574 023e 6370     		strb	r3, [r4, #1]
 818:Middlewares/ST/STM32_USB_Host_Library/Core/Src/usbh_core.c ****   USBH_StatusTypeDef ReqStatus = USBH_BUSY;
 575              		.loc 1 818 0
 576 0240 0125     		movs	r5, #1
 577 0242 D5E7     		b	.L11
 578              	.L60:
1081:Middlewares/ST/STM32_USB_Host_Library/Core/Src/usbh_core.c **** 
 579              		.loc 1 1081 0
 580 0244 0723     		movs	r3, #7
 581 0246 6370     		strb	r3, [r4, #1]
 818:Middlewares/ST/STM32_USB_Host_Library/Core/Src/usbh_core.c ****   USBH_StatusTypeDef ReqStatus = USBH_BUSY;
 582              		.loc 1 818 0
 583 0248 0125     		movs	r5, #1
 584 024a D1E7     		b	.L11
 585              	.LVL50:
 586              	.L20:
1114:Middlewares/ST/STM32_USB_Host_Library/Core/Src/usbh_core.c ****       {
 587              		.loc 1 1114 0
 588 024c 90F83613 		ldrb	r1, [r0, #822]	@ zero_extendqisi2
 589 0250 09B9     		cbnz	r1, .L61
1138:Middlewares/ST/STM32_USB_Host_Library/Core/Src/usbh_core.c ****       }
 590              		.loc 1 1138 0
 591 0252 0025     		movs	r5, #0
 592 0254 CCE7     		b	.L11
 593              	.L61:
1117:Middlewares/ST/STM32_USB_Host_Library/Core/Src/usbh_core.c ****                                         phost->device.Data, 0xFFU);
ARM GAS  C:\Users\User\AppData\Local\Temp\ccMoYMA0.s 			page 34


 594              		.loc 1 1117 0
 595 0256 FF23     		movs	r3, #255
 596 0258 00F58E72 		add	r2, r0, #284
 597 025c FFF7FEFF 		bl	USBH_Get_StringDesc
 598              	.LVL51:
1119:Middlewares/ST/STM32_USB_Host_Library/Core/Src/usbh_core.c ****         {
 599              		.loc 1 1119 0
 600 0260 0546     		mov	r5, r0
 601 0262 0028     		cmp	r0, #0
 602 0264 C4D0     		beq	.L11
1125:Middlewares/ST/STM32_USB_Host_Library/Core/Src/usbh_core.c ****         {
 603              		.loc 1 1125 0
 604 0266 0328     		cmp	r0, #3
 605 0268 03D0     		beq	.L43
 818:Middlewares/ST/STM32_USB_Host_Library/Core/Src/usbh_core.c ****   USBH_StatusTypeDef ReqStatus = USBH_BUSY;
 606              		.loc 1 818 0
 607 026a 0125     		movs	r5, #1
 608 026c C0E7     		b	.L11
 609              	.LVL52:
 610              	.L34:
 611 026e 0125     		movs	r5, #1
 612 0270 BEE7     		b	.L11
 613              	.LVL53:
 614              	.L43:
1128:Middlewares/ST/STM32_USB_Host_Library/Core/Src/usbh_core.c ****         }
 615              		.loc 1 1128 0
 616 0272 0025     		movs	r5, #0
 617 0274 BCE7     		b	.L11
 618              		.cfi_endproc
 619              	.LFE145:
 621              		.section	.text.USBH_Init,"ax",%progbits
 622              		.align	1
 623              		.global	USBH_Init
 624              		.syntax unified
 625              		.thumb
 626              		.thumb_func
 627              		.fpu fpv4-sp-d16
 629              	USBH_Init:
 630              	.LFB133:
  99:Middlewares/ST/STM32_USB_Host_Library/Core/Src/usbh_core.c ****   /* Check whether the USB Host handle is valid */
 631              		.loc 1 99 0
 632              		.cfi_startproc
 633              		@ args = 0, pretend = 0, frame = 0
 634              		@ frame_needed = 0, uses_anonymous_args = 0
 635              	.LVL54:
 101:Middlewares/ST/STM32_USB_Host_Library/Core/Src/usbh_core.c ****   {
 636              		.loc 1 101 0
 637 0000 D8B1     		cbz	r0, .L65
  99:Middlewares/ST/STM32_USB_Host_Library/Core/Src/usbh_core.c ****   /* Check whether the USB Host handle is valid */
 638              		.loc 1 99 0
 639 0002 70B5     		push	{r4, r5, r6, lr}
 640              	.LCFI5:
 641              		.cfi_def_cfa_offset 16
 642              		.cfi_offset 4, -16
 643              		.cfi_offset 5, -12
 644              		.cfi_offset 6, -8
 645              		.cfi_offset 14, -4
ARM GAS  C:\Users\User\AppData\Local\Temp\ccMoYMA0.s 			page 35


 646 0004 0446     		mov	r4, r0
 647 0006 0E46     		mov	r6, r1
 108:Middlewares/ST/STM32_USB_Host_Library/Core/Src/usbh_core.c **** 
 648              		.loc 1 108 0
 649 0008 80F8CC23 		strb	r2, [r0, #972]
 111:Middlewares/ST/STM32_USB_Host_Library/Core/Src/usbh_core.c ****   phost->ClassNumber = 0U;
 650              		.loc 1 111 0
 651 000c 0025     		movs	r5, #0
 652 000e C0F87C53 		str	r5, [r0, #892]
 112:Middlewares/ST/STM32_USB_Host_Library/Core/Src/usbh_core.c **** 
 653              		.loc 1 112 0
 654 0012 C0F88053 		str	r5, [r0, #896]
 115:Middlewares/ST/STM32_USB_Host_Library/Core/Src/usbh_core.c **** 
 655              		.loc 1 115 0
 656 0016 FFF7FEFF 		bl	DeInitStateMachine
 657              	.LVL55:
 118:Middlewares/ST/STM32_USB_Host_Library/Core/Src/usbh_core.c ****   phost->device.is_connected = 0U;
 658              		.loc 1 118 0
 659 001a 84F82353 		strb	r5, [r4, #803]
 119:Middlewares/ST/STM32_USB_Host_Library/Core/Src/usbh_core.c ****   phost->device.is_disconnected = 0U;
 660              		.loc 1 119 0
 661 001e 84F82053 		strb	r5, [r4, #800]
 120:Middlewares/ST/STM32_USB_Host_Library/Core/Src/usbh_core.c ****   phost->device.is_ReEnumerated = 0U;
 662              		.loc 1 120 0
 663 0022 84F82153 		strb	r5, [r4, #801]
 121:Middlewares/ST/STM32_USB_Host_Library/Core/Src/usbh_core.c **** 
 664              		.loc 1 121 0
 665 0026 84F82253 		strb	r5, [r4, #802]
 124:Middlewares/ST/STM32_USB_Host_Library/Core/Src/usbh_core.c ****   {
 666              		.loc 1 124 0
 667 002a 0EB1     		cbz	r6, .L64
 126:Middlewares/ST/STM32_USB_Host_Library/Core/Src/usbh_core.c ****   }
 668              		.loc 1 126 0
 669 002c C4F8D463 		str	r6, [r4, #980]
 670              	.L64:
 166:Middlewares/ST/STM32_USB_Host_Library/Core/Src/usbh_core.c **** 
 671              		.loc 1 166 0
 672 0030 2046     		mov	r0, r4
 673 0032 FFF7FEFF 		bl	USBH_LL_Init
 674              	.LVL56:
 168:Middlewares/ST/STM32_USB_Host_Library/Core/Src/usbh_core.c **** }
 675              		.loc 1 168 0
 676 0036 0020     		movs	r0, #0
 169:Middlewares/ST/STM32_USB_Host_Library/Core/Src/usbh_core.c **** 
 677              		.loc 1 169 0
 678 0038 70BD     		pop	{r4, r5, r6, pc}
 679              	.LVL57:
 680              	.L65:
 681              	.LCFI6:
 682              		.cfi_def_cfa_offset 0
 683              		.cfi_restore 4
 684              		.cfi_restore 5
 685              		.cfi_restore 6
 686              		.cfi_restore 14
 104:Middlewares/ST/STM32_USB_Host_Library/Core/Src/usbh_core.c ****   }
 687              		.loc 1 104 0
 688 003a 0220     		movs	r0, #2
ARM GAS  C:\Users\User\AppData\Local\Temp\ccMoYMA0.s 			page 36


 689              	.LVL58:
 169:Middlewares/ST/STM32_USB_Host_Library/Core/Src/usbh_core.c **** 
 690              		.loc 1 169 0
 691 003c 7047     		bx	lr
 692              		.cfi_endproc
 693              	.LFE133:
 695              		.section	.text.USBH_DeInit,"ax",%progbits
 696              		.align	1
 697              		.global	USBH_DeInit
 698              		.syntax unified
 699              		.thumb
 700              		.thumb_func
 701              		.fpu fpv4-sp-d16
 703              	USBH_DeInit:
 704              	.LFB134:
 179:Middlewares/ST/STM32_USB_Host_Library/Core/Src/usbh_core.c ****   DeInitStateMachine(phost);
 705              		.loc 1 179 0
 706              		.cfi_startproc
 707              		@ args = 0, pretend = 0, frame = 0
 708              		@ frame_needed = 0, uses_anonymous_args = 0
 709              	.LVL59:
 710 0000 10B5     		push	{r4, lr}
 711              	.LCFI7:
 712              		.cfi_def_cfa_offset 8
 713              		.cfi_offset 4, -8
 714              		.cfi_offset 14, -4
 715 0002 0446     		mov	r4, r0
 180:Middlewares/ST/STM32_USB_Host_Library/Core/Src/usbh_core.c **** 
 716              		.loc 1 180 0
 717 0004 FFF7FEFF 		bl	DeInitStateMachine
 718              	.LVL60:
 183:Middlewares/ST/STM32_USB_Host_Library/Core/Src/usbh_core.c ****   phost->device.is_connected = 0U;
 719              		.loc 1 183 0
 720 0008 0023     		movs	r3, #0
 721 000a 84F82333 		strb	r3, [r4, #803]
 184:Middlewares/ST/STM32_USB_Host_Library/Core/Src/usbh_core.c ****   phost->device.is_disconnected = 0U;
 722              		.loc 1 184 0
 723 000e 84F82033 		strb	r3, [r4, #800]
 185:Middlewares/ST/STM32_USB_Host_Library/Core/Src/usbh_core.c ****   phost->device.is_ReEnumerated = 0U;
 724              		.loc 1 185 0
 725 0012 84F82133 		strb	r3, [r4, #801]
 186:Middlewares/ST/STM32_USB_Host_Library/Core/Src/usbh_core.c ****   phost->device.RstCnt = 0U;
 726              		.loc 1 186 0
 727 0016 84F82233 		strb	r3, [r4, #802]
 187:Middlewares/ST/STM32_USB_Host_Library/Core/Src/usbh_core.c ****   phost->device.EnumCnt = 0U;
 728              		.loc 1 187 0
 729 001a 84F81F33 		strb	r3, [r4, #799]
 188:Middlewares/ST/STM32_USB_Host_Library/Core/Src/usbh_core.c **** 
 730              		.loc 1 188 0
 731 001e 84F81E33 		strb	r3, [r4, #798]
 190:Middlewares/ST/STM32_USB_Host_Library/Core/Src/usbh_core.c ****   {
 732              		.loc 1 190 0
 733 0022 D4F8D033 		ldr	r3, [r4, #976]
 734 0026 13B1     		cbz	r3, .L71
 192:Middlewares/ST/STM32_USB_Host_Library/Core/Src/usbh_core.c ****   }
 735              		.loc 1 192 0
 736 0028 2046     		mov	r0, r4
ARM GAS  C:\Users\User\AppData\Local\Temp\ccMoYMA0.s 			page 37


 737 002a FFF7FEFF 		bl	USBH_LL_Stop
 738              	.LVL61:
 739              	.L71:
 196:Middlewares/ST/STM32_USB_Host_Library/Core/Src/usbh_core.c **** 
 740              		.loc 1 196 0
 741 002e 0020     		movs	r0, #0
 742 0030 10BD     		pop	{r4, pc}
 743              		.cfi_endproc
 744              	.LFE134:
 746              		.section	.text.USBH_RegisterClass,"ax",%progbits
 747              		.align	1
 748              		.global	USBH_RegisterClass
 749              		.syntax unified
 750              		.thumb
 751              		.thumb_func
 752              		.fpu fpv4-sp-d16
 754              	USBH_RegisterClass:
 755              	.LFB136:
 246:Middlewares/ST/STM32_USB_Host_Library/Core/Src/usbh_core.c ****   USBH_StatusTypeDef status = USBH_OK;
 756              		.loc 1 246 0
 757              		.cfi_startproc
 758              		@ args = 0, pretend = 0, frame = 0
 759              		@ frame_needed = 0, uses_anonymous_args = 0
 760              		@ link register save eliminated.
 761              	.LVL62:
 249:Middlewares/ST/STM32_USB_Host_Library/Core/Src/usbh_core.c ****   {
 762              		.loc 1 249 0
 763 0000 0A46     		mov	r2, r1
 764 0002 51B1     		cbz	r1, .L75
 251:Middlewares/ST/STM32_USB_Host_Library/Core/Src/usbh_core.c ****     {
 765              		.loc 1 251 0
 766 0004 D0F88033 		ldr	r3, [r0, #896]
 767 0008 4BB9     		cbnz	r3, .L76
 254:Middlewares/ST/STM32_USB_Host_Library/Core/Src/usbh_core.c ****       status = USBH_OK;
 768              		.loc 1 254 0
 769 000a 591C     		adds	r1, r3, #1
 770              	.LVL63:
 771 000c C0F88013 		str	r1, [r0, #896]
 772 0010 DE33     		adds	r3, r3, #222
 773 0012 40F82320 		str	r2, [r0, r3, lsl #2]
 255:Middlewares/ST/STM32_USB_Host_Library/Core/Src/usbh_core.c ****     }
 774              		.loc 1 255 0
 775 0016 0020     		movs	r0, #0
 776              	.LVL64:
 777 0018 7047     		bx	lr
 778              	.LVL65:
 779              	.L75:
 266:Middlewares/ST/STM32_USB_Host_Library/Core/Src/usbh_core.c ****   }
 780              		.loc 1 266 0
 781 001a 0220     		movs	r0, #2
 782              	.LVL66:
 783 001c 7047     		bx	lr
 784              	.LVL67:
 785              	.L76:
 260:Middlewares/ST/STM32_USB_Host_Library/Core/Src/usbh_core.c ****     }
 786              		.loc 1 260 0
 787 001e 0220     		movs	r0, #2
ARM GAS  C:\Users\User\AppData\Local\Temp\ccMoYMA0.s 			page 38


 788              	.LVL68:
 270:Middlewares/ST/STM32_USB_Host_Library/Core/Src/usbh_core.c **** 
 789              		.loc 1 270 0
 790 0020 7047     		bx	lr
 791              		.cfi_endproc
 792              	.LFE136:
 794              		.section	.text.USBH_SelectInterface,"ax",%progbits
 795              		.align	1
 796              		.global	USBH_SelectInterface
 797              		.syntax unified
 798              		.thumb
 799              		.thumb_func
 800              		.fpu fpv4-sp-d16
 802              	USBH_SelectInterface:
 803              	.LFB137:
 281:Middlewares/ST/STM32_USB_Host_Library/Core/Src/usbh_core.c ****   USBH_StatusTypeDef status = USBH_OK;
 804              		.loc 1 281 0
 805              		.cfi_startproc
 806              		@ args = 0, pretend = 0, frame = 0
 807              		@ frame_needed = 0, uses_anonymous_args = 0
 808              		@ link register save eliminated.
 809              	.LVL69:
 284:Middlewares/ST/STM32_USB_Host_Library/Core/Src/usbh_core.c ****   {
 810              		.loc 1 284 0
 811 0000 90F83C33 		ldrb	r3, [r0, #828]	@ zero_extendqisi2
 812 0004 8B42     		cmp	r3, r1
 813 0006 03D9     		bls	.L79
 286:Middlewares/ST/STM32_USB_Host_Library/Core/Src/usbh_core.c ****     USBH_UsrLog("Switching to Interface (#%d)", interface);
 814              		.loc 1 286 0
 815 0008 80F82413 		strb	r1, [r0, #804]
 282:Middlewares/ST/STM32_USB_Host_Library/Core/Src/usbh_core.c **** 
 816              		.loc 1 282 0
 817 000c 0020     		movs	r0, #0
 818              	.LVL70:
 819 000e 7047     		bx	lr
 820              	.LVL71:
 821              	.L79:
 295:Middlewares/ST/STM32_USB_Host_Library/Core/Src/usbh_core.c ****   }
 822              		.loc 1 295 0
 823 0010 0220     		movs	r0, #2
 824              	.LVL72:
 299:Middlewares/ST/STM32_USB_Host_Library/Core/Src/usbh_core.c **** 
 825              		.loc 1 299 0
 826 0012 7047     		bx	lr
 827              		.cfi_endproc
 828              	.LFE137:
 830              		.section	.text.USBH_GetActiveClass,"ax",%progbits
 831              		.align	1
 832              		.global	USBH_GetActiveClass
 833              		.syntax unified
 834              		.thumb
 835              		.thumb_func
 836              		.fpu fpv4-sp-d16
 838              	USBH_GetActiveClass:
 839              	.LFB138:
 310:Middlewares/ST/STM32_USB_Host_Library/Core/Src/usbh_core.c ****   return (phost->device.CfgDesc.Itf_Desc[0].bInterfaceClass);
 840              		.loc 1 310 0
ARM GAS  C:\Users\User\AppData\Local\Temp\ccMoYMA0.s 			page 39


 841              		.cfi_startproc
 842              		@ args = 0, pretend = 0, frame = 0
 843              		@ frame_needed = 0, uses_anonymous_args = 0
 844              		@ link register save eliminated.
 845              	.LVL73:
 312:Middlewares/ST/STM32_USB_Host_Library/Core/Src/usbh_core.c **** 
 846              		.loc 1 312 0
 847 0000 90F84703 		ldrb	r0, [r0, #839]	@ zero_extendqisi2
 848              	.LVL74:
 849 0004 7047     		bx	lr
 850              		.cfi_endproc
 851              	.LFE138:
 853              		.section	.text.USBH_FindInterface,"ax",%progbits
 854              		.align	1
 855              		.global	USBH_FindInterface
 856              		.syntax unified
 857              		.thumb
 858              		.thumb_func
 859              		.fpu fpv4-sp-d16
 861              	USBH_FindInterface:
 862              	.LFB139:
 326:Middlewares/ST/STM32_USB_Host_Library/Core/Src/usbh_core.c ****   USBH_InterfaceDescTypeDef *pif;
 863              		.loc 1 326 0
 864              		.cfi_startproc
 865              		@ args = 0, pretend = 0, frame = 0
 866              		@ frame_needed = 0, uses_anonymous_args = 0
 867              		@ link register save eliminated.
 868              	.LVL75:
 869 0000 70B4     		push	{r4, r5, r6}
 870              	.LCFI8:
 871              		.cfi_def_cfa_offset 12
 872              		.cfi_offset 4, -12
 873              		.cfi_offset 5, -8
 874              		.cfi_offset 6, -4
 875 0002 0646     		mov	r6, r0
 876              	.LVL76:
 329:Middlewares/ST/STM32_USB_Host_Library/Core/Src/usbh_core.c **** 
 877              		.loc 1 329 0
 878 0004 0020     		movs	r0, #0
 879              	.LVL77:
 334:Middlewares/ST/STM32_USB_Host_Library/Core/Src/usbh_core.c ****   {
 880              		.loc 1 334 0
 881 0006 0AE0     		b	.L82
 882              	.LVL78:
 883              	.L85:
 339:Middlewares/ST/STM32_USB_Host_Library/Core/Src/usbh_core.c ****     {
 884              		.loc 1 339 0 discriminator 1
 885 0008 1A24     		movs	r4, #26
 886 000a 04FB0565 		mla	r5, r4, r5, r6
 887 000e 95F84943 		ldrb	r4, [r5, #841]	@ zero_extendqisi2
 338:Middlewares/ST/STM32_USB_Host_Library/Core/Src/usbh_core.c ****         ((pif->bInterfaceProtocol == Protocol) || (Protocol == 0xFFU)))
 888              		.loc 1 338 0 discriminator 1
 889 0012 9C42     		cmp	r4, r3
 890 0014 1AD0     		beq	.L86
 339:Middlewares/ST/STM32_USB_Host_Library/Core/Src/usbh_core.c ****     {
 891              		.loc 1 339 0
 892 0016 FF2B     		cmp	r3, #255
ARM GAS  C:\Users\User\AppData\Local\Temp\ccMoYMA0.s 			page 40


 893 0018 18D0     		beq	.L86
 894              	.L84:
 343:Middlewares/ST/STM32_USB_Host_Library/Core/Src/usbh_core.c ****   }
 895              		.loc 1 343 0
 896 001a 441C     		adds	r4, r0, #1
 897 001c E0B2     		uxtb	r0, r4
 898              	.LVL79:
 899              	.L82:
 334:Middlewares/ST/STM32_USB_Host_Library/Core/Src/usbh_core.c ****   {
 900              		.loc 1 334 0
 901 001e 0128     		cmp	r0, #1
 902 0020 13D8     		bhi	.L89
 336:Middlewares/ST/STM32_USB_Host_Library/Core/Src/usbh_core.c ****     if (((pif->bInterfaceClass == Class) || (Class == 0xFFU)) &&
 903              		.loc 1 336 0
 904 0022 0546     		mov	r5, r0
 905              	.LVL80:
 337:Middlewares/ST/STM32_USB_Host_Library/Core/Src/usbh_core.c ****         ((pif->bInterfaceSubClass == SubClass) || (SubClass == 0xFFU)) &&
 906              		.loc 1 337 0
 907 0024 1A24     		movs	r4, #26
 908 0026 04FB0064 		mla	r4, r4, r0, r6
 909 002a 94F84743 		ldrb	r4, [r4, #839]	@ zero_extendqisi2
 910 002e 8C42     		cmp	r4, r1
 911 0030 01D0     		beq	.L83
 337:Middlewares/ST/STM32_USB_Host_Library/Core/Src/usbh_core.c ****         ((pif->bInterfaceSubClass == SubClass) || (SubClass == 0xFFU)) &&
 912              		.loc 1 337 0 is_stmt 0 discriminator 2
 913 0032 FF29     		cmp	r1, #255
 914 0034 F1D1     		bne	.L84
 915              	.L83:
 338:Middlewares/ST/STM32_USB_Host_Library/Core/Src/usbh_core.c ****         ((pif->bInterfaceProtocol == Protocol) || (Protocol == 0xFFU)))
 916              		.loc 1 338 0 is_stmt 1 discriminator 3
 917 0036 1A24     		movs	r4, #26
 918 0038 04FB0564 		mla	r4, r4, r5, r6
 919 003c 94F84843 		ldrb	r4, [r4, #840]	@ zero_extendqisi2
 337:Middlewares/ST/STM32_USB_Host_Library/Core/Src/usbh_core.c ****         ((pif->bInterfaceSubClass == SubClass) || (SubClass == 0xFFU)) &&
 920              		.loc 1 337 0 discriminator 3
 921 0040 9442     		cmp	r4, r2
 922 0042 E1D0     		beq	.L85
 338:Middlewares/ST/STM32_USB_Host_Library/Core/Src/usbh_core.c ****         ((pif->bInterfaceProtocol == Protocol) || (Protocol == 0xFFU)))
 923              		.loc 1 338 0
 924 0044 FF2A     		cmp	r2, #255
 925 0046 E8D1     		bne	.L84
 926 0048 DEE7     		b	.L85
 927              	.LVL81:
 928              	.L89:
 345:Middlewares/ST/STM32_USB_Host_Library/Core/Src/usbh_core.c **** }
 929              		.loc 1 345 0
 930 004a FF20     		movs	r0, #255
 931              	.LVL82:
 932              	.L86:
 346:Middlewares/ST/STM32_USB_Host_Library/Core/Src/usbh_core.c **** 
 933              		.loc 1 346 0
 934 004c 70BC     		pop	{r4, r5, r6}
 935              	.LCFI9:
 936              		.cfi_restore 6
 937              		.cfi_restore 5
 938              		.cfi_restore 4
 939              		.cfi_def_cfa_offset 0
ARM GAS  C:\Users\User\AppData\Local\Temp\ccMoYMA0.s 			page 41


 940              	.LVL83:
 941 004e 7047     		bx	lr
 942              		.cfi_endproc
 943              	.LFE139:
 945              		.section	.text.USBH_FindInterfaceIndex,"ax",%progbits
 946              		.align	1
 947              		.global	USBH_FindInterfaceIndex
 948              		.syntax unified
 949              		.thumb
 950              		.thumb_func
 951              		.fpu fpv4-sp-d16
 953              	USBH_FindInterfaceIndex:
 954              	.LFB140:
 359:Middlewares/ST/STM32_USB_Host_Library/Core/Src/usbh_core.c ****   USBH_InterfaceDescTypeDef *pif;
 955              		.loc 1 359 0
 956              		.cfi_startproc
 957              		@ args = 0, pretend = 0, frame = 0
 958              		@ frame_needed = 0, uses_anonymous_args = 0
 959              		@ link register save eliminated.
 960              	.LVL84:
 362:Middlewares/ST/STM32_USB_Host_Library/Core/Src/usbh_core.c **** 
 961              		.loc 1 362 0
 962 0000 0023     		movs	r3, #0
 963              	.LVL85:
 367:Middlewares/ST/STM32_USB_Host_Library/Core/Src/usbh_core.c ****   {
 964              		.loc 1 367 0
 965 0002 012B     		cmp	r3, #1
 966 0004 18D8     		bhi	.L100
 359:Middlewares/ST/STM32_USB_Host_Library/Core/Src/usbh_core.c ****   USBH_InterfaceDescTypeDef *pif;
 967              		.loc 1 359 0
 968 0006 10B4     		push	{r4}
 969              	.LCFI10:
 970              		.cfi_def_cfa_offset 4
 971              		.cfi_offset 4, -4
 972              	.LVL86:
 973              	.L94:
 370:Middlewares/ST/STM32_USB_Host_Library/Core/Src/usbh_core.c ****     {
 974              		.loc 1 370 0
 975 0008 1A24     		movs	r4, #26
 976 000a 04FB0304 		mla	r4, r4, r3, r0
 977 000e 94F84443 		ldrb	r4, [r4, #836]	@ zero_extendqisi2
 978 0012 8C42     		cmp	r4, r1
 979 0014 08D0     		beq	.L101
 980              	.L92:
 374:Middlewares/ST/STM32_USB_Host_Library/Core/Src/usbh_core.c ****   }
 981              		.loc 1 374 0
 982 0016 0133     		adds	r3, r3, #1
 983              	.LVL87:
 984 0018 DBB2     		uxtb	r3, r3
 985              	.LVL88:
 367:Middlewares/ST/STM32_USB_Host_Library/Core/Src/usbh_core.c ****   {
 986              		.loc 1 367 0
 987 001a 012B     		cmp	r3, #1
 988 001c F4D9     		bls	.L94
 376:Middlewares/ST/STM32_USB_Host_Library/Core/Src/usbh_core.c **** }
 989              		.loc 1 376 0
 990 001e FF23     		movs	r3, #255
ARM GAS  C:\Users\User\AppData\Local\Temp\ccMoYMA0.s 			page 42


 991              	.LVL89:
 992              	.L93:
 377:Middlewares/ST/STM32_USB_Host_Library/Core/Src/usbh_core.c **** 
 993              		.loc 1 377 0
 994 0020 1846     		mov	r0, r3
 995              	.LVL90:
 996 0022 5DF8044B 		ldr	r4, [sp], #4
 997              	.LCFI11:
 998              		.cfi_remember_state
 999              		.cfi_restore 4
 1000              		.cfi_def_cfa_offset 0
 1001 0026 7047     		bx	lr
 1002              	.LVL91:
 1003              	.L101:
 1004              	.LCFI12:
 1005              		.cfi_restore_state
 370:Middlewares/ST/STM32_USB_Host_Library/Core/Src/usbh_core.c ****     {
 1006              		.loc 1 370 0 discriminator 1
 1007 0028 1A24     		movs	r4, #26
 1008 002a 04FB0304 		mla	r4, r4, r3, r0
 1009 002e 94F84543 		ldrb	r4, [r4, #837]	@ zero_extendqisi2
 1010 0032 9442     		cmp	r4, r2
 1011 0034 EFD1     		bne	.L92
 1012 0036 F3E7     		b	.L93
 1013              	.LVL92:
 1014              	.L100:
 1015              	.LCFI13:
 1016              		.cfi_def_cfa_offset 0
 1017              		.cfi_restore 4
 376:Middlewares/ST/STM32_USB_Host_Library/Core/Src/usbh_core.c **** }
 1018              		.loc 1 376 0
 1019 0038 FF23     		movs	r3, #255
 1020              	.LVL93:
 377:Middlewares/ST/STM32_USB_Host_Library/Core/Src/usbh_core.c **** 
 1021              		.loc 1 377 0
 1022 003a 1846     		mov	r0, r3
 1023              	.LVL94:
 1024 003c 7047     		bx	lr
 1025              		.cfi_endproc
 1026              	.LFE140:
 1028              		.section	.text.USBH_Start,"ax",%progbits
 1029              		.align	1
 1030              		.global	USBH_Start
 1031              		.syntax unified
 1032              		.thumb
 1033              		.thumb_func
 1034              		.fpu fpv4-sp-d16
 1036              	USBH_Start:
 1037              	.LFB141:
 387:Middlewares/ST/STM32_USB_Host_Library/Core/Src/usbh_core.c ****   /* Start the low level driver  */
 1038              		.loc 1 387 0
 1039              		.cfi_startproc
 1040              		@ args = 0, pretend = 0, frame = 0
 1041              		@ frame_needed = 0, uses_anonymous_args = 0
 1042              	.LVL95:
 1043 0000 10B5     		push	{r4, lr}
 1044              	.LCFI14:
ARM GAS  C:\Users\User\AppData\Local\Temp\ccMoYMA0.s 			page 43


 1045              		.cfi_def_cfa_offset 8
 1046              		.cfi_offset 4, -8
 1047              		.cfi_offset 14, -4
 1048 0002 0446     		mov	r4, r0
 389:Middlewares/ST/STM32_USB_Host_Library/Core/Src/usbh_core.c **** 
 1049              		.loc 1 389 0
 1050 0004 FFF7FEFF 		bl	USBH_LL_Start
 1051              	.LVL96:
 392:Middlewares/ST/STM32_USB_Host_Library/Core/Src/usbh_core.c **** 
 1052              		.loc 1 392 0
 1053 0008 0121     		movs	r1, #1
 1054 000a 2046     		mov	r0, r4
 1055 000c FFF7FEFF 		bl	USBH_LL_DriverVBUS
 1056              	.LVL97:
 395:Middlewares/ST/STM32_USB_Host_Library/Core/Src/usbh_core.c **** 
 1057              		.loc 1 395 0
 1058 0010 0020     		movs	r0, #0
 1059 0012 10BD     		pop	{r4, pc}
 1060              		.cfi_endproc
 1061              	.LFE141:
 1063              		.section	.text.USBH_Stop,"ax",%progbits
 1064              		.align	1
 1065              		.global	USBH_Stop
 1066              		.syntax unified
 1067              		.thumb
 1068              		.thumb_func
 1069              		.fpu fpv4-sp-d16
 1071              	USBH_Stop:
 1072              	.LFB142:
 405:Middlewares/ST/STM32_USB_Host_Library/Core/Src/usbh_core.c ****   /* DeActivate VBUS on the port */
 1073              		.loc 1 405 0
 1074              		.cfi_startproc
 1075              		@ args = 0, pretend = 0, frame = 0
 1076              		@ frame_needed = 0, uses_anonymous_args = 0
 1077              	.LVL98:
 1078 0000 10B5     		push	{r4, lr}
 1079              	.LCFI15:
 1080              		.cfi_def_cfa_offset 8
 1081              		.cfi_offset 4, -8
 1082              		.cfi_offset 14, -4
 1083 0002 0446     		mov	r4, r0
 407:Middlewares/ST/STM32_USB_Host_Library/Core/Src/usbh_core.c **** 
 1084              		.loc 1 407 0
 1085 0004 0021     		movs	r1, #0
 1086 0006 FFF7FEFF 		bl	USBH_LL_DriverVBUS
 1087              	.LVL99:
 410:Middlewares/ST/STM32_USB_Host_Library/Core/Src/usbh_core.c **** 
 1088              		.loc 1 410 0
 1089 000a 2046     		mov	r0, r4
 1090 000c FFF7FEFF 		bl	USBH_LL_Stop
 1091              	.LVL100:
 413:Middlewares/ST/STM32_USB_Host_Library/Core/Src/usbh_core.c ****   USBH_FreePipe(phost, phost->Control.pipe_out);
 1092              		.loc 1 413 0
 1093 0010 2179     		ldrb	r1, [r4, #4]	@ zero_extendqisi2
 1094 0012 2046     		mov	r0, r4
 1095 0014 FFF7FEFF 		bl	USBH_FreePipe
 1096              	.LVL101:
ARM GAS  C:\Users\User\AppData\Local\Temp\ccMoYMA0.s 			page 44


 414:Middlewares/ST/STM32_USB_Host_Library/Core/Src/usbh_core.c **** 
 1097              		.loc 1 414 0
 1098 0018 6179     		ldrb	r1, [r4, #5]	@ zero_extendqisi2
 1099 001a 2046     		mov	r0, r4
 1100 001c FFF7FEFF 		bl	USBH_FreePipe
 1101              	.LVL102:
 417:Middlewares/ST/STM32_USB_Host_Library/Core/Src/usbh_core.c **** 
 1102              		.loc 1 417 0
 1103 0020 0020     		movs	r0, #0
 1104 0022 10BD     		pop	{r4, pc}
 1105              		.cfi_endproc
 1106              	.LFE142:
 1108              		.section	.text.USBH_Process,"ax",%progbits
 1109              		.align	1
 1110              		.global	USBH_Process
 1111              		.syntax unified
 1112              		.thumb
 1113              		.thumb_func
 1114              		.fpu fpv4-sp-d16
 1116              	USBH_Process:
 1117              	.LFB144:
 458:Middlewares/ST/STM32_USB_Host_Library/Core/Src/usbh_core.c ****   __IO USBH_StatusTypeDef status = USBH_FAIL;
 1118              		.loc 1 458 0
 1119              		.cfi_startproc
 1120              		@ args = 0, pretend = 0, frame = 8
 1121              		@ frame_needed = 0, uses_anonymous_args = 0
 1122              	.LVL103:
 1123 0000 30B5     		push	{r4, r5, lr}
 1124              	.LCFI16:
 1125              		.cfi_def_cfa_offset 12
 1126              		.cfi_offset 4, -12
 1127              		.cfi_offset 5, -8
 1128              		.cfi_offset 14, -4
 1129 0002 87B0     		sub	sp, sp, #28
 1130              	.LCFI17:
 1131              		.cfi_def_cfa_offset 40
 1132 0004 0446     		mov	r4, r0
 459:Middlewares/ST/STM32_USB_Host_Library/Core/Src/usbh_core.c ****   uint8_t idx = 0U;
 1133              		.loc 1 459 0
 1134 0006 0223     		movs	r3, #2
 1135 0008 8DF81730 		strb	r3, [sp, #23]
 1136              	.LVL104:
 463:Middlewares/ST/STM32_USB_Host_Library/Core/Src/usbh_core.c ****   {
 1137              		.loc 1 463 0
 1138 000c 90F82133 		ldrb	r3, [r0, #801]	@ zero_extendqisi2
 1139 0010 DBB2     		uxtb	r3, r3
 1140 0012 012B     		cmp	r3, #1
 1141 0014 11D0     		beq	.L139
 1142              	.L107:
 468:Middlewares/ST/STM32_USB_Host_Library/Core/Src/usbh_core.c ****   {
 1143              		.loc 1 468 0
 1144 0016 2378     		ldrb	r3, [r4]	@ zero_extendqisi2
 1145 0018 DBB2     		uxtb	r3, r3
 1146 001a 0B2B     		cmp	r3, #11
 1147 001c 7BD8     		bhi	.L108
 1148 001e DFE813F0 		tbh	[pc, r3, lsl #1]
 1149              	.L110:
ARM GAS  C:\Users\User\AppData\Local\Temp\ccMoYMA0.s 			page 45


 1150 0022 0F00     		.2byte	(.L109-.L110)/2
 1151 0024 2100     		.2byte	(.L111-.L110)/2
 1152 0026 4500     		.2byte	(.L112-.L110)/2
 1153 0028 0901     		.2byte	(.L113-.L110)/2
 1154 002a 7A00     		.2byte	(.L108-.L110)/2
 1155 002c 7D00     		.2byte	(.L114-.L110)/2
 1156 002e E700     		.2byte	(.L115-.L110)/2
 1157 0030 9200     		.2byte	(.L116-.L110)/2
 1158 0032 9C00     		.2byte	(.L117-.L110)/2
 1159 0034 A600     		.2byte	(.L118-.L110)/2
 1160 0036 B700     		.2byte	(.L119-.L110)/2
 1161 0038 0001     		.2byte	(.L120-.L110)/2
 1162              		.p2align 1
 1163              	.L139:
 465:Middlewares/ST/STM32_USB_Host_Library/Core/Src/usbh_core.c ****   }
 1164              		.loc 1 465 0
 1165 003a 0323     		movs	r3, #3
 1166 003c 0370     		strb	r3, [r0]
 1167 003e EAE7     		b	.L107
 1168              	.L109:
 472:Middlewares/ST/STM32_USB_Host_Library/Core/Src/usbh_core.c ****       {
 1169              		.loc 1 472 0
 1170 0040 94F82033 		ldrb	r3, [r4, #800]	@ zero_extendqisi2
 1171 0044 002B     		cmp	r3, #0
 1172 0046 66D0     		beq	.L108
 477:Middlewares/ST/STM32_USB_Host_Library/Core/Src/usbh_core.c ****         USBH_Delay(200U);
 1173              		.loc 1 477 0
 1174 0048 0123     		movs	r3, #1
 1175 004a 2370     		strb	r3, [r4]
 478:Middlewares/ST/STM32_USB_Host_Library/Core/Src/usbh_core.c ****         USBH_LL_ResetPort(phost);
 1176              		.loc 1 478 0
 1177 004c C820     		movs	r0, #200
 1178              	.LVL105:
 1179 004e FFF7FEFF 		bl	USBH_Delay
 1180              	.LVL106:
 479:Middlewares/ST/STM32_USB_Host_Library/Core/Src/usbh_core.c **** 
 1181              		.loc 1 479 0
 1182 0052 2046     		mov	r0, r4
 1183 0054 FFF7FEFF 		bl	USBH_LL_ResetPort
 1184              	.LVL107:
 482:Middlewares/ST/STM32_USB_Host_Library/Core/Src/usbh_core.c ****         phost->Timeout = 0U;
 1185              		.loc 1 482 0
 1186 0058 0023     		movs	r3, #0
 1187 005a 84F81C33 		strb	r3, [r4, #796]
 483:Middlewares/ST/STM32_USB_Host_Library/Core/Src/usbh_core.c **** 
 1188              		.loc 1 483 0
 1189 005e C4F8C833 		str	r3, [r4, #968]
 1190 0062 58E0     		b	.L108
 1191              	.LVL108:
 1192              	.L111:
 498:Middlewares/ST/STM32_USB_Host_Library/Core/Src/usbh_core.c ****       {
 1193              		.loc 1 498 0
 1194 0064 94F82333 		ldrb	r3, [r4, #803]	@ zero_extendqisi2
 1195 0068 012B     		cmp	r3, #1
 1196 006a 0FD0     		beq	.L140
 506:Middlewares/ST/STM32_USB_Host_Library/Core/Src/usbh_core.c ****         {
 1197              		.loc 1 506 0
ARM GAS  C:\Users\User\AppData\Local\Temp\ccMoYMA0.s 			page 46


 1198 006c D4F8C833 		ldr	r3, [r4, #968]
 1199 0070 B3F57A7F 		cmp	r3, #1000
 1200 0074 13D9     		bls	.L122
 508:Middlewares/ST/STM32_USB_Host_Library/Core/Src/usbh_core.c ****           if (phost->device.RstCnt > 3U)
 1201              		.loc 1 508 0
 1202 0076 94F81F33 		ldrb	r3, [r4, #799]	@ zero_extendqisi2
 1203 007a 0133     		adds	r3, r3, #1
 1204 007c DBB2     		uxtb	r3, r3
 1205 007e 84F81F33 		strb	r3, [r4, #799]
 509:Middlewares/ST/STM32_USB_Host_Library/Core/Src/usbh_core.c ****           {
 1206              		.loc 1 509 0
 1207 0082 032B     		cmp	r3, #3
 1208 0084 08D9     		bls	.L123
 513:Middlewares/ST/STM32_USB_Host_Library/Core/Src/usbh_core.c ****           }
 1209              		.loc 1 513 0
 1210 0086 0D23     		movs	r3, #13
 1211 0088 2370     		strb	r3, [r4]
 1212 008a 44E0     		b	.L108
 1213              	.L140:
 501:Middlewares/ST/STM32_USB_Host_Library/Core/Src/usbh_core.c ****         phost->gState = HOST_DEV_ATTACHED;
 1214              		.loc 1 501 0
 1215 008c 0023     		movs	r3, #0
 1216 008e 84F81F33 		strb	r3, [r4, #799]
 502:Middlewares/ST/STM32_USB_Host_Library/Core/Src/usbh_core.c ****       }
 1217              		.loc 1 502 0
 1218 0092 0223     		movs	r3, #2
 1219 0094 2370     		strb	r3, [r4]
 1220 0096 3EE0     		b	.L108
 1221              	.L123:
 517:Middlewares/ST/STM32_USB_Host_Library/Core/Src/usbh_core.c ****           }
 1222              		.loc 1 517 0
 1223 0098 0023     		movs	r3, #0
 1224 009a 2370     		strb	r3, [r4]
 1225 009c 3BE0     		b	.L108
 1226              	.L122:
 522:Middlewares/ST/STM32_USB_Host_Library/Core/Src/usbh_core.c ****           USBH_Delay(10U);
 1227              		.loc 1 522 0
 1228 009e 0A33     		adds	r3, r3, #10
 1229 00a0 C4F8C833 		str	r3, [r4, #968]
 523:Middlewares/ST/STM32_USB_Host_Library/Core/Src/usbh_core.c ****         }
 1230              		.loc 1 523 0
 1231 00a4 0A20     		movs	r0, #10
 1232              	.LVL109:
 1233 00a6 FFF7FEFF 		bl	USBH_Delay
 1234              	.LVL110:
 1235 00aa 34E0     		b	.L108
 1236              	.LVL111:
 1237              	.L112:
 538:Middlewares/ST/STM32_USB_Host_Library/Core/Src/usbh_core.c ****       {
 1238              		.loc 1 538 0
 1239 00ac D4F8D433 		ldr	r3, [r4, #980]
 1240 00b0 13B1     		cbz	r3, .L124
 540:Middlewares/ST/STM32_USB_Host_Library/Core/Src/usbh_core.c ****       }
 1241              		.loc 1 540 0
 1242 00b2 0421     		movs	r1, #4
 1243 00b4 2046     		mov	r0, r4
 1244              	.LVL112:
ARM GAS  C:\Users\User\AppData\Local\Temp\ccMoYMA0.s 			page 47


 1245 00b6 9847     		blx	r3
 1246              	.LVL113:
 1247              	.L124:
 544:Middlewares/ST/STM32_USB_Host_Library/Core/Src/usbh_core.c **** 
 1248              		.loc 1 544 0
 1249 00b8 6420     		movs	r0, #100
 1250 00ba FFF7FEFF 		bl	USBH_Delay
 1251              	.LVL114:
 546:Middlewares/ST/STM32_USB_Host_Library/Core/Src/usbh_core.c **** 
 1252              		.loc 1 546 0
 1253 00be 2046     		mov	r0, r4
 1254 00c0 FFF7FEFF 		bl	USBH_LL_GetSpeed
 1255              	.LVL115:
 1256 00c4 84F81D03 		strb	r0, [r4, #797]
 548:Middlewares/ST/STM32_USB_Host_Library/Core/Src/usbh_core.c **** 
 1257              		.loc 1 548 0
 1258 00c8 0523     		movs	r3, #5
 1259 00ca 2370     		strb	r3, [r4]
 550:Middlewares/ST/STM32_USB_Host_Library/Core/Src/usbh_core.c ****       phost->Control.pipe_in  = USBH_AllocPipe(phost, 0x80U);
 1260              		.loc 1 550 0
 1261 00cc 0021     		movs	r1, #0
 1262 00ce 2046     		mov	r0, r4
 1263 00d0 FFF7FEFF 		bl	USBH_AllocPipe
 1264              	.LVL116:
 1265 00d4 6071     		strb	r0, [r4, #5]
 551:Middlewares/ST/STM32_USB_Host_Library/Core/Src/usbh_core.c **** 
 1266              		.loc 1 551 0
 1267 00d6 8021     		movs	r1, #128
 1268 00d8 2046     		mov	r0, r4
 1269 00da FFF7FEFF 		bl	USBH_AllocPipe
 1270              	.LVL117:
 1271 00de 0146     		mov	r1, r0
 1272 00e0 2071     		strb	r0, [r4, #4]
 554:Middlewares/ST/STM32_USB_Host_Library/Core/Src/usbh_core.c ****                     phost->device.address, phost->device.speed,
 1273              		.loc 1 554 0
 1274 00e2 94F81C33 		ldrb	r3, [r4, #796]	@ zero_extendqisi2
 1275 00e6 A279     		ldrb	r2, [r4, #6]	@ zero_extendqisi2
 1276 00e8 0292     		str	r2, [sp, #8]
 1277 00ea 0025     		movs	r5, #0
 1278 00ec 0195     		str	r5, [sp, #4]
 1279 00ee 94F81D23 		ldrb	r2, [r4, #797]	@ zero_extendqisi2
 1280 00f2 0092     		str	r2, [sp]
 1281 00f4 8022     		movs	r2, #128
 1282 00f6 2046     		mov	r0, r4
 1283 00f8 FFF7FEFF 		bl	USBH_OpenPipe
 1284              	.LVL118:
 559:Middlewares/ST/STM32_USB_Host_Library/Core/Src/usbh_core.c ****                     phost->device.address, phost->device.speed,
 1285              		.loc 1 559 0
 1286 00fc 94F81C33 		ldrb	r3, [r4, #796]	@ zero_extendqisi2
 1287 0100 6179     		ldrb	r1, [r4, #5]	@ zero_extendqisi2
 1288 0102 A279     		ldrb	r2, [r4, #6]	@ zero_extendqisi2
 1289 0104 0292     		str	r2, [sp, #8]
 1290 0106 0195     		str	r5, [sp, #4]
 1291 0108 94F81D23 		ldrb	r2, [r4, #797]	@ zero_extendqisi2
 1292 010c 0092     		str	r2, [sp]
 1293 010e 2A46     		mov	r2, r5
 1294 0110 2046     		mov	r0, r4
ARM GAS  C:\Users\User\AppData\Local\Temp\ccMoYMA0.s 			page 48


 1295 0112 FFF7FEFF 		bl	USBH_OpenPipe
 1296              	.LVL119:
 1297              	.L108:
 807:Middlewares/ST/STM32_USB_Host_Library/Core/Src/usbh_core.c **** 
 1298              		.loc 1 807 0
 1299 0116 0020     		movs	r0, #0
 1300 0118 07B0     		add	sp, sp, #28
 1301              	.LCFI18:
 1302              		.cfi_remember_state
 1303              		.cfi_def_cfa_offset 12
 1304              		@ sp needed
 1305 011a 30BD     		pop	{r4, r5, pc}
 1306              	.LVL120:
 1307              	.L114:
 1308              	.LCFI19:
 1309              		.cfi_restore_state
 575:Middlewares/ST/STM32_USB_Host_Library/Core/Src/usbh_core.c ****       if (status == USBH_OK)
 1310              		.loc 1 575 0
 1311 011c 2046     		mov	r0, r4
 1312              	.LVL121:
 1313 011e FFF7FEFF 		bl	USBH_HandleEnum
 1314              	.LVL122:
 1315 0122 8DF81700 		strb	r0, [sp, #23]
 576:Middlewares/ST/STM32_USB_Host_Library/Core/Src/usbh_core.c ****       {
 1316              		.loc 1 576 0
 1317 0126 9DF81730 		ldrb	r3, [sp, #23]	@ zero_extendqisi2
 1318 012a 002B     		cmp	r3, #0
 1319 012c F3D1     		bne	.L108
 581:Middlewares/ST/STM32_USB_Host_Library/Core/Src/usbh_core.c **** 
 1320              		.loc 1 581 0
 1321 012e 84F82433 		strb	r3, [r4, #804]
 583:Middlewares/ST/STM32_USB_Host_Library/Core/Src/usbh_core.c ****         {
 1322              		.loc 1 583 0
 1323 0132 94F83733 		ldrb	r3, [r4, #823]	@ zero_extendqisi2
 1324 0136 012B     		cmp	r3, #1
 1325 0138 02D0     		beq	.L141
 590:Middlewares/ST/STM32_USB_Host_Library/Core/Src/usbh_core.c ****         }
 1326              		.loc 1 590 0
 1327 013a 0723     		movs	r3, #7
 1328 013c 2370     		strb	r3, [r4]
 1329 013e EAE7     		b	.L108
 1330              	.L141:
 586:Middlewares/ST/STM32_USB_Host_Library/Core/Src/usbh_core.c ****         }
 1331              		.loc 1 586 0
 1332 0140 0823     		movs	r3, #8
 1333 0142 2370     		strb	r3, [r4]
 1334 0144 E7E7     		b	.L108
 1335              	.LVL123:
 1336              	.L116:
 606:Middlewares/ST/STM32_USB_Host_Library/Core/Src/usbh_core.c ****       {
 1337              		.loc 1 606 0
 1338 0146 D4F8D433 		ldr	r3, [r4, #980]
 1339 014a 002B     		cmp	r3, #0
 1340 014c E3D0     		beq	.L108
 608:Middlewares/ST/STM32_USB_Host_Library/Core/Src/usbh_core.c ****         phost->gState = HOST_SET_CONFIGURATION;
 1341              		.loc 1 608 0
 1342 014e 0121     		movs	r1, #1
ARM GAS  C:\Users\User\AppData\Local\Temp\ccMoYMA0.s 			page 49


 1343 0150 2046     		mov	r0, r4
 1344              	.LVL124:
 1345 0152 9847     		blx	r3
 1346              	.LVL125:
 609:Middlewares/ST/STM32_USB_Host_Library/Core/Src/usbh_core.c **** 
 1347              		.loc 1 609 0
 1348 0154 0823     		movs	r3, #8
 1349 0156 2370     		strb	r3, [r4]
 1350 0158 DDE7     		b	.L108
 1351              	.LVL126:
 1352              	.L117:
 625:Middlewares/ST/STM32_USB_Host_Library/Core/Src/usbh_core.c ****       {
 1353              		.loc 1 625 0
 1354 015a 94F83D13 		ldrb	r1, [r4, #829]	@ zero_extendqisi2
 1355 015e 2046     		mov	r0, r4
 1356              	.LVL127:
 1357 0160 FFF7FEFF 		bl	USBH_SetCfg
 1358              	.LVL128:
 1359 0164 0028     		cmp	r0, #0
 1360 0166 D6D1     		bne	.L108
 627:Middlewares/ST/STM32_USB_Host_Library/Core/Src/usbh_core.c ****         USBH_UsrLog("Default configuration set.");
 1361              		.loc 1 627 0
 1362 0168 0923     		movs	r3, #9
 1363 016a 2370     		strb	r3, [r4]
 1364 016c D3E7     		b	.L108
 1365              	.LVL129:
 1366              	.L118:
 643:Middlewares/ST/STM32_USB_Host_Library/Core/Src/usbh_core.c ****       {
 1367              		.loc 1 643 0
 1368 016e 94F83F33 		ldrb	r3, [r4, #831]	@ zero_extendqisi2
 1369 0172 13F0200F 		tst	r3, #32
 1370 0176 02D1     		bne	.L142
 653:Middlewares/ST/STM32_USB_Host_Library/Core/Src/usbh_core.c ****       }
 1371              		.loc 1 653 0
 1372 0178 0A23     		movs	r3, #10
 1373 017a 2370     		strb	r3, [r4]
 1374 017c CBE7     		b	.L108
 1375              	.L142:
 645:Middlewares/ST/STM32_USB_Host_Library/Core/Src/usbh_core.c ****         {
 1376              		.loc 1 645 0
 1377 017e 0121     		movs	r1, #1
 1378 0180 2046     		mov	r0, r4
 1379              	.LVL130:
 1380 0182 FFF7FEFF 		bl	USBH_SetFeature
 1381              	.LVL131:
 1382 0186 0028     		cmp	r0, #0
 1383 0188 C5D1     		bne	.L108
 648:Middlewares/ST/STM32_USB_Host_Library/Core/Src/usbh_core.c ****         }
 1384              		.loc 1 648 0
 1385 018a 0A23     		movs	r3, #10
 1386 018c 2370     		strb	r3, [r4]
 1387 018e C2E7     		b	.L108
 1388              	.LVL132:
 1389              	.L119:
 668:Middlewares/ST/STM32_USB_Host_Library/Core/Src/usbh_core.c ****       {
 1390              		.loc 1 668 0
 1391 0190 D4F88033 		ldr	r3, [r4, #896]
ARM GAS  C:\Users\User\AppData\Local\Temp\ccMoYMA0.s 			page 50


 1392 0194 002B     		cmp	r3, #0
 1393 0196 BED0     		beq	.L108
 674:Middlewares/ST/STM32_USB_Host_Library/Core/Src/usbh_core.c **** 
 1394              		.loc 1 674 0
 1395 0198 0023     		movs	r3, #0
 1396 019a C4F87C33 		str	r3, [r4, #892]
 1397              	.LVL133:
 1398              	.L127:
 676:Middlewares/ST/STM32_USB_Host_Library/Core/Src/usbh_core.c ****         {
 1399              		.loc 1 676 0 discriminator 1
 1400 019e 73B1     		cbz	r3, .L130
 1401              	.LVL134:
 1402              	.L129:
 685:Middlewares/ST/STM32_USB_Host_Library/Core/Src/usbh_core.c ****         {
 1403              		.loc 1 685 0
 1404 01a0 D4F87C33 		ldr	r3, [r4, #892]
 1405 01a4 0BB3     		cbz	r3, .L131
 687:Middlewares/ST/STM32_USB_Host_Library/Core/Src/usbh_core.c ****           {
 1406              		.loc 1 687 0
 1407 01a6 9B68     		ldr	r3, [r3, #8]
 1408 01a8 2046     		mov	r0, r4
 1409 01aa 9847     		blx	r3
 1410              	.LVL135:
 1411 01ac D0B9     		cbnz	r0, .L132
 689:Middlewares/ST/STM32_USB_Host_Library/Core/Src/usbh_core.c ****             USBH_UsrLog("%s class started.", phost->pActiveClass->Name);
 1412              		.loc 1 689 0
 1413 01ae 0623     		movs	r3, #6
 1414 01b0 2370     		strb	r3, [r4]
 693:Middlewares/ST/STM32_USB_Host_Library/Core/Src/usbh_core.c ****           }
 1415              		.loc 1 693 0
 1416 01b2 D4F8D433 		ldr	r3, [r4, #980]
 1417 01b6 0321     		movs	r1, #3
 1418 01b8 2046     		mov	r0, r4
 1419 01ba 9847     		blx	r3
 1420              	.LVL136:
 1421 01bc ABE7     		b	.L108
 1422              	.LVL137:
 1423              	.L130:
 678:Middlewares/ST/STM32_USB_Host_Library/Core/Src/usbh_core.c ****           {
 1424              		.loc 1 678 0
 1425 01be 1846     		mov	r0, r3
 1426 01c0 03F1DE02 		add	r2, r3, #222
 1427 01c4 54F82220 		ldr	r2, [r4, r2, lsl #2]
 1428 01c8 1179     		ldrb	r1, [r2, #4]	@ zero_extendqisi2
 1429 01ca 94F84723 		ldrb	r2, [r4, #839]	@ zero_extendqisi2
 1430 01ce 9142     		cmp	r1, r2
 1431 01d0 02D0     		beq	.L143
 676:Middlewares/ST/STM32_USB_Host_Library/Core/Src/usbh_core.c ****         {
 1432              		.loc 1 676 0 discriminator 2
 1433 01d2 0133     		adds	r3, r3, #1
 1434              	.LVL138:
 1435 01d4 DBB2     		uxtb	r3, r3
 1436              	.LVL139:
 1437 01d6 E2E7     		b	.L127
 1438              	.L143:
 680:Middlewares/ST/STM32_USB_Host_Library/Core/Src/usbh_core.c ****             break;
 1439              		.loc 1 680 0
ARM GAS  C:\Users\User\AppData\Local\Temp\ccMoYMA0.s 			page 51


 1440 01d8 DE30     		adds	r0, r0, #222
 1441 01da 54F82030 		ldr	r3, [r4, r0, lsl #2]
 1442              	.LVL140:
 1443 01de C4F87C33 		str	r3, [r4, #892]
 681:Middlewares/ST/STM32_USB_Host_Library/Core/Src/usbh_core.c ****           }
 1444              		.loc 1 681 0
 1445 01e2 DDE7     		b	.L129
 1446              	.L132:
 697:Middlewares/ST/STM32_USB_Host_Library/Core/Src/usbh_core.c ****             USBH_UsrLog("Device not supporting %s class.", phost->pActiveClass->Name);
 1447              		.loc 1 697 0
 1448 01e4 0D23     		movs	r3, #13
 1449 01e6 2370     		strb	r3, [r4]
 1450 01e8 95E7     		b	.L108
 1451              	.L131:
 703:Middlewares/ST/STM32_USB_Host_Library/Core/Src/usbh_core.c ****           USBH_UsrLog("No registered class for this device.");
 1452              		.loc 1 703 0
 1453 01ea 0D23     		movs	r3, #13
 1454 01ec 2370     		strb	r3, [r4]
 1455 01ee 92E7     		b	.L108
 1456              	.LVL141:
 1457              	.L115:
 720:Middlewares/ST/STM32_USB_Host_Library/Core/Src/usbh_core.c ****       {
 1458              		.loc 1 720 0
 1459 01f0 D4F87C33 		ldr	r3, [r4, #892]
 1460 01f4 93B1     		cbz	r3, .L133
 722:Middlewares/ST/STM32_USB_Host_Library/Core/Src/usbh_core.c **** 
 1461              		.loc 1 722 0
 1462 01f6 1B69     		ldr	r3, [r3, #16]
 1463 01f8 2046     		mov	r0, r4
 1464              	.LVL142:
 1465 01fa 9847     		blx	r3
 1466              	.LVL143:
 1467 01fc 8DF81700 		strb	r0, [sp, #23]
 724:Middlewares/ST/STM32_USB_Host_Library/Core/Src/usbh_core.c ****         {
 1468              		.loc 1 724 0
 1469 0200 9DF81730 		ldrb	r3, [sp, #23]	@ zero_extendqisi2
 1470 0204 3BB1     		cbz	r3, .L144
 728:Middlewares/ST/STM32_USB_Host_Library/Core/Src/usbh_core.c ****         {
 1471              		.loc 1 728 0
 1472 0206 9DF81730 		ldrb	r3, [sp, #23]	@ zero_extendqisi2
 1473 020a DBB2     		uxtb	r3, r3
 1474 020c 022B     		cmp	r3, #2
 1475 020e 82D1     		bne	.L108
 730:Middlewares/ST/STM32_USB_Host_Library/Core/Src/usbh_core.c ****           USBH_ErrLog("Device not responding Please Unplug.");
 1476              		.loc 1 730 0
 1477 0210 0D23     		movs	r3, #13
 1478 0212 2370     		strb	r3, [r4]
 1479 0214 7FE7     		b	.L108
 1480              	.L144:
 726:Middlewares/ST/STM32_USB_Host_Library/Core/Src/usbh_core.c ****         }
 1481              		.loc 1 726 0
 1482 0216 0B23     		movs	r3, #11
 1483 0218 2370     		strb	r3, [r4]
 1484 021a 7CE7     		b	.L108
 1485              	.LVL144:
 1486              	.L133:
 740:Middlewares/ST/STM32_USB_Host_Library/Core/Src/usbh_core.c ****         USBH_ErrLog("Invalid Class Driver.");
ARM GAS  C:\Users\User\AppData\Local\Temp\ccMoYMA0.s 			page 52


 1487              		.loc 1 740 0
 1488 021c 0D23     		movs	r3, #13
 1489 021e 2370     		strb	r3, [r4]
 1490 0220 79E7     		b	.L108
 1491              	.L120:
 755:Middlewares/ST/STM32_USB_Host_Library/Core/Src/usbh_core.c ****       {
 1492              		.loc 1 755 0
 1493 0222 D4F87C33 		ldr	r3, [r4, #892]
 1494 0226 002B     		cmp	r3, #0
 1495 0228 3FF475AF 		beq	.L108
 757:Middlewares/ST/STM32_USB_Host_Library/Core/Src/usbh_core.c ****       }
 1496              		.loc 1 757 0
 1497 022c 5B69     		ldr	r3, [r3, #20]
 1498 022e 2046     		mov	r0, r4
 1499              	.LVL145:
 1500 0230 9847     		blx	r3
 1501              	.LVL146:
 1502 0232 70E7     		b	.L108
 1503              	.LVL147:
 1504              	.L113:
 762:Middlewares/ST/STM32_USB_Host_Library/Core/Src/usbh_core.c **** 
 1505              		.loc 1 762 0
 1506 0234 0023     		movs	r3, #0
 1507 0236 84F82133 		strb	r3, [r4, #801]
 764:Middlewares/ST/STM32_USB_Host_Library/Core/Src/usbh_core.c **** 
 1508              		.loc 1 764 0
 1509 023a 2046     		mov	r0, r4
 1510              	.LVL148:
 1511 023c FFF7FEFF 		bl	DeInitStateMachine
 1512              	.LVL149:
 767:Middlewares/ST/STM32_USB_Host_Library/Core/Src/usbh_core.c ****       {
 1513              		.loc 1 767 0
 1514 0240 D4F87C33 		ldr	r3, [r4, #892]
 1515 0244 2BB1     		cbz	r3, .L135
 769:Middlewares/ST/STM32_USB_Host_Library/Core/Src/usbh_core.c ****         phost->pActiveClass = NULL;
 1516              		.loc 1 769 0
 1517 0246 DB68     		ldr	r3, [r3, #12]
 1518 0248 2046     		mov	r0, r4
 1519 024a 9847     		blx	r3
 1520              	.LVL150:
 770:Middlewares/ST/STM32_USB_Host_Library/Core/Src/usbh_core.c ****       }
 1521              		.loc 1 770 0
 1522 024c 0023     		movs	r3, #0
 1523 024e C4F87C33 		str	r3, [r4, #892]
 1524              	.L135:
 773:Middlewares/ST/STM32_USB_Host_Library/Core/Src/usbh_core.c ****       {
 1525              		.loc 1 773 0
 1526 0252 D4F8D433 		ldr	r3, [r4, #980]
 1527 0256 13B1     		cbz	r3, .L136
 775:Middlewares/ST/STM32_USB_Host_Library/Core/Src/usbh_core.c ****       }
 1528              		.loc 1 775 0
 1529 0258 0521     		movs	r1, #5
 1530 025a 2046     		mov	r0, r4
 1531 025c 9847     		blx	r3
 1532              	.LVL151:
 1533              	.L136:
 779:Middlewares/ST/STM32_USB_Host_Library/Core/Src/usbh_core.c ****       {
ARM GAS  C:\Users\User\AppData\Local\Temp\ccMoYMA0.s 			page 53


 1534              		.loc 1 779 0
 1535 025e 94F82233 		ldrb	r3, [r4, #802]	@ zero_extendqisi2
 1536 0262 DBB2     		uxtb	r3, r3
 1537 0264 012B     		cmp	r3, #1
 1538 0266 03D0     		beq	.L145
 789:Middlewares/ST/STM32_USB_Host_Library/Core/Src/usbh_core.c ****       }
 1539              		.loc 1 789 0
 1540 0268 2046     		mov	r0, r4
 1541 026a FFF7FEFF 		bl	USBH_LL_Start
 1542              	.LVL152:
 1543 026e 52E7     		b	.L108
 1544              	.L145:
 781:Middlewares/ST/STM32_USB_Host_Library/Core/Src/usbh_core.c **** 
 1545              		.loc 1 781 0
 1546 0270 0023     		movs	r3, #0
 1547 0272 84F82233 		strb	r3, [r4, #802]
 784:Middlewares/ST/STM32_USB_Host_Library/Core/Src/usbh_core.c ****       }
 1548              		.loc 1 784 0
 1549 0276 2046     		mov	r0, r4
 1550 0278 FFF7FEFF 		bl	USBH_Start
 1551              	.LVL153:
 1552 027c 4BE7     		b	.L108
 1553              		.cfi_endproc
 1554              	.LFE144:
 1556              		.section	.text.USBH_LL_SetTimer,"ax",%progbits
 1557              		.align	1
 1558              		.global	USBH_LL_SetTimer
 1559              		.syntax unified
 1560              		.thumb
 1561              		.thumb_func
 1562              		.fpu fpv4-sp-d16
 1564              	USBH_LL_SetTimer:
 1565              	.LFB146:
1156:Middlewares/ST/STM32_USB_Host_Library/Core/Src/usbh_core.c ****   phost->Timer = time;
 1566              		.loc 1 1156 0
 1567              		.cfi_startproc
 1568              		@ args = 0, pretend = 0, frame = 0
 1569              		@ frame_needed = 0, uses_anonymous_args = 0
 1570              		@ link register save eliminated.
 1571              	.LVL154:
1157:Middlewares/ST/STM32_USB_Host_Library/Core/Src/usbh_core.c **** }
 1572              		.loc 1 1157 0
 1573 0000 C0F8C413 		str	r1, [r0, #964]
1158:Middlewares/ST/STM32_USB_Host_Library/Core/Src/usbh_core.c **** 
 1574              		.loc 1 1158 0
 1575 0004 7047     		bx	lr
 1576              		.cfi_endproc
 1577              	.LFE146:
 1579              		.section	.text.USBH_LL_IncTimer,"ax",%progbits
 1580              		.align	1
 1581              		.global	USBH_LL_IncTimer
 1582              		.syntax unified
 1583              		.thumb
 1584              		.thumb_func
 1585              		.fpu fpv4-sp-d16
 1587              	USBH_LL_IncTimer:
 1588              	.LFB147:
ARM GAS  C:\Users\User\AppData\Local\Temp\ccMoYMA0.s 			page 54


1168:Middlewares/ST/STM32_USB_Host_Library/Core/Src/usbh_core.c ****   phost->Timer++;
 1589              		.loc 1 1168 0
 1590              		.cfi_startproc
 1591              		@ args = 0, pretend = 0, frame = 0
 1592              		@ frame_needed = 0, uses_anonymous_args = 0
 1593              	.LVL155:
 1594 0000 08B5     		push	{r3, lr}
 1595              	.LCFI20:
 1596              		.cfi_def_cfa_offset 8
 1597              		.cfi_offset 3, -8
 1598              		.cfi_offset 14, -4
1169:Middlewares/ST/STM32_USB_Host_Library/Core/Src/usbh_core.c ****   USBH_HandleSof(phost);
 1599              		.loc 1 1169 0
 1600 0002 D0F8C433 		ldr	r3, [r0, #964]
 1601 0006 0133     		adds	r3, r3, #1
 1602 0008 C0F8C433 		str	r3, [r0, #964]
1170:Middlewares/ST/STM32_USB_Host_Library/Core/Src/usbh_core.c **** }
 1603              		.loc 1 1170 0
 1604 000c FFF7FEFF 		bl	USBH_HandleSof
 1605              	.LVL156:
1171:Middlewares/ST/STM32_USB_Host_Library/Core/Src/usbh_core.c **** 
 1606              		.loc 1 1171 0
 1607 0010 08BD     		pop	{r3, pc}
 1608              		.cfi_endproc
 1609              	.LFE147:
 1611              		.section	.text.USBH_LL_PortEnabled,"ax",%progbits
 1612              		.align	1
 1613              		.global	USBH_LL_PortEnabled
 1614              		.syntax unified
 1615              		.thumb
 1616              		.thumb_func
 1617              		.fpu fpv4-sp-d16
 1619              	USBH_LL_PortEnabled:
 1620              	.LFB149:
1187:Middlewares/ST/STM32_USB_Host_Library/Core/Src/usbh_core.c **** 
1188:Middlewares/ST/STM32_USB_Host_Library/Core/Src/usbh_core.c **** 
1189:Middlewares/ST/STM32_USB_Host_Library/Core/Src/usbh_core.c **** /**
1190:Middlewares/ST/STM32_USB_Host_Library/Core/Src/usbh_core.c ****   * @brief  USBH_PortEnabled
1191:Middlewares/ST/STM32_USB_Host_Library/Core/Src/usbh_core.c ****   *         Port Enabled
1192:Middlewares/ST/STM32_USB_Host_Library/Core/Src/usbh_core.c ****   * @param  phost: Host Handle
1193:Middlewares/ST/STM32_USB_Host_Library/Core/Src/usbh_core.c ****   * @retval None
1194:Middlewares/ST/STM32_USB_Host_Library/Core/Src/usbh_core.c ****   */
1195:Middlewares/ST/STM32_USB_Host_Library/Core/Src/usbh_core.c **** void USBH_LL_PortEnabled(USBH_HandleTypeDef *phost)
1196:Middlewares/ST/STM32_USB_Host_Library/Core/Src/usbh_core.c **** {
 1621              		.loc 1 1196 0
 1622              		.cfi_startproc
 1623              		@ args = 0, pretend = 0, frame = 0
 1624              		@ frame_needed = 0, uses_anonymous_args = 0
 1625              		@ link register save eliminated.
 1626              	.LVL157:
1197:Middlewares/ST/STM32_USB_Host_Library/Core/Src/usbh_core.c ****   phost->device.PortEnabled = 1U;
 1627              		.loc 1 1197 0
 1628 0000 0123     		movs	r3, #1
 1629 0002 80F82333 		strb	r3, [r0, #803]
1198:Middlewares/ST/STM32_USB_Host_Library/Core/Src/usbh_core.c **** 
1199:Middlewares/ST/STM32_USB_Host_Library/Core/Src/usbh_core.c **** #if (USBH_USE_OS == 1U)
1200:Middlewares/ST/STM32_USB_Host_Library/Core/Src/usbh_core.c ****   phost->os_msg = (uint32_t)USBH_PORT_EVENT;
ARM GAS  C:\Users\User\AppData\Local\Temp\ccMoYMA0.s 			page 55


1201:Middlewares/ST/STM32_USB_Host_Library/Core/Src/usbh_core.c **** #if (osCMSIS < 0x20000U)
1202:Middlewares/ST/STM32_USB_Host_Library/Core/Src/usbh_core.c ****   (void)osMessagePut(phost->os_event, phost->os_msg, 0U);
1203:Middlewares/ST/STM32_USB_Host_Library/Core/Src/usbh_core.c **** #else
1204:Middlewares/ST/STM32_USB_Host_Library/Core/Src/usbh_core.c ****   (void)osMessageQueuePut(phost->os_event, &phost->os_msg, 0U, NULL);
1205:Middlewares/ST/STM32_USB_Host_Library/Core/Src/usbh_core.c **** #endif
1206:Middlewares/ST/STM32_USB_Host_Library/Core/Src/usbh_core.c **** #endif
1207:Middlewares/ST/STM32_USB_Host_Library/Core/Src/usbh_core.c **** 
1208:Middlewares/ST/STM32_USB_Host_Library/Core/Src/usbh_core.c ****   return;
1209:Middlewares/ST/STM32_USB_Host_Library/Core/Src/usbh_core.c **** }
 1630              		.loc 1 1209 0
 1631 0006 7047     		bx	lr
 1632              		.cfi_endproc
 1633              	.LFE149:
 1635              		.section	.text.USBH_LL_PortDisabled,"ax",%progbits
 1636              		.align	1
 1637              		.global	USBH_LL_PortDisabled
 1638              		.syntax unified
 1639              		.thumb
 1640              		.thumb_func
 1641              		.fpu fpv4-sp-d16
 1643              	USBH_LL_PortDisabled:
 1644              	.LFB150:
1210:Middlewares/ST/STM32_USB_Host_Library/Core/Src/usbh_core.c **** 
1211:Middlewares/ST/STM32_USB_Host_Library/Core/Src/usbh_core.c **** 
1212:Middlewares/ST/STM32_USB_Host_Library/Core/Src/usbh_core.c **** /**
1213:Middlewares/ST/STM32_USB_Host_Library/Core/Src/usbh_core.c ****   * @brief  USBH_LL_PortDisabled
1214:Middlewares/ST/STM32_USB_Host_Library/Core/Src/usbh_core.c ****   *         Port Disabled
1215:Middlewares/ST/STM32_USB_Host_Library/Core/Src/usbh_core.c ****   * @param  phost: Host Handle
1216:Middlewares/ST/STM32_USB_Host_Library/Core/Src/usbh_core.c ****   * @retval None
1217:Middlewares/ST/STM32_USB_Host_Library/Core/Src/usbh_core.c ****   */
1218:Middlewares/ST/STM32_USB_Host_Library/Core/Src/usbh_core.c **** void USBH_LL_PortDisabled(USBH_HandleTypeDef *phost)
1219:Middlewares/ST/STM32_USB_Host_Library/Core/Src/usbh_core.c **** {
 1645              		.loc 1 1219 0
 1646              		.cfi_startproc
 1647              		@ args = 0, pretend = 0, frame = 0
 1648              		@ frame_needed = 0, uses_anonymous_args = 0
 1649              		@ link register save eliminated.
 1650              	.LVL158:
1220:Middlewares/ST/STM32_USB_Host_Library/Core/Src/usbh_core.c ****   phost->device.PortEnabled = 0U;
 1651              		.loc 1 1220 0
 1652 0000 0023     		movs	r3, #0
 1653 0002 80F82333 		strb	r3, [r0, #803]
1221:Middlewares/ST/STM32_USB_Host_Library/Core/Src/usbh_core.c **** 
1222:Middlewares/ST/STM32_USB_Host_Library/Core/Src/usbh_core.c ****   return;
1223:Middlewares/ST/STM32_USB_Host_Library/Core/Src/usbh_core.c **** }
 1654              		.loc 1 1223 0
 1655 0006 7047     		bx	lr
 1656              		.cfi_endproc
 1657              	.LFE150:
 1659              		.section	.text.USBH_IsPortEnabled,"ax",%progbits
 1660              		.align	1
 1661              		.global	USBH_IsPortEnabled
 1662              		.syntax unified
 1663              		.thumb
 1664              		.thumb_func
 1665              		.fpu fpv4-sp-d16
 1667              	USBH_IsPortEnabled:
ARM GAS  C:\Users\User\AppData\Local\Temp\ccMoYMA0.s 			page 56


 1668              	.LFB151:
1224:Middlewares/ST/STM32_USB_Host_Library/Core/Src/usbh_core.c **** 
1225:Middlewares/ST/STM32_USB_Host_Library/Core/Src/usbh_core.c **** 
1226:Middlewares/ST/STM32_USB_Host_Library/Core/Src/usbh_core.c **** /**
1227:Middlewares/ST/STM32_USB_Host_Library/Core/Src/usbh_core.c ****   * @brief  HCD_IsPortEnabled
1228:Middlewares/ST/STM32_USB_Host_Library/Core/Src/usbh_core.c ****   *         Is Port Enabled
1229:Middlewares/ST/STM32_USB_Host_Library/Core/Src/usbh_core.c ****   * @param  phost: Host Handle
1230:Middlewares/ST/STM32_USB_Host_Library/Core/Src/usbh_core.c ****   * @retval None
1231:Middlewares/ST/STM32_USB_Host_Library/Core/Src/usbh_core.c ****   */
1232:Middlewares/ST/STM32_USB_Host_Library/Core/Src/usbh_core.c **** uint8_t USBH_IsPortEnabled(USBH_HandleTypeDef *phost)
1233:Middlewares/ST/STM32_USB_Host_Library/Core/Src/usbh_core.c **** {
 1669              		.loc 1 1233 0
 1670              		.cfi_startproc
 1671              		@ args = 0, pretend = 0, frame = 0
 1672              		@ frame_needed = 0, uses_anonymous_args = 0
 1673              		@ link register save eliminated.
 1674              	.LVL159:
1234:Middlewares/ST/STM32_USB_Host_Library/Core/Src/usbh_core.c ****   return (phost->device.PortEnabled);
1235:Middlewares/ST/STM32_USB_Host_Library/Core/Src/usbh_core.c **** }
 1675              		.loc 1 1235 0
 1676 0000 90F82303 		ldrb	r0, [r0, #803]	@ zero_extendqisi2
 1677              	.LVL160:
 1678 0004 7047     		bx	lr
 1679              		.cfi_endproc
 1680              	.LFE151:
 1682              		.section	.text.USBH_ReEnumerate,"ax",%progbits
 1683              		.align	1
 1684              		.global	USBH_ReEnumerate
 1685              		.syntax unified
 1686              		.thumb
 1687              		.thumb_func
 1688              		.fpu fpv4-sp-d16
 1690              	USBH_ReEnumerate:
 1691              	.LFB143:
 427:Middlewares/ST/STM32_USB_Host_Library/Core/Src/usbh_core.c ****   if (USBH_IsPortEnabled(phost))
 1692              		.loc 1 427 0
 1693              		.cfi_startproc
 1694              		@ args = 0, pretend = 0, frame = 0
 1695              		@ frame_needed = 0, uses_anonymous_args = 0
 1696              	.LVL161:
 1697 0000 38B5     		push	{r3, r4, r5, lr}
 1698              	.LCFI21:
 1699              		.cfi_def_cfa_offset 16
 1700              		.cfi_offset 3, -16
 1701              		.cfi_offset 4, -12
 1702              		.cfi_offset 5, -8
 1703              		.cfi_offset 14, -4
 1704 0002 0446     		mov	r4, r0
 428:Middlewares/ST/STM32_USB_Host_Library/Core/Src/usbh_core.c ****   {
 1705              		.loc 1 428 0
 1706 0004 FFF7FEFF 		bl	USBH_IsPortEnabled
 1707              	.LVL162:
 1708 0008 08B9     		cbnz	r0, .L155
 1709              	.L153:
 448:Middlewares/ST/STM32_USB_Host_Library/Core/Src/usbh_core.c **** 
 1710              		.loc 1 448 0
 1711 000a 0020     		movs	r0, #0
ARM GAS  C:\Users\User\AppData\Local\Temp\ccMoYMA0.s 			page 57


 1712 000c 38BD     		pop	{r3, r4, r5, pc}
 1713              	.LVL163:
 1714              	.L155:
 430:Middlewares/ST/STM32_USB_Host_Library/Core/Src/usbh_core.c **** 
 1715              		.loc 1 430 0
 1716 000e 0125     		movs	r5, #1
 1717 0010 84F82253 		strb	r5, [r4, #802]
 433:Middlewares/ST/STM32_USB_Host_Library/Core/Src/usbh_core.c **** 
 1718              		.loc 1 433 0
 1719 0014 2046     		mov	r0, r4
 1720 0016 FFF7FEFF 		bl	USBH_Stop
 1721              	.LVL164:
 435:Middlewares/ST/STM32_USB_Host_Library/Core/Src/usbh_core.c ****   }
 1722              		.loc 1 435 0
 1723 001a 84F82153 		strb	r5, [r4, #801]
 1724 001e F4E7     		b	.L153
 1725              		.cfi_endproc
 1726              	.LFE143:
 1728              		.section	.text.USBH_LL_Connect,"ax",%progbits
 1729              		.align	1
 1730              		.global	USBH_LL_Connect
 1731              		.syntax unified
 1732              		.thumb
 1733              		.thumb_func
 1734              		.fpu fpv4-sp-d16
 1736              	USBH_LL_Connect:
 1737              	.LFB152:
1236:Middlewares/ST/STM32_USB_Host_Library/Core/Src/usbh_core.c **** 
1237:Middlewares/ST/STM32_USB_Host_Library/Core/Src/usbh_core.c **** 
1238:Middlewares/ST/STM32_USB_Host_Library/Core/Src/usbh_core.c **** /**
1239:Middlewares/ST/STM32_USB_Host_Library/Core/Src/usbh_core.c ****   * @brief  USBH_LL_Connect
1240:Middlewares/ST/STM32_USB_Host_Library/Core/Src/usbh_core.c ****   *         Handle USB Host connexion event
1241:Middlewares/ST/STM32_USB_Host_Library/Core/Src/usbh_core.c ****   * @param  phost: Host Handle
1242:Middlewares/ST/STM32_USB_Host_Library/Core/Src/usbh_core.c ****   * @retval USBH_Status
1243:Middlewares/ST/STM32_USB_Host_Library/Core/Src/usbh_core.c ****   */
1244:Middlewares/ST/STM32_USB_Host_Library/Core/Src/usbh_core.c **** USBH_StatusTypeDef  USBH_LL_Connect(USBH_HandleTypeDef *phost)
1245:Middlewares/ST/STM32_USB_Host_Library/Core/Src/usbh_core.c **** {
 1738              		.loc 1 1245 0
 1739              		.cfi_startproc
 1740              		@ args = 0, pretend = 0, frame = 0
 1741              		@ frame_needed = 0, uses_anonymous_args = 0
 1742              		@ link register save eliminated.
 1743              	.LVL165:
1246:Middlewares/ST/STM32_USB_Host_Library/Core/Src/usbh_core.c ****   phost->device.is_connected = 1U;
 1744              		.loc 1 1246 0
 1745 0000 0123     		movs	r3, #1
 1746 0002 80F82033 		strb	r3, [r0, #800]
1247:Middlewares/ST/STM32_USB_Host_Library/Core/Src/usbh_core.c ****   phost->device.is_disconnected = 0U;
 1747              		.loc 1 1247 0
 1748 0006 0023     		movs	r3, #0
 1749 0008 80F82133 		strb	r3, [r0, #801]
1248:Middlewares/ST/STM32_USB_Host_Library/Core/Src/usbh_core.c ****   phost->device.is_ReEnumerated = 0U;
 1750              		.loc 1 1248 0
 1751 000c 80F82233 		strb	r3, [r0, #802]
1249:Middlewares/ST/STM32_USB_Host_Library/Core/Src/usbh_core.c **** 
1250:Middlewares/ST/STM32_USB_Host_Library/Core/Src/usbh_core.c **** 
1251:Middlewares/ST/STM32_USB_Host_Library/Core/Src/usbh_core.c **** #if (USBH_USE_OS == 1U)
ARM GAS  C:\Users\User\AppData\Local\Temp\ccMoYMA0.s 			page 58


1252:Middlewares/ST/STM32_USB_Host_Library/Core/Src/usbh_core.c ****   phost->os_msg = (uint32_t)USBH_PORT_EVENT;
1253:Middlewares/ST/STM32_USB_Host_Library/Core/Src/usbh_core.c **** #if (osCMSIS < 0x20000U)
1254:Middlewares/ST/STM32_USB_Host_Library/Core/Src/usbh_core.c ****   (void)osMessagePut(phost->os_event, phost->os_msg, 0U);
1255:Middlewares/ST/STM32_USB_Host_Library/Core/Src/usbh_core.c **** #else
1256:Middlewares/ST/STM32_USB_Host_Library/Core/Src/usbh_core.c ****   (void)osMessageQueuePut(phost->os_event, &phost->os_msg, 0U, NULL);
1257:Middlewares/ST/STM32_USB_Host_Library/Core/Src/usbh_core.c **** #endif
1258:Middlewares/ST/STM32_USB_Host_Library/Core/Src/usbh_core.c **** #endif
1259:Middlewares/ST/STM32_USB_Host_Library/Core/Src/usbh_core.c **** 
1260:Middlewares/ST/STM32_USB_Host_Library/Core/Src/usbh_core.c ****   return USBH_OK;
1261:Middlewares/ST/STM32_USB_Host_Library/Core/Src/usbh_core.c **** }
 1752              		.loc 1 1261 0
 1753 0010 1846     		mov	r0, r3
 1754              	.LVL166:
 1755 0012 7047     		bx	lr
 1756              		.cfi_endproc
 1757              	.LFE152:
 1759              		.section	.text.USBH_LL_Disconnect,"ax",%progbits
 1760              		.align	1
 1761              		.global	USBH_LL_Disconnect
 1762              		.syntax unified
 1763              		.thumb
 1764              		.thumb_func
 1765              		.fpu fpv4-sp-d16
 1767              	USBH_LL_Disconnect:
 1768              	.LFB153:
1262:Middlewares/ST/STM32_USB_Host_Library/Core/Src/usbh_core.c **** 
1263:Middlewares/ST/STM32_USB_Host_Library/Core/Src/usbh_core.c **** 
1264:Middlewares/ST/STM32_USB_Host_Library/Core/Src/usbh_core.c **** /**
1265:Middlewares/ST/STM32_USB_Host_Library/Core/Src/usbh_core.c ****   * @brief  USBH_LL_Disconnect
1266:Middlewares/ST/STM32_USB_Host_Library/Core/Src/usbh_core.c ****   *         Handle USB Host disconnection event
1267:Middlewares/ST/STM32_USB_Host_Library/Core/Src/usbh_core.c ****   * @param  phost: Host Handle
1268:Middlewares/ST/STM32_USB_Host_Library/Core/Src/usbh_core.c ****   * @retval USBH_Status
1269:Middlewares/ST/STM32_USB_Host_Library/Core/Src/usbh_core.c ****   */
1270:Middlewares/ST/STM32_USB_Host_Library/Core/Src/usbh_core.c **** USBH_StatusTypeDef  USBH_LL_Disconnect(USBH_HandleTypeDef *phost)
1271:Middlewares/ST/STM32_USB_Host_Library/Core/Src/usbh_core.c **** {
 1769              		.loc 1 1271 0
 1770              		.cfi_startproc
 1771              		@ args = 0, pretend = 0, frame = 0
 1772              		@ frame_needed = 0, uses_anonymous_args = 0
 1773              	.LVL167:
 1774 0000 38B5     		push	{r3, r4, r5, lr}
 1775              	.LCFI22:
 1776              		.cfi_def_cfa_offset 16
 1777              		.cfi_offset 3, -16
 1778              		.cfi_offset 4, -12
 1779              		.cfi_offset 5, -8
 1780              		.cfi_offset 14, -4
 1781 0002 0446     		mov	r4, r0
1272:Middlewares/ST/STM32_USB_Host_Library/Core/Src/usbh_core.c ****   /* update device connection states */
1273:Middlewares/ST/STM32_USB_Host_Library/Core/Src/usbh_core.c ****   phost->device.is_disconnected = 1U;
 1782              		.loc 1 1273 0
 1783 0004 0123     		movs	r3, #1
 1784 0006 80F82133 		strb	r3, [r0, #801]
1274:Middlewares/ST/STM32_USB_Host_Library/Core/Src/usbh_core.c ****   phost->device.is_connected = 0U;
 1785              		.loc 1 1274 0
 1786 000a 0025     		movs	r5, #0
 1787 000c 80F82053 		strb	r5, [r0, #800]
ARM GAS  C:\Users\User\AppData\Local\Temp\ccMoYMA0.s 			page 59


1275:Middlewares/ST/STM32_USB_Host_Library/Core/Src/usbh_core.c ****   phost->device.PortEnabled = 0U;
 1788              		.loc 1 1275 0
 1789 0010 80F82353 		strb	r5, [r0, #803]
1276:Middlewares/ST/STM32_USB_Host_Library/Core/Src/usbh_core.c **** 
1277:Middlewares/ST/STM32_USB_Host_Library/Core/Src/usbh_core.c ****   /* Stop Host */
1278:Middlewares/ST/STM32_USB_Host_Library/Core/Src/usbh_core.c ****   USBH_LL_Stop(phost);
 1790              		.loc 1 1278 0
 1791 0014 FFF7FEFF 		bl	USBH_LL_Stop
 1792              	.LVL168:
1279:Middlewares/ST/STM32_USB_Host_Library/Core/Src/usbh_core.c **** 
1280:Middlewares/ST/STM32_USB_Host_Library/Core/Src/usbh_core.c ****   /* FRee Control Pipes */
1281:Middlewares/ST/STM32_USB_Host_Library/Core/Src/usbh_core.c ****   USBH_FreePipe(phost, phost->Control.pipe_in);
 1793              		.loc 1 1281 0
 1794 0018 2179     		ldrb	r1, [r4, #4]	@ zero_extendqisi2
 1795 001a 2046     		mov	r0, r4
 1796 001c FFF7FEFF 		bl	USBH_FreePipe
 1797              	.LVL169:
1282:Middlewares/ST/STM32_USB_Host_Library/Core/Src/usbh_core.c ****   USBH_FreePipe(phost, phost->Control.pipe_out);
 1798              		.loc 1 1282 0
 1799 0020 6179     		ldrb	r1, [r4, #5]	@ zero_extendqisi2
 1800 0022 2046     		mov	r0, r4
 1801 0024 FFF7FEFF 		bl	USBH_FreePipe
 1802              	.LVL170:
1283:Middlewares/ST/STM32_USB_Host_Library/Core/Src/usbh_core.c **** #if (USBH_USE_OS == 1U)
1284:Middlewares/ST/STM32_USB_Host_Library/Core/Src/usbh_core.c ****   phost->os_msg = (uint32_t)USBH_PORT_EVENT;
1285:Middlewares/ST/STM32_USB_Host_Library/Core/Src/usbh_core.c **** #if (osCMSIS < 0x20000U)
1286:Middlewares/ST/STM32_USB_Host_Library/Core/Src/usbh_core.c ****   (void)osMessagePut(phost->os_event, phost->os_msg, 0U);
1287:Middlewares/ST/STM32_USB_Host_Library/Core/Src/usbh_core.c **** #else
1288:Middlewares/ST/STM32_USB_Host_Library/Core/Src/usbh_core.c ****   (void)osMessageQueuePut(phost->os_event, &phost->os_msg, 0U, NULL);
1289:Middlewares/ST/STM32_USB_Host_Library/Core/Src/usbh_core.c **** #endif
1290:Middlewares/ST/STM32_USB_Host_Library/Core/Src/usbh_core.c **** #endif
1291:Middlewares/ST/STM32_USB_Host_Library/Core/Src/usbh_core.c **** 
1292:Middlewares/ST/STM32_USB_Host_Library/Core/Src/usbh_core.c ****   return USBH_OK;
1293:Middlewares/ST/STM32_USB_Host_Library/Core/Src/usbh_core.c **** }
 1803              		.loc 1 1293 0
 1804 0028 2846     		mov	r0, r5
 1805 002a 38BD     		pop	{r3, r4, r5, pc}
 1806              		.cfi_endproc
 1807              	.LFE153:
 1809              		.text
 1810              	.Letext0:
 1811              		.file 2 "d:\\stm32_project\\tool\\7-2018-q2-update\\arm-none-eabi\\include\\machine\\_default_type
 1812              		.file 3 "d:\\stm32_project\\tool\\7-2018-q2-update\\arm-none-eabi\\include\\sys\\lock.h"
 1813              		.file 4 "d:\\stm32_project\\tool\\7-2018-q2-update\\arm-none-eabi\\include\\sys\\_types.h"
 1814              		.file 5 "d:\\stm32_project\\tool\\7-2018-q2-update\\lib\\gcc\\arm-none-eabi\\7.3.1\\include\\stdde
 1815              		.file 6 "d:\\stm32_project\\tool\\7-2018-q2-update\\arm-none-eabi\\include\\sys\\reent.h"
 1816              		.file 7 "d:\\stm32_project\\tool\\7-2018-q2-update\\arm-none-eabi\\include\\sys\\_stdint.h"
 1817              		.file 8 "d:\\stm32_project\\tool\\7-2018-q2-update\\arm-none-eabi\\include\\stdlib.h"
 1818              		.file 9 "Drivers/CMSIS/Include/core_cm4.h"
 1819              		.file 10 "Drivers/CMSIS/Device/ST/STM32F4xx/Include/system_stm32f4xx.h"
 1820              		.file 11 "Drivers/STM32F4xx_HAL_Driver/Inc/stm32f4xx_hal.h"
 1821              		.file 12 "Middlewares/ST/STM32_USB_Host_Library/Core/Inc/usbh_def.h"
 1822              		.file 13 "Middlewares/ST/STM32_USB_Host_Library/Core/Inc/usbh_ctlreq.h"
 1823              		.file 14 "Middlewares/ST/STM32_USB_Host_Library/Core/Inc/usbh_core.h"
 1824              		.file 15 "Middlewares/ST/STM32_USB_Host_Library/Core/Inc/usbh_pipes.h"
ARM GAS  C:\Users\User\AppData\Local\Temp\ccMoYMA0.s 			page 60


DEFINED SYMBOLS
                            *ABS*:00000000 usbh_core.c
C:\Users\User\AppData\Local\Temp\ccMoYMA0.s:18     .text.DeInitStateMachine:00000000 $t
C:\Users\User\AppData\Local\Temp\ccMoYMA0.s:24     .text.DeInitStateMachine:00000000 DeInitStateMachine
C:\Users\User\AppData\Local\Temp\ccMoYMA0.s:101    .text.USBH_HandleSof:00000000 $t
C:\Users\User\AppData\Local\Temp\ccMoYMA0.s:107    .text.USBH_HandleSof:00000000 USBH_HandleSof
C:\Users\User\AppData\Local\Temp\ccMoYMA0.s:144    .text.USBH_HandleEnum:00000000 $t
C:\Users\User\AppData\Local\Temp\ccMoYMA0.s:150    .text.USBH_HandleEnum:00000000 USBH_HandleEnum
C:\Users\User\AppData\Local\Temp\ccMoYMA0.s:175    .text.USBH_HandleEnum:00000012 $d
C:\Users\User\AppData\Local\Temp\ccMoYMA0.s:183    .text.USBH_HandleEnum:00000022 $t
C:\Users\User\AppData\Local\Temp\ccMoYMA0.s:622    .text.USBH_Init:00000000 $t
C:\Users\User\AppData\Local\Temp\ccMoYMA0.s:629    .text.USBH_Init:00000000 USBH_Init
C:\Users\User\AppData\Local\Temp\ccMoYMA0.s:696    .text.USBH_DeInit:00000000 $t
C:\Users\User\AppData\Local\Temp\ccMoYMA0.s:703    .text.USBH_DeInit:00000000 USBH_DeInit
C:\Users\User\AppData\Local\Temp\ccMoYMA0.s:747    .text.USBH_RegisterClass:00000000 $t
C:\Users\User\AppData\Local\Temp\ccMoYMA0.s:754    .text.USBH_RegisterClass:00000000 USBH_RegisterClass
C:\Users\User\AppData\Local\Temp\ccMoYMA0.s:795    .text.USBH_SelectInterface:00000000 $t
C:\Users\User\AppData\Local\Temp\ccMoYMA0.s:802    .text.USBH_SelectInterface:00000000 USBH_SelectInterface
C:\Users\User\AppData\Local\Temp\ccMoYMA0.s:831    .text.USBH_GetActiveClass:00000000 $t
C:\Users\User\AppData\Local\Temp\ccMoYMA0.s:838    .text.USBH_GetActiveClass:00000000 USBH_GetActiveClass
C:\Users\User\AppData\Local\Temp\ccMoYMA0.s:854    .text.USBH_FindInterface:00000000 $t
C:\Users\User\AppData\Local\Temp\ccMoYMA0.s:861    .text.USBH_FindInterface:00000000 USBH_FindInterface
C:\Users\User\AppData\Local\Temp\ccMoYMA0.s:946    .text.USBH_FindInterfaceIndex:00000000 $t
C:\Users\User\AppData\Local\Temp\ccMoYMA0.s:953    .text.USBH_FindInterfaceIndex:00000000 USBH_FindInterfaceIndex
C:\Users\User\AppData\Local\Temp\ccMoYMA0.s:1029   .text.USBH_Start:00000000 $t
C:\Users\User\AppData\Local\Temp\ccMoYMA0.s:1036   .text.USBH_Start:00000000 USBH_Start
C:\Users\User\AppData\Local\Temp\ccMoYMA0.s:1064   .text.USBH_Stop:00000000 $t
C:\Users\User\AppData\Local\Temp\ccMoYMA0.s:1071   .text.USBH_Stop:00000000 USBH_Stop
C:\Users\User\AppData\Local\Temp\ccMoYMA0.s:1109   .text.USBH_Process:00000000 $t
C:\Users\User\AppData\Local\Temp\ccMoYMA0.s:1116   .text.USBH_Process:00000000 USBH_Process
C:\Users\User\AppData\Local\Temp\ccMoYMA0.s:1150   .text.USBH_Process:00000022 $d
C:\Users\User\AppData\Local\Temp\ccMoYMA0.s:1162   .text.USBH_Process:0000003a $t
C:\Users\User\AppData\Local\Temp\ccMoYMA0.s:1557   .text.USBH_LL_SetTimer:00000000 $t
C:\Users\User\AppData\Local\Temp\ccMoYMA0.s:1564   .text.USBH_LL_SetTimer:00000000 USBH_LL_SetTimer
C:\Users\User\AppData\Local\Temp\ccMoYMA0.s:1580   .text.USBH_LL_IncTimer:00000000 $t
C:\Users\User\AppData\Local\Temp\ccMoYMA0.s:1587   .text.USBH_LL_IncTimer:00000000 USBH_LL_IncTimer
C:\Users\User\AppData\Local\Temp\ccMoYMA0.s:1612   .text.USBH_LL_PortEnabled:00000000 $t
C:\Users\User\AppData\Local\Temp\ccMoYMA0.s:1619   .text.USBH_LL_PortEnabled:00000000 USBH_LL_PortEnabled
C:\Users\User\AppData\Local\Temp\ccMoYMA0.s:1636   .text.USBH_LL_PortDisabled:00000000 $t
C:\Users\User\AppData\Local\Temp\ccMoYMA0.s:1643   .text.USBH_LL_PortDisabled:00000000 USBH_LL_PortDisabled
C:\Users\User\AppData\Local\Temp\ccMoYMA0.s:1660   .text.USBH_IsPortEnabled:00000000 $t
C:\Users\User\AppData\Local\Temp\ccMoYMA0.s:1667   .text.USBH_IsPortEnabled:00000000 USBH_IsPortEnabled
C:\Users\User\AppData\Local\Temp\ccMoYMA0.s:1683   .text.USBH_ReEnumerate:00000000 $t
C:\Users\User\AppData\Local\Temp\ccMoYMA0.s:1690   .text.USBH_ReEnumerate:00000000 USBH_ReEnumerate
C:\Users\User\AppData\Local\Temp\ccMoYMA0.s:1729   .text.USBH_LL_Connect:00000000 $t
C:\Users\User\AppData\Local\Temp\ccMoYMA0.s:1736   .text.USBH_LL_Connect:00000000 USBH_LL_Connect
C:\Users\User\AppData\Local\Temp\ccMoYMA0.s:1760   .text.USBH_LL_Disconnect:00000000 $t
C:\Users\User\AppData\Local\Temp\ccMoYMA0.s:1767   .text.USBH_LL_Disconnect:00000000 USBH_LL_Disconnect

UNDEFINED SYMBOLS
USBH_Get_DevDesc
USBH_OpenPipe
USBH_FreePipe
USBH_SetAddress
USBH_Delay
USBH_Get_CfgDesc
USBH_Get_StringDesc
ARM GAS  C:\Users\User\AppData\Local\Temp\ccMoYMA0.s 			page 61


USBH_LL_Init
USBH_LL_Stop
USBH_LL_Start
USBH_LL_DriverVBUS
USBH_LL_ResetPort
USBH_LL_GetSpeed
USBH_AllocPipe
USBH_SetCfg
USBH_SetFeature
